SF:/home/odm3n/.rustup/toolchains/nightly-x86_64-unknown-linux-gnu/lib/rustlib/src/rust/library/std/src/sys/thread_local/native/mod.rs
FN:97,_RNCNkNvNvCscQlb7znvrtA_9vm_opcode1__35RECURSIVE_COUNT_ArbitraryStackValue0s_0B7_
FN:97,_RNCNkNvNvCscQlb7znvrtA_9vm_opcodes_1__21RECURSIVE_COUNT_Input0s_0B7_
FN:83,_RNvNvNvCscQlb7znvrtA_9vm_opcode1__35RECURSIVE_COUNT_ArbitraryStackValue6___init
FN:83,_RNvNvNvCscQlb7znvrtA_9vm_opcodes_1__21RECURSIVE_COUNT_Input6___init
FN:90,_RNCNkNvNvCscQlb7znvrtA_9vm_opcode1__35RECURSIVE_COUNT_ArbitraryStackValue00B7_
FN:90,_RNCNkNvNvCscQlb7znvrtA_9vm_opcodes_1__21RECURSIVE_COUNT_Input00B7_
FN:90,_RNCNkNvMs3_NtCsipbLpstqwUV_8tycho_vm5stateNtB9_7VmState11EMPTY_STACK00Bb_
FN:90,_RNCNkNvNtCsipbLpstqwUV_8tycho_vm5state5QUIT000B7_
FN:90,_RNCNkNvNtCsipbLpstqwUV_8tycho_vm5state5QUIT100B7_
FN:90,_RNCNkNvNtCsipbLpstqwUV_8tycho_vm5state6QUIT1100B7_
FN:90,_RNCNkNvNtCsipbLpstqwUV_8tycho_vm5state8EXC_QUIT00B7_
FN:90,_RNCNkNvNvMNtCsipbLpstqwUV_8tycho_vm5stackNtB8_5Stack14make_minus_one9MINUS_ONE00Ba_
FN:90,_RNCNkNvNvMNtCsipbLpstqwUV_8tycho_vm5stackNtB8_5Stack16make_empty_tuple11EMPTY_TUPLE00Ba_
FN:90,_RNCNkNvNvMNtCsipbLpstqwUV_8tycho_vm5stackNtB8_5Stack8make_nan3NAN00Ba_
FN:90,_RNCNkNvNvMNtCsipbLpstqwUV_8tycho_vm5stackNtB8_5Stack8make_one3ONE00Ba_
FN:90,_RNCNkNvNvMNtCsipbLpstqwUV_8tycho_vm5stackNtB8_5Stack9make_null4NULL00Ba_
FN:90,_RNCNkNvNvMNtCsipbLpstqwUV_8tycho_vm5stackNtB8_5Stack9make_zero3ONE00Ba_
FN:63,_RNCNkNvNvMsi_NtCsipbLpstqwUV_8tycho_vm6safercNtBb_11SafeDeleter6retire7DELETER00Bd_
FN:97,_RNCNkNvNvNtCsipbLpstqwUV_8tycho_vm5stack1__30RECURSIVE_COUNT_StackValueType0s_0B9_
FN:83,_RNvNvMs3_NtCsipbLpstqwUV_8tycho_vm5stateNtB7_7VmState11EMPTY_STACK6___init
FN:83,_RNvNvNtCsipbLpstqwUV_8tycho_vm5state5QUIT06___init
FN:83,_RNvNvNtCsipbLpstqwUV_8tycho_vm5state5QUIT16___init
FN:83,_RNvNvNtCsipbLpstqwUV_8tycho_vm5state6QUIT116___init
FN:83,_RNvNvNtCsipbLpstqwUV_8tycho_vm5state8EXC_QUIT6___init
FN:83,_RNvNvNvMNtCsipbLpstqwUV_8tycho_vm5stackNtB6_5Stack14make_minus_one9MINUS_ONE6___init
FN:83,_RNvNvNvMNtCsipbLpstqwUV_8tycho_vm5stackNtB6_5Stack16make_empty_tuple11EMPTY_TUPLE6___init
FN:83,_RNvNvNvMNtCsipbLpstqwUV_8tycho_vm5stackNtB6_5Stack8make_nan3NAN6___init
FN:83,_RNvNvNvMNtCsipbLpstqwUV_8tycho_vm5stackNtB6_5Stack8make_one3ONE6___init
FN:83,_RNvNvNvMNtCsipbLpstqwUV_8tycho_vm5stackNtB6_5Stack9make_null4NULL6___init
FN:83,_RNvNvNvMNtCsipbLpstqwUV_8tycho_vm5stackNtB6_5Stack9make_zero3ONE6___init
FN:83,_RNvNvNvNtCsipbLpstqwUV_8tycho_vm5stack1__30RECURSIVE_COUNT_StackValueType6___init
FN:97,_RNCNkNvMs3_NtCsipbLpstqwUV_8tycho_vm5stateNtB9_7VmState11EMPTY_STACK0s_0Bb_
FN:97,_RNCNkNvNtCsipbLpstqwUV_8tycho_vm5state5QUIT00s_0B7_
FN:97,_RNCNkNvNtCsipbLpstqwUV_8tycho_vm5state5QUIT10s_0B7_
FN:97,_RNCNkNvNtCsipbLpstqwUV_8tycho_vm5state6QUIT110s_0B7_
FN:97,_RNCNkNvNtCsipbLpstqwUV_8tycho_vm5state8EXC_QUIT0s_0B7_
FN:97,_RNCNkNvNvMNtCsipbLpstqwUV_8tycho_vm5stackNtB8_5Stack14make_minus_one9MINUS_ONE0s_0Ba_
FN:97,_RNCNkNvNvMNtCsipbLpstqwUV_8tycho_vm5stackNtB8_5Stack16make_empty_tuple11EMPTY_TUPLE0s_0Ba_
FN:97,_RNCNkNvNvMNtCsipbLpstqwUV_8tycho_vm5stackNtB8_5Stack8make_nan3NAN0s_0Ba_
FN:97,_RNCNkNvNvMNtCsipbLpstqwUV_8tycho_vm5stackNtB8_5Stack8make_one3ONE0s_0Ba_
FN:97,_RNCNkNvNvMNtCsipbLpstqwUV_8tycho_vm5stackNtB8_5Stack9make_null4NULL0s_0Ba_
FN:97,_RNCNkNvNvMNtCsipbLpstqwUV_8tycho_vm5stackNtB8_5Stack9make_zero3ONE0s_0Ba_
FN:70,_RNCNkNvNvMsi_NtCsipbLpstqwUV_8tycho_vm6safercNtBb_11SafeDeleter6retire7DELETER0s_0Bd_
FN:90,_RNCNkNvNvNtCsipbLpstqwUV_8tycho_vm5stack1__30RECURSIVE_COUNT_StackValueType00B9_
FN:97,_RNCNkNvNvNtNtCsdL4DZEAGarf_15everscale_types6models7account1__27RECURSIVE_COUNT_StorageUsed0s_0Bb_
FN:97,_RNCNkNvNvNtNtCsdL4DZEAGarf_15everscale_types6models7accounts0_1__27RECURSIVE_COUNT_StorageInfo0s_0Bb_
FN:97,_RNCNkNvNvNtNtCsdL4DZEAGarf_15everscale_types6models7accounts1_1__29RECURSIVE_COUNT_AccountStatus0s_0Bb_
FN:97,_RNCNkNvNvNtNtCsdL4DZEAGarf_15everscale_types6models7accounts2_1__23RECURSIVE_COUNT_Account0s_0Bb_
FN:97,_RNCNkNvNvNtNtCsdL4DZEAGarf_15everscale_types6models7accounts3_1__28RECURSIVE_COUNT_AccountState0s_0Bb_
FN:97,_RNCNkNvNvNtNtCsdL4DZEAGarf_15everscale_types6models7accounts4_1__28RECURSIVE_COUNT_SpecialFlags0s_0Bb_
FN:97,_RNCNkNvNvNtNtCsdL4DZEAGarf_15everscale_types6models7accounts5_1__25RECURSIVE_COUNT_SimpleLib0s_0Bb_
FN:97,_RNCNkNvNvNtNtCsdL4DZEAGarf_15everscale_types6models7accounts_1__32RECURSIVE_COUNT_StorageUsedShort0s_0Bb_
FN:97,_RNCNkNvNvNtNtCsdL4DZEAGarf_15everscale_types6models7message1__29RECURSIVE_COUNT_MessageLayout0s_0Bb_
FN:97,_RNCNkNvNvNtNtCsdL4DZEAGarf_15everscale_types6models7messages0_1__23RECURSIVE_COUNT_MsgType0s_0Bb_
FN:97,_RNCNkNvNvNtNtCsdL4DZEAGarf_15everscale_types6models7messages1_1__23RECURSIVE_COUNT_MsgInfo0s_0Bb_
FN:97,_RNCNkNvNvNtNtCsdL4DZEAGarf_15everscale_types6models7messages2_1__26RECURSIVE_COUNT_IntMsgInfo0s_0Bb_
FN:97,_RNCNkNvNvNtNtCsdL4DZEAGarf_15everscale_types6models7messages3_1__33RECURSIVE_COUNT_RelaxedIntMsgInfo0s_0Bb_
FN:97,_RNCNkNvNvNtNtCsdL4DZEAGarf_15everscale_types6models7messages4_1__28RECURSIVE_COUNT_ExtInMsgInfo0s_0Bb_
FN:97,_RNCNkNvNvNtNtCsdL4DZEAGarf_15everscale_types6models7messages5_1__29RECURSIVE_COUNT_ExtOutMsgInfo0s_0Bb_
FN:97,_RNCNkNvNvNtNtCsdL4DZEAGarf_15everscale_types6models7messages6_1__36RECURSIVE_COUNT_RelaxedExtOutMsgInfo0s_0Bb_
FN:97,_RNCNkNvNvNtNtCsdL4DZEAGarf_15everscale_types6models7messages_1__30RECURSIVE_COUNT_RelaxedMsgInfo0s_0Bb_
FN:90,_RNCNkNvNvXs8_NtNtNtCsdL4DZEAGarf_15everscale_types4cell9cell_impl2rcNtBb_4CellNtBf_10CellFamily10empty_cell10EMPTY_CELL00Bh_
FN:83,_RNvNvNvNtNtCsdL4DZEAGarf_15everscale_types6models7account1__27RECURSIVE_COUNT_StorageUsed6___init
FN:83,_RNvNvNvNtNtCsdL4DZEAGarf_15everscale_types6models7accounts0_1__27RECURSIVE_COUNT_StorageInfo6___init
FN:83,_RNvNvNvNtNtCsdL4DZEAGarf_15everscale_types6models7accounts1_1__29RECURSIVE_COUNT_AccountStatus6___init
FN:83,_RNvNvNvNtNtCsdL4DZEAGarf_15everscale_types6models7accounts2_1__23RECURSIVE_COUNT_Account6___init
FN:83,_RNvNvNvNtNtCsdL4DZEAGarf_15everscale_types6models7accounts3_1__28RECURSIVE_COUNT_AccountState6___init
FN:83,_RNvNvNvNtNtCsdL4DZEAGarf_15everscale_types6models7accounts4_1__28RECURSIVE_COUNT_SpecialFlags6___init
FN:83,_RNvNvNvNtNtCsdL4DZEAGarf_15everscale_types6models7accounts5_1__25RECURSIVE_COUNT_SimpleLib6___init
FN:83,_RNvNvNvNtNtCsdL4DZEAGarf_15everscale_types6models7accounts_1__32RECURSIVE_COUNT_StorageUsedShort6___init
FN:83,_RNvNvNvNtNtCsdL4DZEAGarf_15everscale_types6models7message1__29RECURSIVE_COUNT_MessageLayout6___init
FN:83,_RNvNvNvNtNtCsdL4DZEAGarf_15everscale_types6models7messages0_1__23RECURSIVE_COUNT_MsgType6___init
FN:83,_RNvNvNvNtNtCsdL4DZEAGarf_15everscale_types6models7messages1_1__23RECURSIVE_COUNT_MsgInfo6___init
FN:83,_RNvNvNvNtNtCsdL4DZEAGarf_15everscale_types6models7messages2_1__26RECURSIVE_COUNT_IntMsgInfo6___init
FN:83,_RNvNvNvNtNtCsdL4DZEAGarf_15everscale_types6models7messages3_1__33RECURSIVE_COUNT_RelaxedIntMsgInfo6___init
FN:83,_RNvNvNvNtNtCsdL4DZEAGarf_15everscale_types6models7messages4_1__28RECURSIVE_COUNT_ExtInMsgInfo6___init
FN:83,_RNvNvNvNtNtCsdL4DZEAGarf_15everscale_types6models7messages5_1__29RECURSIVE_COUNT_ExtOutMsgInfo6___init
FN:83,_RNvNvNvNtNtCsdL4DZEAGarf_15everscale_types6models7messages6_1__36RECURSIVE_COUNT_RelaxedExtOutMsgInfo6___init
FN:83,_RNvNvNvNtNtCsdL4DZEAGarf_15everscale_types6models7messages_1__30RECURSIVE_COUNT_RelaxedMsgInfo6___init
FN:83,_RNvNvNvXs8_NtNtNtCsdL4DZEAGarf_15everscale_types4cell9cell_impl2rcNtB9_4CellNtBd_10CellFamily10empty_cell10EMPTY_CELL6___init
FN:90,_RNCNkNvNvNtNtCsdL4DZEAGarf_15everscale_types6models7account1__27RECURSIVE_COUNT_StorageUsed00Bb_
FN:90,_RNCNkNvNvNtNtCsdL4DZEAGarf_15everscale_types6models7accounts0_1__27RECURSIVE_COUNT_StorageInfo00Bb_
FN:90,_RNCNkNvNvNtNtCsdL4DZEAGarf_15everscale_types6models7accounts1_1__29RECURSIVE_COUNT_AccountStatus00Bb_
FN:90,_RNCNkNvNvNtNtCsdL4DZEAGarf_15everscale_types6models7accounts2_1__23RECURSIVE_COUNT_Account00Bb_
FN:90,_RNCNkNvNvNtNtCsdL4DZEAGarf_15everscale_types6models7accounts3_1__28RECURSIVE_COUNT_AccountState00Bb_
FN:90,_RNCNkNvNvNtNtCsdL4DZEAGarf_15everscale_types6models7accounts4_1__28RECURSIVE_COUNT_SpecialFlags00Bb_
FN:90,_RNCNkNvNvNtNtCsdL4DZEAGarf_15everscale_types6models7accounts5_1__25RECURSIVE_COUNT_SimpleLib00Bb_
FN:90,_RNCNkNvNvNtNtCsdL4DZEAGarf_15everscale_types6models7accounts_1__32RECURSIVE_COUNT_StorageUsedShort00Bb_
FN:90,_RNCNkNvNvNtNtCsdL4DZEAGarf_15everscale_types6models7message1__29RECURSIVE_COUNT_MessageLayout00Bb_
FN:90,_RNCNkNvNvNtNtCsdL4DZEAGarf_15everscale_types6models7messages0_1__23RECURSIVE_COUNT_MsgType00Bb_
FN:90,_RNCNkNvNvNtNtCsdL4DZEAGarf_15everscale_types6models7messages1_1__23RECURSIVE_COUNT_MsgInfo00Bb_
FN:90,_RNCNkNvNvNtNtCsdL4DZEAGarf_15everscale_types6models7messages2_1__26RECURSIVE_COUNT_IntMsgInfo00Bb_
FN:90,_RNCNkNvNvNtNtCsdL4DZEAGarf_15everscale_types6models7messages3_1__33RECURSIVE_COUNT_RelaxedIntMsgInfo00Bb_
FN:90,_RNCNkNvNvNtNtCsdL4DZEAGarf_15everscale_types6models7messages4_1__28RECURSIVE_COUNT_ExtInMsgInfo00Bb_
FN:90,_RNCNkNvNvNtNtCsdL4DZEAGarf_15everscale_types6models7messages5_1__29RECURSIVE_COUNT_ExtOutMsgInfo00Bb_
FN:90,_RNCNkNvNvNtNtCsdL4DZEAGarf_15everscale_types6models7messages6_1__36RECURSIVE_COUNT_RelaxedExtOutMsgInfo00Bb_
FN:90,_RNCNkNvNvNtNtCsdL4DZEAGarf_15everscale_types6models7messages_1__30RECURSIVE_COUNT_RelaxedMsgInfo00Bb_
FN:97,_RNCNkNvNvXs8_NtNtNtCsdL4DZEAGarf_15everscale_types4cell9cell_impl2rcNtBb_4CellNtBf_10CellFamily10empty_cell10EMPTY_CELL0s_0Bh_
FNDA:3178,_RNCNkNvNvCscQlb7znvrtA_9vm_opcode1__35RECURSIVE_COUNT_ArbitraryStackValue0s_0B7_
FNDA:0,_RNCNkNvNvCscQlb7znvrtA_9vm_opcodes_1__21RECURSIVE_COUNT_Input0s_0B7_
FNDA:1,_RNvNvNvCscQlb7znvrtA_9vm_opcode1__35RECURSIVE_COUNT_ArbitraryStackValue6___init
FNDA:0,_RNvNvNvCscQlb7znvrtA_9vm_opcodes_1__21RECURSIVE_COUNT_Input6___init
FNDA:0,_RNCNkNvNvCscQlb7znvrtA_9vm_opcode1__35RECURSIVE_COUNT_ArbitraryStackValue00B7_
FNDA:0,_RNCNkNvNvCscQlb7znvrtA_9vm_opcodes_1__21RECURSIVE_COUNT_Input00B7_
FNDA:7355524,_RNCNkNvMs3_NtCsipbLpstqwUV_8tycho_vm5stateNtB9_7VmState11EMPTY_STACK00Bb_
FNDA:815459,_RNCNkNvNtCsipbLpstqwUV_8tycho_vm5state5QUIT000B7_
FNDA:815459,_RNCNkNvNtCsipbLpstqwUV_8tycho_vm5state5QUIT100B7_
FNDA:478812,_RNCNkNvNtCsipbLpstqwUV_8tycho_vm5state6QUIT1100B7_
FNDA:815459,_RNCNkNvNtCsipbLpstqwUV_8tycho_vm5state8EXC_QUIT00B7_
FNDA:455611,_RNCNkNvNvMNtCsipbLpstqwUV_8tycho_vm5stackNtB8_5Stack14make_minus_one9MINUS_ONE00Ba_
FNDA:0,_RNCNkNvNvMNtCsipbLpstqwUV_8tycho_vm5stackNtB8_5Stack16make_empty_tuple11EMPTY_TUPLE00Ba_
FNDA:1268640,_RNCNkNvNvMNtCsipbLpstqwUV_8tycho_vm5stackNtB8_5Stack8make_nan3NAN00Ba_
FNDA:7999,_RNCNkNvNvMNtCsipbLpstqwUV_8tycho_vm5stackNtB8_5Stack8make_one3ONE00Ba_
FNDA:2052320,_RNCNkNvNvMNtCsipbLpstqwUV_8tycho_vm5stackNtB8_5Stack9make_null4NULL00Ba_
FNDA:8118221,_RNCNkNvNvMNtCsipbLpstqwUV_8tycho_vm5stackNtB8_5Stack9make_zero3ONE00Ba_
FNDA:78594888,_RNCNkNvNvMsi_NtCsipbLpstqwUV_8tycho_vm6safercNtBb_11SafeDeleter6retire7DELETER00Bd_
FNDA:0,_RNCNkNvNvNtCsipbLpstqwUV_8tycho_vm5stack1__30RECURSIVE_COUNT_StackValueType0s_0B9_
FNDA:1,_RNvNvMs3_NtCsipbLpstqwUV_8tycho_vm5stateNtB7_7VmState11EMPTY_STACK6___init
FNDA:1,_RNvNvNtCsipbLpstqwUV_8tycho_vm5state5QUIT06___init
FNDA:1,_RNvNvNtCsipbLpstqwUV_8tycho_vm5state5QUIT16___init
FNDA:1,_RNvNvNtCsipbLpstqwUV_8tycho_vm5state6QUIT116___init
FNDA:1,_RNvNvNtCsipbLpstqwUV_8tycho_vm5state8EXC_QUIT6___init
FNDA:1,_RNvNvNvMNtCsipbLpstqwUV_8tycho_vm5stackNtB6_5Stack14make_minus_one9MINUS_ONE6___init
FNDA:0,_RNvNvNvMNtCsipbLpstqwUV_8tycho_vm5stackNtB6_5Stack16make_empty_tuple11EMPTY_TUPLE6___init
FNDA:1,_RNvNvNvMNtCsipbLpstqwUV_8tycho_vm5stackNtB6_5Stack8make_nan3NAN6___init
FNDA:1,_RNvNvNvMNtCsipbLpstqwUV_8tycho_vm5stackNtB6_5Stack8make_one3ONE6___init
FNDA:1,_RNvNvNvMNtCsipbLpstqwUV_8tycho_vm5stackNtB6_5Stack9make_null4NULL6___init
FNDA:1,_RNvNvNvMNtCsipbLpstqwUV_8tycho_vm5stackNtB6_5Stack9make_zero3ONE6___init
FNDA:0,_RNvNvNvNtCsipbLpstqwUV_8tycho_vm5stack1__30RECURSIVE_COUNT_StackValueType6___init
FNDA:0,_RNCNkNvMs3_NtCsipbLpstqwUV_8tycho_vm5stateNtB9_7VmState11EMPTY_STACK0s_0Bb_
FNDA:0,_RNCNkNvNtCsipbLpstqwUV_8tycho_vm5state5QUIT00s_0B7_
FNDA:0,_RNCNkNvNtCsipbLpstqwUV_8tycho_vm5state5QUIT10s_0B7_
FNDA:0,_RNCNkNvNtCsipbLpstqwUV_8tycho_vm5state6QUIT110s_0B7_
FNDA:0,_RNCNkNvNtCsipbLpstqwUV_8tycho_vm5state8EXC_QUIT0s_0B7_
FNDA:0,_RNCNkNvNvMNtCsipbLpstqwUV_8tycho_vm5stackNtB8_5Stack14make_minus_one9MINUS_ONE0s_0Ba_
FNDA:0,_RNCNkNvNvMNtCsipbLpstqwUV_8tycho_vm5stackNtB8_5Stack16make_empty_tuple11EMPTY_TUPLE0s_0Ba_
FNDA:0,_RNCNkNvNvMNtCsipbLpstqwUV_8tycho_vm5stackNtB8_5Stack8make_nan3NAN0s_0Ba_
FNDA:0,_RNCNkNvNvMNtCsipbLpstqwUV_8tycho_vm5stackNtB8_5Stack8make_one3ONE0s_0Ba_
FNDA:0,_RNCNkNvNvMNtCsipbLpstqwUV_8tycho_vm5stackNtB8_5Stack9make_null4NULL0s_0Ba_
FNDA:0,_RNCNkNvNvMNtCsipbLpstqwUV_8tycho_vm5stackNtB8_5Stack9make_zero3ONE0s_0Ba_
FNDA:0,_RNCNkNvNvMsi_NtCsipbLpstqwUV_8tycho_vm6safercNtBb_11SafeDeleter6retire7DELETER0s_0Bd_
FNDA:0,_RNCNkNvNvNtCsipbLpstqwUV_8tycho_vm5stack1__30RECURSIVE_COUNT_StackValueType00B9_
FNDA:0,_RNCNkNvNvNtNtCsdL4DZEAGarf_15everscale_types6models7account1__27RECURSIVE_COUNT_StorageUsed0s_0Bb_
FNDA:0,_RNCNkNvNvNtNtCsdL4DZEAGarf_15everscale_types6models7accounts0_1__27RECURSIVE_COUNT_StorageInfo0s_0Bb_
FNDA:0,_RNCNkNvNvNtNtCsdL4DZEAGarf_15everscale_types6models7accounts1_1__29RECURSIVE_COUNT_AccountStatus0s_0Bb_
FNDA:0,_RNCNkNvNvNtNtCsdL4DZEAGarf_15everscale_types6models7accounts2_1__23RECURSIVE_COUNT_Account0s_0Bb_
FNDA:0,_RNCNkNvNvNtNtCsdL4DZEAGarf_15everscale_types6models7accounts3_1__28RECURSIVE_COUNT_AccountState0s_0Bb_
FNDA:0,_RNCNkNvNvNtNtCsdL4DZEAGarf_15everscale_types6models7accounts4_1__28RECURSIVE_COUNT_SpecialFlags0s_0Bb_
FNDA:0,_RNCNkNvNvNtNtCsdL4DZEAGarf_15everscale_types6models7accounts5_1__25RECURSIVE_COUNT_SimpleLib0s_0Bb_
FNDA:0,_RNCNkNvNvNtNtCsdL4DZEAGarf_15everscale_types6models7accounts_1__32RECURSIVE_COUNT_StorageUsedShort0s_0Bb_
FNDA:0,_RNCNkNvNvNtNtCsdL4DZEAGarf_15everscale_types6models7message1__29RECURSIVE_COUNT_MessageLayout0s_0Bb_
FNDA:0,_RNCNkNvNvNtNtCsdL4DZEAGarf_15everscale_types6models7messages0_1__23RECURSIVE_COUNT_MsgType0s_0Bb_
FNDA:0,_RNCNkNvNvNtNtCsdL4DZEAGarf_15everscale_types6models7messages1_1__23RECURSIVE_COUNT_MsgInfo0s_0Bb_
FNDA:0,_RNCNkNvNvNtNtCsdL4DZEAGarf_15everscale_types6models7messages2_1__26RECURSIVE_COUNT_IntMsgInfo0s_0Bb_
FNDA:0,_RNCNkNvNvNtNtCsdL4DZEAGarf_15everscale_types6models7messages3_1__33RECURSIVE_COUNT_RelaxedIntMsgInfo0s_0Bb_
FNDA:0,_RNCNkNvNvNtNtCsdL4DZEAGarf_15everscale_types6models7messages4_1__28RECURSIVE_COUNT_ExtInMsgInfo0s_0Bb_
FNDA:0,_RNCNkNvNvNtNtCsdL4DZEAGarf_15everscale_types6models7messages5_1__29RECURSIVE_COUNT_ExtOutMsgInfo0s_0Bb_
FNDA:0,_RNCNkNvNvNtNtCsdL4DZEAGarf_15everscale_types6models7messages6_1__36RECURSIVE_COUNT_RelaxedExtOutMsgInfo0s_0Bb_
FNDA:0,_RNCNkNvNvNtNtCsdL4DZEAGarf_15everscale_types6models7messages_1__30RECURSIVE_COUNT_RelaxedMsgInfo0s_0Bb_
FNDA:11399833,_RNCNkNvNvXs8_NtNtNtCsdL4DZEAGarf_15everscale_types4cell9cell_impl2rcNtBb_4CellNtBf_10CellFamily10empty_cell10EMPTY_CELL00Bh_
FNDA:0,_RNvNvNvNtNtCsdL4DZEAGarf_15everscale_types6models7account1__27RECURSIVE_COUNT_StorageUsed6___init
FNDA:0,_RNvNvNvNtNtCsdL4DZEAGarf_15everscale_types6models7accounts0_1__27RECURSIVE_COUNT_StorageInfo6___init
FNDA:0,_RNvNvNvNtNtCsdL4DZEAGarf_15everscale_types6models7accounts1_1__29RECURSIVE_COUNT_AccountStatus6___init
FNDA:0,_RNvNvNvNtNtCsdL4DZEAGarf_15everscale_types6models7accounts2_1__23RECURSIVE_COUNT_Account6___init
FNDA:0,_RNvNvNvNtNtCsdL4DZEAGarf_15everscale_types6models7accounts3_1__28RECURSIVE_COUNT_AccountState6___init
FNDA:0,_RNvNvNvNtNtCsdL4DZEAGarf_15everscale_types6models7accounts4_1__28RECURSIVE_COUNT_SpecialFlags6___init
FNDA:0,_RNvNvNvNtNtCsdL4DZEAGarf_15everscale_types6models7accounts5_1__25RECURSIVE_COUNT_SimpleLib6___init
FNDA:0,_RNvNvNvNtNtCsdL4DZEAGarf_15everscale_types6models7accounts_1__32RECURSIVE_COUNT_StorageUsedShort6___init
FNDA:0,_RNvNvNvNtNtCsdL4DZEAGarf_15everscale_types6models7message1__29RECURSIVE_COUNT_MessageLayout6___init
FNDA:0,_RNvNvNvNtNtCsdL4DZEAGarf_15everscale_types6models7messages0_1__23RECURSIVE_COUNT_MsgType6___init
FNDA:0,_RNvNvNvNtNtCsdL4DZEAGarf_15everscale_types6models7messages1_1__23RECURSIVE_COUNT_MsgInfo6___init
FNDA:0,_RNvNvNvNtNtCsdL4DZEAGarf_15everscale_types6models7messages2_1__26RECURSIVE_COUNT_IntMsgInfo6___init
FNDA:0,_RNvNvNvNtNtCsdL4DZEAGarf_15everscale_types6models7messages3_1__33RECURSIVE_COUNT_RelaxedIntMsgInfo6___init
FNDA:0,_RNvNvNvNtNtCsdL4DZEAGarf_15everscale_types6models7messages4_1__28RECURSIVE_COUNT_ExtInMsgInfo6___init
FNDA:0,_RNvNvNvNtNtCsdL4DZEAGarf_15everscale_types6models7messages5_1__29RECURSIVE_COUNT_ExtOutMsgInfo6___init
FNDA:0,_RNvNvNvNtNtCsdL4DZEAGarf_15everscale_types6models7messages6_1__36RECURSIVE_COUNT_RelaxedExtOutMsgInfo6___init
FNDA:0,_RNvNvNvNtNtCsdL4DZEAGarf_15everscale_types6models7messages_1__30RECURSIVE_COUNT_RelaxedMsgInfo6___init
FNDA:1,_RNvNvNvXs8_NtNtNtCsdL4DZEAGarf_15everscale_types4cell9cell_impl2rcNtB9_4CellNtBd_10CellFamily10empty_cell10EMPTY_CELL6___init
FNDA:0,_RNCNkNvNvNtNtCsdL4DZEAGarf_15everscale_types6models7account1__27RECURSIVE_COUNT_StorageUsed00Bb_
FNDA:0,_RNCNkNvNvNtNtCsdL4DZEAGarf_15everscale_types6models7accounts0_1__27RECURSIVE_COUNT_StorageInfo00Bb_
FNDA:0,_RNCNkNvNvNtNtCsdL4DZEAGarf_15everscale_types6models7accounts1_1__29RECURSIVE_COUNT_AccountStatus00Bb_
FNDA:0,_RNCNkNvNvNtNtCsdL4DZEAGarf_15everscale_types6models7accounts2_1__23RECURSIVE_COUNT_Account00Bb_
FNDA:0,_RNCNkNvNvNtNtCsdL4DZEAGarf_15everscale_types6models7accounts3_1__28RECURSIVE_COUNT_AccountState00Bb_
FNDA:0,_RNCNkNvNvNtNtCsdL4DZEAGarf_15everscale_types6models7accounts4_1__28RECURSIVE_COUNT_SpecialFlags00Bb_
FNDA:0,_RNCNkNvNvNtNtCsdL4DZEAGarf_15everscale_types6models7accounts5_1__25RECURSIVE_COUNT_SimpleLib00Bb_
FNDA:0,_RNCNkNvNvNtNtCsdL4DZEAGarf_15everscale_types6models7accounts_1__32RECURSIVE_COUNT_StorageUsedShort00Bb_
FNDA:0,_RNCNkNvNvNtNtCsdL4DZEAGarf_15everscale_types6models7message1__29RECURSIVE_COUNT_MessageLayout00Bb_
FNDA:0,_RNCNkNvNvNtNtCsdL4DZEAGarf_15everscale_types6models7messages0_1__23RECURSIVE_COUNT_MsgType00Bb_
FNDA:0,_RNCNkNvNvNtNtCsdL4DZEAGarf_15everscale_types6models7messages1_1__23RECURSIVE_COUNT_MsgInfo00Bb_
FNDA:0,_RNCNkNvNvNtNtCsdL4DZEAGarf_15everscale_types6models7messages2_1__26RECURSIVE_COUNT_IntMsgInfo00Bb_
FNDA:0,_RNCNkNvNvNtNtCsdL4DZEAGarf_15everscale_types6models7messages3_1__33RECURSIVE_COUNT_RelaxedIntMsgInfo00Bb_
FNDA:0,_RNCNkNvNvNtNtCsdL4DZEAGarf_15everscale_types6models7messages4_1__28RECURSIVE_COUNT_ExtInMsgInfo00Bb_
FNDA:0,_RNCNkNvNvNtNtCsdL4DZEAGarf_15everscale_types6models7messages5_1__29RECURSIVE_COUNT_ExtOutMsgInfo00Bb_
FNDA:0,_RNCNkNvNvNtNtCsdL4DZEAGarf_15everscale_types6models7messages6_1__36RECURSIVE_COUNT_RelaxedExtOutMsgInfo00Bb_
FNDA:0,_RNCNkNvNvNtNtCsdL4DZEAGarf_15everscale_types6models7messages_1__30RECURSIVE_COUNT_RelaxedMsgInfo00Bb_
FNDA:0,_RNCNkNvNvXs8_NtNtNtCsdL4DZEAGarf_15everscale_types4cell9cell_impl2rcNtBb_4CellNtBf_10CellFamily10empty_cell10EMPTY_CELL0s_0Bh_
FNF:5
FNH:4
DA:63,78594888
DA:67,78594888
DA:68,78594888
DA:70,0
DA:73,0
DA:74,0
DA:83,12
DA:84,12
DA:85,12
DA:90,33583337
DA:94,33583337
DA:95,33583337
DA:97,3178
DA:101,3178
DA:102,3178
BRF:0
BRH:0
LF:15
LH:12
end_of_record
SF:/home/odm3n/dev/work/everscale-vm/fuzz/fuzz_targets/vm_opcode_fuzz.rs
FN:10,_RNCNvXNvCscQlb7znvrtA_9vm_opcode1__NtB6_19ArbitraryStackValueNtCs2k73FkEQrbY_9arbitrary9Arbitrary9arbitrarys0_0B6_
FN:10,_RNCNvXNvCscQlb7znvrtA_9vm_opcode1__NtB6_19ArbitraryStackValueNtCs2k73FkEQrbY_9arbitrary9Arbitrary9arbitrarys_0B6_
FN:38,_RNCNvXNvCscQlb7znvrtA_9vm_opcodes_1__NtB6_5InputNtCs2k73FkEQrbY_9arbitrary9Arbitrary19arbitrary_take_rests0_0B6_
FN:38,_RNCNvXNvCscQlb7znvrtA_9vm_opcodes_1__NtB6_5InputNtCs2k73FkEQrbY_9arbitrary9Arbitrary19arbitrary_take_rests_0B6_
FN:20,_RNvCscQlb7znvrtA_9vm_opcode15arbitrary_to_rc
FN:10,_RNCNvXNvCscQlb7znvrtA_9vm_opcode1__NtB6_19ArbitraryStackValueNtCs2k73FkEQrbY_9arbitrary9Arbitrary13try_size_hint0B6_
FN:10,_RNCNvXNvCscQlb7znvrtA_9vm_opcode1__NtB6_19ArbitraryStackValueNtCs2k73FkEQrbY_9arbitrary9Arbitrary19arbitrary_take_rests0_0B6_
FN:10,_RNCNvXNvCscQlb7znvrtA_9vm_opcode1__NtB6_19ArbitraryStackValueNtCs2k73FkEQrbY_9arbitrary9Arbitrary19arbitrary_take_rests_0B6_
FN:38,_RNCNvXNvCscQlb7znvrtA_9vm_opcodes_1__NtB6_5InputNtCs2k73FkEQrbY_9arbitrary9Arbitrary9arbitrarys0_0B6_
FN:38,_RNCNvXNvCscQlb7znvrtA_9vm_opcodes_1__NtB6_5InputNtCs2k73FkEQrbY_9arbitrary9Arbitrary9arbitrarys_0B6_
FNDA:1589,_RNCNvXNvCscQlb7znvrtA_9vm_opcode1__NtB6_19ArbitraryStackValueNtCs2k73FkEQrbY_9arbitrary9Arbitrary9arbitrarys0_0B6_
FNDA:0,_RNCNvXNvCscQlb7znvrtA_9vm_opcode1__NtB6_19ArbitraryStackValueNtCs2k73FkEQrbY_9arbitrary9Arbitrary9arbitrarys_0B6_
FNDA:0,_RNCNvXNvCscQlb7znvrtA_9vm_opcodes_1__NtB6_5InputNtCs2k73FkEQrbY_9arbitrary9Arbitrary19arbitrary_take_rests0_0B6_
FNDA:0,_RNCNvXNvCscQlb7znvrtA_9vm_opcodes_1__NtB6_5InputNtCs2k73FkEQrbY_9arbitrary9Arbitrary19arbitrary_take_rests_0B6_
FNDA:198222,_RNvCscQlb7znvrtA_9vm_opcode15arbitrary_to_rc
FNDA:0,_RNCNvXNvCscQlb7znvrtA_9vm_opcode1__NtB6_19ArbitraryStackValueNtCs2k73FkEQrbY_9arbitrary9Arbitrary13try_size_hint0B6_
FNDA:0,_RNCNvXNvCscQlb7znvrtA_9vm_opcode1__NtB6_19ArbitraryStackValueNtCs2k73FkEQrbY_9arbitrary9Arbitrary19arbitrary_take_rests0_0B6_
FNDA:0,_RNCNvXNvCscQlb7znvrtA_9vm_opcode1__NtB6_19ArbitraryStackValueNtCs2k73FkEQrbY_9arbitrary9Arbitrary19arbitrary_take_rests_0B6_
FNDA:0,_RNCNvXNvCscQlb7znvrtA_9vm_opcodes_1__NtB6_5InputNtCs2k73FkEQrbY_9arbitrary9Arbitrary9arbitrarys0_0B6_
FNDA:0,_RNCNvXNvCscQlb7znvrtA_9vm_opcodes_1__NtB6_5InputNtCs2k73FkEQrbY_9arbitrary9Arbitrary9arbitrarys_0B6_
FNF:5
FNH:2
DA:10,1589
DA:20,198222
DA:21,21603
DA:22,78199
DA:23,21603
DA:24,48291
DA:25,4087
DA:26,17716
DA:27,28326
DA:28,28326
DA:29,28326
DA:30,28326
DA:31,28326
DA:32,26471
DA:34,5592
DA:36,198222
DA:38,0
BRF:0
BRH:0
LF:19
LH:16
end_of_record
SF:/home/odm3n/dev/work/everscale-vm/vm/src/cont.rs
FN:490,_RNvXsc_NtCsipbLpstqwUV_8tycho_vm4contNtB5_8QuitContNtNtB7_6saferc10SafeDelete19rc_into_safe_delete
FN:243,_RINvMs1_NtCsipbLpstqwUV_8tycho_vm4contNtB6_11ControlRegs17merge_stack_valueDNtB6_4ContEL_EB8_
FN:243,_RINvMs1_NtCsipbLpstqwUV_8tycho_vm4contNtB6_11ControlRegs17merge_stack_valueINtNtCs8f1B5igIjLM_5alloc3vec3VecINtNtB8_6saferc6SafeRcDNtNtB8_5stack10StackValueEL_EEEB8_
FN:544,_RNCNvXsg_NtCsipbLpstqwUV_8tycho_vm4contNtB7_11ExcQuitContNtB7_4Cont4jump0B9_
FN:28,_RNvMNtCsipbLpstqwUV_8tycho_vm4contNtB2_11ControlData13require_nargs
FN:90,_RNvMs1_NtCsipbLpstqwUV_8tycho_vm4contNtB5_11ControlRegs12is_valid_idx
FN:222,_RNvMs1_NtCsipbLpstqwUV_8tycho_vm4contNtB5_11ControlRegs13get_c7_params
FN:230,_RNvMs1_NtCsipbLpstqwUV_8tycho_vm4contNtB5_11ControlRegs16merge_cell_value
FN:167,_RNvMs1_NtCsipbLpstqwUV_8tycho_vm4contNtB5_11ControlRegs18get_as_stack_value
FN:121,_RNvMs1_NtCsipbLpstqwUV_8tycho_vm4contNtB5_11ControlRegs3set
FN:154,_RNvMs1_NtCsipbLpstqwUV_8tycho_vm4contNtB5_11ControlRegs5get_d
FN:94,_RNvMs1_NtCsipbLpstqwUV_8tycho_vm4contNtB5_11ControlRegs5merge
FN:135,_RNvMs1_NtCsipbLpstqwUV_8tycho_vm4contNtB5_11ControlRegs5set_c
FN:144,_RNvMs1_NtCsipbLpstqwUV_8tycho_vm4contNtB5_11ControlRegs5set_d
FN:199,_RNvMs1_NtCsipbLpstqwUV_8tycho_vm4contNtB5_11ControlRegs6define
FN:163,_RNvMs1_NtCsipbLpstqwUV_8tycho_vm4contNtB5_11ControlRegs6set_c7
FN:104,_RNvMs1_NtCsipbLpstqwUV_8tycho_vm4contNtB5_11ControlRegs8preclear
FN:181,_RNvMs1_NtCsipbLpstqwUV_8tycho_vm4contNtB5_11ControlRegs9define_c0
FN:187,_RNvMs1_NtCsipbLpstqwUV_8tycho_vm4contNtB5_11ControlRegs9define_c1
FN:193,_RNvMs1_NtCsipbLpstqwUV_8tycho_vm4contNtB5_11ControlRegs9define_c2
FN:375,_RNvMs5_NtCsipbLpstqwUV_8tycho_vm4contDNtB5_4ContEL_6has_c0
FN:393,_RNvMs7_NtCsipbLpstqwUV_8tycho_vm4contINtNtB7_6saferc6SafeRcNtB5_11ExcQuitContE13into_dyn_contB7_
FN:393,_RNvMs7_NtCsipbLpstqwUV_8tycho_vm4contINtNtB7_6saferc6SafeRcNtB5_8QuitContE13into_dyn_contB7_
FN:1098,_RNvMsO_NtCsipbLpstqwUV_8tycho_vm4contNtB5_7OrdCont6simple
FN:413,_RNvNtCsipbLpstqwUV_8tycho_vm4cont9load_cont
FN:269,_RNvXNvXs2_NtCsipbLpstqwUV_8tycho_vm4contNtB8_11ControlRegsNtNtNtCsdL4DZEAGarf_15everscale_types4cell7builder5Store10store_intoNtB2_11AsDictValueBU_10store_into
FN:59,_RNvXs0_NtCsipbLpstqwUV_8tycho_vm4contNtB5_11ControlDataNtNtNtCsdL4DZEAGarf_15everscale_types4cell5slice4Load9load_from
FN:259,_RNvXs2_NtCsipbLpstqwUV_8tycho_vm4contNtB5_11ControlRegsNtNtNtCsdL4DZEAGarf_15everscale_types4cell7builder5Store10store_into
FN:301,_RNvXs3_NtCsipbLpstqwUV_8tycho_vm4contNtB5_11ControlRegsNtNtNtCsdL4DZEAGarf_15everscale_types4cell5slice4Load9load_from
FN:339,_RNvXs4_NtCsipbLpstqwUV_8tycho_vm4contNtB5_10ArgContExtNtNtB7_5stack10StackValue11rc_into_dynB7_
FN:366,_RNvXs4_NtCsipbLpstqwUV_8tycho_vm4contNtB5_10ArgContExtNtNtB7_5stack10StackValue12rc_into_contB7_
FN:347,_RNvXs4_NtCsipbLpstqwUV_8tycho_vm4contNtB5_10ArgContExtNtNtB7_5stack10StackValue20store_as_stack_valueB7_
FN:343,_RNvXs4_NtCsipbLpstqwUV_8tycho_vm4contNtB5_10ArgContExtNtNtB7_5stack10StackValue2tyB7_
FN:362,_RNvXs4_NtCsipbLpstqwUV_8tycho_vm4contNtB5_10ArgContExtNtNtB7_5stack10StackValue7as_contB7_
FN:356,_RNvXs4_NtCsipbLpstqwUV_8tycho_vm4contNtB5_10ArgContExtNtNtB7_5stack10StackValue8fmt_dumpB7_
FN:339,_RNvXs4_NtCsipbLpstqwUV_8tycho_vm4contNtB5_10RepeatContNtNtB7_5stack10StackValue11rc_into_dynB7_
FN:366,_RNvXs4_NtCsipbLpstqwUV_8tycho_vm4contNtB5_10RepeatContNtNtB7_5stack10StackValue12rc_into_contB7_
FN:347,_RNvXs4_NtCsipbLpstqwUV_8tycho_vm4contNtB5_10RepeatContNtNtB7_5stack10StackValue20store_as_stack_valueB7_
FN:343,_RNvXs4_NtCsipbLpstqwUV_8tycho_vm4contNtB5_10RepeatContNtNtB7_5stack10StackValue2tyB7_
FN:362,_RNvXs4_NtCsipbLpstqwUV_8tycho_vm4contNtB5_10RepeatContNtNtB7_5stack10StackValue7as_contB7_
FN:356,_RNvXs4_NtCsipbLpstqwUV_8tycho_vm4contNtB5_10RepeatContNtNtB7_5stack10StackValue8fmt_dumpB7_
FN:339,_RNvXs4_NtCsipbLpstqwUV_8tycho_vm4contNtB5_11ExcQuitContNtNtB7_5stack10StackValue11rc_into_dynB7_
FN:366,_RNvXs4_NtCsipbLpstqwUV_8tycho_vm4contNtB5_11ExcQuitContNtNtB7_5stack10StackValue12rc_into_contB7_
FN:347,_RNvXs4_NtCsipbLpstqwUV_8tycho_vm4contNtB5_11ExcQuitContNtNtB7_5stack10StackValue20store_as_stack_valueB7_
FN:343,_RNvXs4_NtCsipbLpstqwUV_8tycho_vm4contNtB5_11ExcQuitContNtNtB7_5stack10StackValue2tyB7_
FN:362,_RNvXs4_NtCsipbLpstqwUV_8tycho_vm4contNtB5_11ExcQuitContNtNtB7_5stack10StackValue7as_contB7_
FN:356,_RNvXs4_NtCsipbLpstqwUV_8tycho_vm4contNtB5_11ExcQuitContNtNtB7_5stack10StackValue8fmt_dumpB7_
FN:339,_RNvXs4_NtCsipbLpstqwUV_8tycho_vm4contNtB5_11PushIntContNtNtB7_5stack10StackValue11rc_into_dynB7_
FN:366,_RNvXs4_NtCsipbLpstqwUV_8tycho_vm4contNtB5_11PushIntContNtNtB7_5stack10StackValue12rc_into_contB7_
FN:347,_RNvXs4_NtCsipbLpstqwUV_8tycho_vm4contNtB5_11PushIntContNtNtB7_5stack10StackValue20store_as_stack_valueB7_
FN:343,_RNvXs4_NtCsipbLpstqwUV_8tycho_vm4contNtB5_11PushIntContNtNtB7_5stack10StackValue2tyB7_
FN:362,_RNvXs4_NtCsipbLpstqwUV_8tycho_vm4contNtB5_11PushIntContNtNtB7_5stack10StackValue7as_contB7_
FN:356,_RNvXs4_NtCsipbLpstqwUV_8tycho_vm4contNtB5_11PushIntContNtNtB7_5stack10StackValue8fmt_dumpB7_
FN:339,_RNvXs4_NtCsipbLpstqwUV_8tycho_vm4contNtB5_7OrdContNtNtB7_5stack10StackValue11rc_into_dynB7_
FN:366,_RNvXs4_NtCsipbLpstqwUV_8tycho_vm4contNtB5_7OrdContNtNtB7_5stack10StackValue12rc_into_contB7_
FN:347,_RNvXs4_NtCsipbLpstqwUV_8tycho_vm4contNtB5_7OrdContNtNtB7_5stack10StackValue20store_as_stack_valueB7_
FN:343,_RNvXs4_NtCsipbLpstqwUV_8tycho_vm4contNtB5_7OrdContNtNtB7_5stack10StackValue2tyB7_
FN:362,_RNvXs4_NtCsipbLpstqwUV_8tycho_vm4contNtB5_7OrdContNtNtB7_5stack10StackValue7as_contB7_
FN:356,_RNvXs4_NtCsipbLpstqwUV_8tycho_vm4contNtB5_7OrdContNtNtB7_5stack10StackValue8fmt_dumpB7_
FN:339,_RNvXs4_NtCsipbLpstqwUV_8tycho_vm4contNtB5_8QuitContNtNtB7_5stack10StackValue11rc_into_dynB7_
FN:366,_RNvXs4_NtCsipbLpstqwUV_8tycho_vm4contNtB5_8QuitContNtNtB7_5stack10StackValue12rc_into_contB7_
FN:347,_RNvXs4_NtCsipbLpstqwUV_8tycho_vm4contNtB5_8QuitContNtNtB7_5stack10StackValue20store_as_stack_valueB7_
FN:343,_RNvXs4_NtCsipbLpstqwUV_8tycho_vm4contNtB5_8QuitContNtNtB7_5stack10StackValue2tyB7_
FN:362,_RNvXs4_NtCsipbLpstqwUV_8tycho_vm4contNtB5_8QuitContNtNtB7_5stack10StackValue7as_contB7_
FN:356,_RNvXs4_NtCsipbLpstqwUV_8tycho_vm4contNtB5_8QuitContNtNtB7_5stack10StackValue8fmt_dumpB7_
FN:339,_RNvXs4_NtCsipbLpstqwUV_8tycho_vm4contNtB5_9AgainContNtNtB7_5stack10StackValue11rc_into_dynB7_
FN:366,_RNvXs4_NtCsipbLpstqwUV_8tycho_vm4contNtB5_9AgainContNtNtB7_5stack10StackValue12rc_into_contB7_
FN:347,_RNvXs4_NtCsipbLpstqwUV_8tycho_vm4contNtB5_9AgainContNtNtB7_5stack10StackValue20store_as_stack_valueB7_
FN:343,_RNvXs4_NtCsipbLpstqwUV_8tycho_vm4contNtB5_9AgainContNtNtB7_5stack10StackValue2tyB7_
FN:362,_RNvXs4_NtCsipbLpstqwUV_8tycho_vm4contNtB5_9AgainContNtNtB7_5stack10StackValue7as_contB7_
FN:356,_RNvXs4_NtCsipbLpstqwUV_8tycho_vm4contNtB5_9AgainContNtNtB7_5stack10StackValue8fmt_dumpB7_
FN:339,_RNvXs4_NtCsipbLpstqwUV_8tycho_vm4contNtB5_9UntilContNtNtB7_5stack10StackValue11rc_into_dynB7_
FN:366,_RNvXs4_NtCsipbLpstqwUV_8tycho_vm4contNtB5_9UntilContNtNtB7_5stack10StackValue12rc_into_contB7_
FN:347,_RNvXs4_NtCsipbLpstqwUV_8tycho_vm4contNtB5_9UntilContNtNtB7_5stack10StackValue20store_as_stack_valueB7_
FN:343,_RNvXs4_NtCsipbLpstqwUV_8tycho_vm4contNtB5_9UntilContNtNtB7_5stack10StackValue2tyB7_
FN:362,_RNvXs4_NtCsipbLpstqwUV_8tycho_vm4contNtB5_9UntilContNtNtB7_5stack10StackValue7as_contB7_
FN:356,_RNvXs4_NtCsipbLpstqwUV_8tycho_vm4contNtB5_9UntilContNtNtB7_5stack10StackValue8fmt_dumpB7_
FN:339,_RNvXs4_NtCsipbLpstqwUV_8tycho_vm4contNtB5_9WhileContNtNtB7_5stack10StackValue11rc_into_dynB7_
FN:366,_RNvXs4_NtCsipbLpstqwUV_8tycho_vm4contNtB5_9WhileContNtNtB7_5stack10StackValue12rc_into_contB7_
FN:347,_RNvXs4_NtCsipbLpstqwUV_8tycho_vm4contNtB5_9WhileContNtNtB7_5stack10StackValue20store_as_stack_valueB7_
FN:343,_RNvXs4_NtCsipbLpstqwUV_8tycho_vm4contNtB5_9WhileContNtNtB7_5stack10StackValue2tyB7_
FN:362,_RNvXs4_NtCsipbLpstqwUV_8tycho_vm4contNtB5_9WhileContNtNtB7_5stack10StackValue7as_contB7_
FN:356,_RNvXs4_NtCsipbLpstqwUV_8tycho_vm4contNtB5_9WhileContNtNtB7_5stack10StackValue8fmt_dumpB7_
FN:386,_RNvXs6_NtCsipbLpstqwUV_8tycho_vm4contDNtB5_4ContEL_NtNtB7_6saferc13SafeRcMakeMut11rc_make_mut
FN:401,_RNvXs8_NtCsipbLpstqwUV_8tycho_vm4contINtNtB7_6saferc6SafeRcDNtB5_4ContEL_EINtNtCscHntIWw2aYb_4core7convert4FromNtB5_10ArgContExtE4fromB7_
FN:401,_RNvXs8_NtCsipbLpstqwUV_8tycho_vm4contINtNtB7_6saferc6SafeRcDNtB5_4ContEL_EINtNtCscHntIWw2aYb_4core7convert4FromNtB5_10RepeatContE4fromB7_
FN:401,_RNvXs8_NtCsipbLpstqwUV_8tycho_vm4contINtNtB7_6saferc6SafeRcDNtB5_4ContEL_EINtNtCscHntIWw2aYb_4core7convert4FromNtB5_11ExcQuitContE4fromB7_
FN:401,_RNvXs8_NtCsipbLpstqwUV_8tycho_vm4contINtNtB7_6saferc6SafeRcDNtB5_4ContEL_EINtNtCscHntIWw2aYb_4core7convert4FromNtB5_11PushIntContE4fromB7_
FN:401,_RNvXs8_NtCsipbLpstqwUV_8tycho_vm4contINtNtB7_6saferc6SafeRcDNtB5_4ContEL_EINtNtCscHntIWw2aYb_4core7convert4FromNtB5_7OrdContE4fromB7_
FN:401,_RNvXs8_NtCsipbLpstqwUV_8tycho_vm4contINtNtB7_6saferc6SafeRcDNtB5_4ContEL_EINtNtCscHntIWw2aYb_4core7convert4FromNtB5_8QuitContE4fromB7_
FN:401,_RNvXs8_NtCsipbLpstqwUV_8tycho_vm4contINtNtB7_6saferc6SafeRcDNtB5_4ContEL_EINtNtCscHntIWw2aYb_4core7convert4FromNtB5_9AgainContE4fromB7_
FN:401,_RNvXs8_NtCsipbLpstqwUV_8tycho_vm4contINtNtB7_6saferc6SafeRcDNtB5_4ContEL_EINtNtCscHntIWw2aYb_4core7convert4FromNtB5_9UntilContE4fromB7_
FN:401,_RNvXs8_NtCsipbLpstqwUV_8tycho_vm4contINtNtB7_6saferc6SafeRcDNtB5_4ContEL_EINtNtCscHntIWw2aYb_4core7convert4FromNtB5_9WhileContE4fromB7_
FN:408,_RNvXs9_NtCsipbLpstqwUV_8tycho_vm4contINtNtB7_6saferc6SafeRcDNtB5_4ContEL_EINtNtCscHntIWw2aYb_4core7convert4FromINtNtCs8f1B5igIjLM_5alloc2rc2RcNtB5_10RepeatContEE4fromB7_
FN:408,_RNvXs9_NtCsipbLpstqwUV_8tycho_vm4contINtNtB7_6saferc6SafeRcDNtB5_4ContEL_EINtNtCscHntIWw2aYb_4core7convert4FromINtNtCs8f1B5igIjLM_5alloc2rc2RcNtB5_9AgainContEE4fromB7_
FN:408,_RNvXs9_NtCsipbLpstqwUV_8tycho_vm4contINtNtB7_6saferc6SafeRcDNtB5_4ContEL_EINtNtCscHntIWw2aYb_4core7convert4FromINtNtCs8f1B5igIjLM_5alloc2rc2RcNtB5_9UntilContEE4fromB7_
FN:408,_RNvXs9_NtCsipbLpstqwUV_8tycho_vm4contINtNtB7_6saferc6SafeRcDNtB5_4ContEL_EINtNtCscHntIWw2aYb_4core7convert4FromINtNtCs8f1B5igIjLM_5alloc2rc2RcNtB5_9WhileContEE4fromB7_
FN:834,_RNvXsA_NtCsipbLpstqwUV_8tycho_vm4contNtB5_9UntilContNtB5_4Cont11rc_into_dyn
FN:838,_RNvXsA_NtCsipbLpstqwUV_8tycho_vm4contNtB5_9UntilContNtB5_4Cont14as_stack_value
FN:843,_RNvXsA_NtCsipbLpstqwUV_8tycho_vm4contNtB5_9UntilContNtB5_4Cont3fmt
FN:851,_RNvXsA_NtCsipbLpstqwUV_8tycho_vm4contNtB5_9UntilContNtB5_4Cont4jump
FN:867,_RNvXsB_NtCsipbLpstqwUV_8tycho_vm4contNtB5_9UntilContNtNtB7_6saferc10SafeDelete19rc_into_safe_delete
FN:873,_RNvXsC_NtCsipbLpstqwUV_8tycho_vm4contNtB5_9UntilContNtNtNtCsdL4DZEAGarf_15everscale_types4cell7builder5Store10store_into
FN:885,_RNvXsD_NtCsipbLpstqwUV_8tycho_vm4contNtB5_9UntilContNtNtNtCsdL4DZEAGarf_15everscale_types4cell5slice4Load9load_from
FN:912,_RNvXsF_NtCsipbLpstqwUV_8tycho_vm4contNtB5_9WhileContNtB5_4Cont11rc_into_dyn
FN:916,_RNvXsF_NtCsipbLpstqwUV_8tycho_vm4contNtB5_9WhileContNtB5_4Cont14as_stack_value
FN:921,_RNvXsF_NtCsipbLpstqwUV_8tycho_vm4contNtB5_9WhileContNtB5_4Cont3fmt
FN:938,_RNvXsF_NtCsipbLpstqwUV_8tycho_vm4contNtB5_9WhileContNtB5_4Cont4jump
FN:972,_RNvXsG_NtCsipbLpstqwUV_8tycho_vm4contNtB5_9WhileContNtNtB7_6saferc10SafeDelete19rc_into_safe_delete
FN:978,_RNvXsH_NtCsipbLpstqwUV_8tycho_vm4contNtB5_9WhileContNtNtNtCsdL4DZEAGarf_15everscale_types4cell7builder5Store10store_into
FN:992,_RNvXsI_NtCsipbLpstqwUV_8tycho_vm4contNtB5_9WhileContNtNtNtCsdL4DZEAGarf_15everscale_types4cell5slice4Load9load_from
FN:1019,_RNvXsK_NtCsipbLpstqwUV_8tycho_vm4contNtB5_10ArgContExtNtB5_4Cont11rc_into_dyn
FN:1023,_RNvXsK_NtCsipbLpstqwUV_8tycho_vm4contNtB5_10ArgContExtNtB5_4Cont14as_stack_value
FN:1048,_RNvXsK_NtCsipbLpstqwUV_8tycho_vm4contNtB5_10ArgContExtNtB5_4Cont16get_control_data
FN:1052,_RNvXsK_NtCsipbLpstqwUV_8tycho_vm4contNtB5_10ArgContExtNtB5_4Cont20get_control_data_mut
FN:1028,_RNvXsK_NtCsipbLpstqwUV_8tycho_vm4contNtB5_10ArgContExtNtB5_4Cont3fmt
FN:1036,_RNvXsK_NtCsipbLpstqwUV_8tycho_vm4contNtB5_10ArgContExtNtB5_4Cont4jump
FN:1059,_RNvXsL_NtCsipbLpstqwUV_8tycho_vm4contNtB5_10ArgContExtNtNtB7_6saferc10SafeDelete19rc_into_safe_delete
FN:1065,_RNvXsM_NtCsipbLpstqwUV_8tycho_vm4contNtB5_10ArgContExtNtNtNtCsdL4DZEAGarf_15everscale_types4cell7builder5Store10store_into
FN:1076,_RNvXsN_NtCsipbLpstqwUV_8tycho_vm4contNtB5_10ArgContExtNtNtNtCsdL4DZEAGarf_15everscale_types4cell5slice4Load9load_from
FN:1111,_RNvXsP_NtCsipbLpstqwUV_8tycho_vm4contNtB5_7OrdContNtB5_4Cont11rc_into_dyn
FN:1115,_RNvXsP_NtCsipbLpstqwUV_8tycho_vm4contNtB5_7OrdContNtB5_4Cont14as_stack_value
FN:1137,_RNvXsP_NtCsipbLpstqwUV_8tycho_vm4contNtB5_7OrdContNtB5_4Cont16get_control_data
FN:1141,_RNvXsP_NtCsipbLpstqwUV_8tycho_vm4contNtB5_7OrdContNtB5_4Cont20get_control_data_mut
FN:1120,_RNvXsP_NtCsipbLpstqwUV_8tycho_vm4contNtB5_7OrdContNtB5_4Cont3fmt
FN:1128,_RNvXsP_NtCsipbLpstqwUV_8tycho_vm4contNtB5_7OrdContNtB5_4Cont4jump
FN:1148,_RNvXsQ_NtCsipbLpstqwUV_8tycho_vm4contNtB5_7OrdContNtNtB7_6saferc10SafeDelete19rc_into_safe_delete
FN:1154,_RNvXsR_NtCsipbLpstqwUV_8tycho_vm4contNtB5_7OrdContNtNtNtCsdL4DZEAGarf_15everscale_types4cell7builder5Store10store_into
FN:1166,_RNvXsS_NtCsipbLpstqwUV_8tycho_vm4contNtB5_7OrdContNtNtNtCsdL4DZEAGarf_15everscale_types4cell5slice4Load9load_from
FN:37,_RNvXs_NtCsipbLpstqwUV_8tycho_vm4contNtB4_11ControlDataNtNtNtCsdL4DZEAGarf_15everscale_types4cell7builder5Store10store_into
FN:465,_RNvXsb_NtCsipbLpstqwUV_8tycho_vm4contNtB5_8QuitContNtB5_4Cont11rc_into_dyn
FN:469,_RNvXsb_NtCsipbLpstqwUV_8tycho_vm4contNtB5_8QuitContNtB5_4Cont14as_stack_value
FN:474,_RNvXsb_NtCsipbLpstqwUV_8tycho_vm4contNtB5_8QuitContNtB5_4Cont3fmt
FN:482,_RNvXsb_NtCsipbLpstqwUV_8tycho_vm4contNtB5_8QuitContNtB5_4Cont4jump
FN:496,_RNvXsd_NtCsipbLpstqwUV_8tycho_vm4contNtB5_8QuitContNtNtNtCsdL4DZEAGarf_15everscale_types4cell7builder5Store10store_into
FN:503,_RNvXse_NtCsipbLpstqwUV_8tycho_vm4contNtB5_8QuitContNtNtNtCsdL4DZEAGarf_15everscale_types4cell5slice4Load9load_from
FN:524,_RNvXsg_NtCsipbLpstqwUV_8tycho_vm4contNtB5_11ExcQuitContNtB5_4Cont11rc_into_dyn
FN:528,_RNvXsg_NtCsipbLpstqwUV_8tycho_vm4contNtB5_11ExcQuitContNtB5_4Cont14as_stack_value
FN:533,_RNvXsg_NtCsipbLpstqwUV_8tycho_vm4contNtB5_11ExcQuitContNtB5_4Cont3fmt
FN:541,_RNvXsg_NtCsipbLpstqwUV_8tycho_vm4contNtB5_11ExcQuitContNtB5_4Cont4jump
FN:553,_RNvXsh_NtCsipbLpstqwUV_8tycho_vm4contNtB5_11ExcQuitContNtNtB7_6saferc10SafeDelete19rc_into_safe_delete
FN:559,_RNvXsi_NtCsipbLpstqwUV_8tycho_vm4contNtB5_11ExcQuitContNtNtNtCsdL4DZEAGarf_15everscale_types4cell7builder5Store10store_into
FN:566,_RNvXsj_NtCsipbLpstqwUV_8tycho_vm4contNtB5_11ExcQuitContNtNtNtCsdL4DZEAGarf_15everscale_types4cell5slice4Load9load_from
FN:588,_RNvXsl_NtCsipbLpstqwUV_8tycho_vm4contNtB5_11PushIntContNtB5_4Cont11rc_into_dyn
FN:592,_RNvXsl_NtCsipbLpstqwUV_8tycho_vm4contNtB5_11PushIntContNtB5_4Cont14as_stack_value
FN:597,_RNvXsl_NtCsipbLpstqwUV_8tycho_vm4contNtB5_11PushIntContNtB5_4Cont3fmt
FN:610,_RNvXsl_NtCsipbLpstqwUV_8tycho_vm4contNtB5_11PushIntContNtB5_4Cont4jump
FN:621,_RNvXsm_NtCsipbLpstqwUV_8tycho_vm4contNtB5_11PushIntContNtNtB7_6saferc10SafeDelete19rc_into_safe_delete
FN:627,_RNvXsn_NtCsipbLpstqwUV_8tycho_vm4contNtB5_11PushIntContNtNtNtCsdL4DZEAGarf_15everscale_types4cell7builder5Store10store_into
FN:639,_RNvXso_NtCsipbLpstqwUV_8tycho_vm4contNtB5_11PushIntContNtNtNtCsdL4DZEAGarf_15everscale_types4cell5slice4Load9load_from
FN:667,_RNvXsq_NtCsipbLpstqwUV_8tycho_vm4contNtB5_10RepeatContNtB5_4Cont11rc_into_dyn
FN:671,_RNvXsq_NtCsipbLpstqwUV_8tycho_vm4contNtB5_10RepeatContNtB5_4Cont14as_stack_value
FN:676,_RNvXsq_NtCsipbLpstqwUV_8tycho_vm4contNtB5_10RepeatContNtB5_4Cont3fmt
FN:689,_RNvXsq_NtCsipbLpstqwUV_8tycho_vm4contNtB5_10RepeatContNtB5_4Cont4jump
FN:716,_RNvXsr_NtCsipbLpstqwUV_8tycho_vm4contNtB5_10RepeatContNtNtB7_6saferc10SafeDelete19rc_into_safe_delete
FN:722,_RNvXss_NtCsipbLpstqwUV_8tycho_vm4contNtB5_10RepeatContNtNtNtCsdL4DZEAGarf_15everscale_types4cell7builder5Store10store_into
FN:738,_RNvXst_NtCsipbLpstqwUV_8tycho_vm4contNtB5_10RepeatContNtNtNtCsdL4DZEAGarf_15everscale_types4cell5slice4Load9load_from
FN:766,_RNvXsv_NtCsipbLpstqwUV_8tycho_vm4contNtB5_9AgainContNtB5_4Cont11rc_into_dyn
FN:770,_RNvXsv_NtCsipbLpstqwUV_8tycho_vm4contNtB5_9AgainContNtB5_4Cont14as_stack_value
FN:775,_RNvXsv_NtCsipbLpstqwUV_8tycho_vm4contNtB5_9AgainContNtB5_4Cont3fmt
FN:783,_RNvXsv_NtCsipbLpstqwUV_8tycho_vm4contNtB5_9AgainContNtB5_4Cont4jump
FN:793,_RNvXsw_NtCsipbLpstqwUV_8tycho_vm4contNtB5_9AgainContNtNtB7_6saferc10SafeDelete19rc_into_safe_delete
FN:799,_RNvXsx_NtCsipbLpstqwUV_8tycho_vm4contNtB5_9AgainContNtNtNtCsdL4DZEAGarf_15everscale_types4cell7builder5Store10store_into
FN:810,_RNvXsy_NtCsipbLpstqwUV_8tycho_vm4contNtB5_9AgainContNtNtNtCsdL4DZEAGarf_15everscale_types4cell5slice4Load9load_from
FN:328,_RNvYNtNtCsipbLpstqwUV_8tycho_vm4cont10RepeatContNtB4_4Cont16get_control_dataB6_
FN:332,_RNvYNtNtCsipbLpstqwUV_8tycho_vm4cont10RepeatContNtB4_4Cont20get_control_data_mutB6_
FN:328,_RNvYNtNtCsipbLpstqwUV_8tycho_vm4cont11ExcQuitContNtB4_4Cont16get_control_dataB6_
FN:332,_RNvYNtNtCsipbLpstqwUV_8tycho_vm4cont11ExcQuitContNtB4_4Cont20get_control_data_mutB6_
FN:328,_RNvYNtNtCsipbLpstqwUV_8tycho_vm4cont11PushIntContNtB4_4Cont16get_control_dataB6_
FN:332,_RNvYNtNtCsipbLpstqwUV_8tycho_vm4cont11PushIntContNtB4_4Cont20get_control_data_mutB6_
FN:328,_RNvYNtNtCsipbLpstqwUV_8tycho_vm4cont8QuitContNtB4_4Cont16get_control_dataB6_
FN:332,_RNvYNtNtCsipbLpstqwUV_8tycho_vm4cont8QuitContNtB4_4Cont20get_control_data_mutB6_
FN:328,_RNvYNtNtCsipbLpstqwUV_8tycho_vm4cont9AgainContNtB4_4Cont16get_control_dataB6_
FN:332,_RNvYNtNtCsipbLpstqwUV_8tycho_vm4cont9AgainContNtB4_4Cont20get_control_data_mutB6_
FN:328,_RNvYNtNtCsipbLpstqwUV_8tycho_vm4cont9UntilContNtB4_4Cont16get_control_dataB6_
FN:332,_RNvYNtNtCsipbLpstqwUV_8tycho_vm4cont9UntilContNtB4_4Cont20get_control_data_mutB6_
FN:328,_RNvYNtNtCsipbLpstqwUV_8tycho_vm4cont9WhileContNtB4_4Cont16get_control_dataB6_
FN:332,_RNvYNtNtCsipbLpstqwUV_8tycho_vm4cont9WhileContNtB4_4Cont20get_control_data_mutB6_
FNDA:3,_RNvXsc_NtCsipbLpstqwUV_8tycho_vm4contNtB5_8QuitContNtNtB7_6saferc10SafeDelete19rc_into_safe_delete
FNDA:126521664,_RINvMs1_NtCsipbLpstqwUV_8tycho_vm4contNtB6_11ControlRegs17merge_stack_valueDNtB6_4ContEL_EB8_
FNDA:31630416,_RINvMs1_NtCsipbLpstqwUV_8tycho_vm4contNtB6_11ControlRegs17merge_stack_valueINtNtCs8f1B5igIjLM_5alloc3vec3VecINtNtB8_6saferc6SafeRcDNtNtB8_5stack10StackValueEL_EEEB8_
FNDA:4615,_RNCNvXsg_NtCsipbLpstqwUV_8tycho_vm4contNtB7_11ExcQuitContNtB7_4Cont4jump0B9_
FNDA:375558,_RNvMNtCsipbLpstqwUV_8tycho_vm4contNtB2_11ControlData13require_nargs
FNDA:4618954,_RNvMs1_NtCsipbLpstqwUV_8tycho_vm4contNtB5_11ControlRegs12is_valid_idx
FNDA:201710,_RNvMs1_NtCsipbLpstqwUV_8tycho_vm4contNtB5_11ControlRegs13get_c7_params
FNDA:63260832,_RNvMs1_NtCsipbLpstqwUV_8tycho_vm4contNtB5_11ControlRegs16merge_cell_value
FNDA:3702161,_RNvMs1_NtCsipbLpstqwUV_8tycho_vm4contNtB5_11ControlRegs18get_as_stack_value
FNDA:1209042,_RNvMs1_NtCsipbLpstqwUV_8tycho_vm4contNtB5_11ControlRegs3set
FNDA:50825,_RNvMs1_NtCsipbLpstqwUV_8tycho_vm4contNtB5_11ControlRegs5get_d
FNDA:31630416,_RNvMs1_NtCsipbLpstqwUV_8tycho_vm4contNtB5_11ControlRegs5merge
FNDA:0,_RNvMs1_NtCsipbLpstqwUV_8tycho_vm4contNtB5_11ControlRegs5set_c
FNDA:50406,_RNvMs1_NtCsipbLpstqwUV_8tycho_vm4contNtB5_11ControlRegs5set_d
FNDA:1475766,_RNvMs1_NtCsipbLpstqwUV_8tycho_vm4contNtB5_11ControlRegs6define
FNDA:0,_RNvMs1_NtCsipbLpstqwUV_8tycho_vm4contNtB5_11ControlRegs6set_c7
FNDA:23983023,_RNvMs1_NtCsipbLpstqwUV_8tycho_vm4contNtB5_11ControlRegs8preclear
FNDA:258156,_RNvMs1_NtCsipbLpstqwUV_8tycho_vm4contNtB5_11ControlRegs9define_c0
FNDA:338826,_RNvMs1_NtCsipbLpstqwUV_8tycho_vm4contNtB5_11ControlRegs9define_c1
FNDA:667587,_RNvMs1_NtCsipbLpstqwUV_8tycho_vm4contNtB5_11ControlRegs9define_c2
FNDA:24932296,_RNvMs5_NtCsipbLpstqwUV_8tycho_vm4contDNtB5_4ContEL_6has_c0
FNDA:815459,_RNvMs7_NtCsipbLpstqwUV_8tycho_vm4contINtNtB7_6saferc6SafeRcNtB5_11ExcQuitContE13into_dyn_contB7_
FNDA:23973183,_RNvMs7_NtCsipbLpstqwUV_8tycho_vm4contINtNtB7_6saferc6SafeRcNtB5_8QuitContE13into_dyn_contB7_
FNDA:7089938,_RNvMsO_NtCsipbLpstqwUV_8tycho_vm4contNtB5_7OrdCont6simple
FNDA:0,_RNvNtCsipbLpstqwUV_8tycho_vm4cont9load_cont
FNDA:0,_RNvXNvXs2_NtCsipbLpstqwUV_8tycho_vm4contNtB8_11ControlRegsNtNtNtCsdL4DZEAGarf_15everscale_types4cell7builder5Store10store_intoNtB2_11AsDictValueBU_10store_into
FNDA:0,_RNvXs0_NtCsipbLpstqwUV_8tycho_vm4contNtB5_11ControlDataNtNtNtCsdL4DZEAGarf_15everscale_types4cell5slice4Load9load_from
FNDA:0,_RNvXs2_NtCsipbLpstqwUV_8tycho_vm4contNtB5_11ControlRegsNtNtNtCsdL4DZEAGarf_15everscale_types4cell7builder5Store10store_into
FNDA:0,_RNvXs3_NtCsipbLpstqwUV_8tycho_vm4contNtB5_11ControlRegsNtNtNtCsdL4DZEAGarf_15everscale_types4cell5slice4Load9load_from
FNDA:398444,_RNvXs4_NtCsipbLpstqwUV_8tycho_vm4contNtB5_10ArgContExtNtNtB7_5stack10StackValue11rc_into_dynB7_
FNDA:411135,_RNvXs4_NtCsipbLpstqwUV_8tycho_vm4contNtB5_10ArgContExtNtNtB7_5stack10StackValue12rc_into_contB7_
FNDA:0,_RNvXs4_NtCsipbLpstqwUV_8tycho_vm4contNtB5_10ArgContExtNtNtB7_5stack10StackValue20store_as_stack_valueB7_
FNDA:24145,_RNvXs4_NtCsipbLpstqwUV_8tycho_vm4contNtB5_10ArgContExtNtNtB7_5stack10StackValue2tyB7_
FNDA:0,_RNvXs4_NtCsipbLpstqwUV_8tycho_vm4contNtB5_10ArgContExtNtNtB7_5stack10StackValue7as_contB7_
FNDA:0,_RNvXs4_NtCsipbLpstqwUV_8tycho_vm4contNtB5_10ArgContExtNtNtB7_5stack10StackValue8fmt_dumpB7_
FNDA:916086,_RNvXs4_NtCsipbLpstqwUV_8tycho_vm4contNtB5_10RepeatContNtNtB7_5stack10StackValue11rc_into_dynB7_
FNDA:976544,_RNvXs4_NtCsipbLpstqwUV_8tycho_vm4contNtB5_10RepeatContNtNtB7_5stack10StackValue12rc_into_contB7_
FNDA:0,_RNvXs4_NtCsipbLpstqwUV_8tycho_vm4contNtB5_10RepeatContNtNtB7_5stack10StackValue20store_as_stack_valueB7_
FNDA:108679,_RNvXs4_NtCsipbLpstqwUV_8tycho_vm4contNtB5_10RepeatContNtNtB7_5stack10StackValue2tyB7_
FNDA:0,_RNvXs4_NtCsipbLpstqwUV_8tycho_vm4contNtB5_10RepeatContNtNtB7_5stack10StackValue7as_contB7_
FNDA:0,_RNvXs4_NtCsipbLpstqwUV_8tycho_vm4contNtB5_10RepeatContNtNtB7_5stack10StackValue8fmt_dumpB7_
FNDA:38157,_RNvXs4_NtCsipbLpstqwUV_8tycho_vm4contNtB5_11ExcQuitContNtNtB7_5stack10StackValue11rc_into_dynB7_
FNDA:110961,_RNvXs4_NtCsipbLpstqwUV_8tycho_vm4contNtB5_11ExcQuitContNtNtB7_5stack10StackValue12rc_into_contB7_
FNDA:0,_RNvXs4_NtCsipbLpstqwUV_8tycho_vm4contNtB5_11ExcQuitContNtNtB7_5stack10StackValue20store_as_stack_valueB7_
FNDA:15182,_RNvXs4_NtCsipbLpstqwUV_8tycho_vm4contNtB5_11ExcQuitContNtNtB7_5stack10StackValue2tyB7_
FNDA:0,_RNvXs4_NtCsipbLpstqwUV_8tycho_vm4contNtB5_11ExcQuitContNtNtB7_5stack10StackValue7as_contB7_
FNDA:0,_RNvXs4_NtCsipbLpstqwUV_8tycho_vm4contNtB5_11ExcQuitContNtNtB7_5stack10StackValue8fmt_dumpB7_
FNDA:15683,_RNvXs4_NtCsipbLpstqwUV_8tycho_vm4contNtB5_11PushIntContNtNtB7_5stack10StackValue11rc_into_dynB7_
FNDA:38428,_RNvXs4_NtCsipbLpstqwUV_8tycho_vm4contNtB5_11PushIntContNtNtB7_5stack10StackValue12rc_into_contB7_
FNDA:0,_RNvXs4_NtCsipbLpstqwUV_8tycho_vm4contNtB5_11PushIntContNtNtB7_5stack10StackValue20store_as_stack_valueB7_
FNDA:8417,_RNvXs4_NtCsipbLpstqwUV_8tycho_vm4contNtB5_11PushIntContNtNtB7_5stack10StackValue2tyB7_
FNDA:0,_RNvXs4_NtCsipbLpstqwUV_8tycho_vm4contNtB5_11PushIntContNtNtB7_5stack10StackValue7as_contB7_
FNDA:0,_RNvXs4_NtCsipbLpstqwUV_8tycho_vm4contNtB5_11PushIntContNtNtB7_5stack10StackValue8fmt_dumpB7_
FNDA:4551716,_RNvXs4_NtCsipbLpstqwUV_8tycho_vm4contNtB5_7OrdContNtNtB7_5stack10StackValue11rc_into_dynB7_
FNDA:3546523,_RNvXs4_NtCsipbLpstqwUV_8tycho_vm4contNtB5_7OrdContNtNtB7_5stack10StackValue12rc_into_contB7_
FNDA:0,_RNvXs4_NtCsipbLpstqwUV_8tycho_vm4contNtB5_7OrdContNtNtB7_5stack10StackValue20store_as_stack_valueB7_
FNDA:274961,_RNvXs4_NtCsipbLpstqwUV_8tycho_vm4contNtB5_7OrdContNtNtB7_5stack10StackValue2tyB7_
FNDA:0,_RNvXs4_NtCsipbLpstqwUV_8tycho_vm4contNtB5_7OrdContNtNtB7_5stack10StackValue7as_contB7_
FNDA:0,_RNvXs4_NtCsipbLpstqwUV_8tycho_vm4contNtB5_7OrdContNtNtB7_5stack10StackValue8fmt_dumpB7_
FNDA:169236,_RNvXs4_NtCsipbLpstqwUV_8tycho_vm4contNtB5_8QuitContNtNtB7_5stack10StackValue11rc_into_dynB7_
FNDA:285117,_RNvXs4_NtCsipbLpstqwUV_8tycho_vm4contNtB5_8QuitContNtNtB7_5stack10StackValue12rc_into_contB7_
FNDA:0,_RNvXs4_NtCsipbLpstqwUV_8tycho_vm4contNtB5_8QuitContNtNtB7_5stack10StackValue20store_as_stack_valueB7_
FNDA:35638,_RNvXs4_NtCsipbLpstqwUV_8tycho_vm4contNtB5_8QuitContNtNtB7_5stack10StackValue2tyB7_
FNDA:0,_RNvXs4_NtCsipbLpstqwUV_8tycho_vm4contNtB5_8QuitContNtNtB7_5stack10StackValue7as_contB7_
FNDA:0,_RNvXs4_NtCsipbLpstqwUV_8tycho_vm4contNtB5_8QuitContNtNtB7_5stack10StackValue8fmt_dumpB7_
FNDA:871709,_RNvXs4_NtCsipbLpstqwUV_8tycho_vm4contNtB5_9AgainContNtNtB7_5stack10StackValue11rc_into_dynB7_
FNDA:688696,_RNvXs4_NtCsipbLpstqwUV_8tycho_vm4contNtB5_9AgainContNtNtB7_5stack10StackValue12rc_into_contB7_
FNDA:0,_RNvXs4_NtCsipbLpstqwUV_8tycho_vm4contNtB5_9AgainContNtNtB7_5stack10StackValue20store_as_stack_valueB7_
FNDA:92150,_RNvXs4_NtCsipbLpstqwUV_8tycho_vm4contNtB5_9AgainContNtNtB7_5stack10StackValue2tyB7_
FNDA:0,_RNvXs4_NtCsipbLpstqwUV_8tycho_vm4contNtB5_9AgainContNtNtB7_5stack10StackValue7as_contB7_
FNDA:0,_RNvXs4_NtCsipbLpstqwUV_8tycho_vm4contNtB5_9AgainContNtNtB7_5stack10StackValue8fmt_dumpB7_
FNDA:139748,_RNvXs4_NtCsipbLpstqwUV_8tycho_vm4contNtB5_9UntilContNtNtB7_5stack10StackValue11rc_into_dynB7_
FNDA:73248,_RNvXs4_NtCsipbLpstqwUV_8tycho_vm4contNtB5_9UntilContNtNtB7_5stack10StackValue12rc_into_contB7_
FNDA:0,_RNvXs4_NtCsipbLpstqwUV_8tycho_vm4contNtB5_9UntilContNtNtB7_5stack10StackValue20store_as_stack_valueB7_
FNDA:54122,_RNvXs4_NtCsipbLpstqwUV_8tycho_vm4contNtB5_9UntilContNtNtB7_5stack10StackValue2tyB7_
FNDA:0,_RNvXs4_NtCsipbLpstqwUV_8tycho_vm4contNtB5_9UntilContNtNtB7_5stack10StackValue7as_contB7_
FNDA:0,_RNvXs4_NtCsipbLpstqwUV_8tycho_vm4contNtB5_9UntilContNtNtB7_5stack10StackValue8fmt_dumpB7_
FNDA:133879,_RNvXs4_NtCsipbLpstqwUV_8tycho_vm4contNtB5_9WhileContNtNtB7_5stack10StackValue11rc_into_dynB7_
FNDA:60863,_RNvXs4_NtCsipbLpstqwUV_8tycho_vm4contNtB5_9WhileContNtNtB7_5stack10StackValue12rc_into_contB7_
FNDA:0,_RNvXs4_NtCsipbLpstqwUV_8tycho_vm4contNtB5_9WhileContNtNtB7_5stack10StackValue20store_as_stack_valueB7_
FNDA:43395,_RNvXs4_NtCsipbLpstqwUV_8tycho_vm4contNtB5_9WhileContNtNtB7_5stack10StackValue2tyB7_
FNDA:0,_RNvXs4_NtCsipbLpstqwUV_8tycho_vm4contNtB5_9WhileContNtNtB7_5stack10StackValue7as_contB7_
FNDA:0,_RNvXs4_NtCsipbLpstqwUV_8tycho_vm4contNtB5_9WhileContNtNtB7_5stack10StackValue8fmt_dumpB7_
FNDA:1871398,_RNvXs6_NtCsipbLpstqwUV_8tycho_vm4contDNtB5_4ContEL_NtNtB7_6saferc13SafeRcMakeMut11rc_make_mut
FNDA:1133738,_RNvXs8_NtCsipbLpstqwUV_8tycho_vm4contINtNtB7_6saferc6SafeRcDNtB5_4ContEL_EINtNtCscHntIWw2aYb_4core7convert4FromNtB5_10ArgContExtE4fromB7_
FNDA:3569272,_RNvXs8_NtCsipbLpstqwUV_8tycho_vm4contINtNtB7_6saferc6SafeRcDNtB5_4ContEL_EINtNtCscHntIWw2aYb_4core7convert4FromNtB5_10RepeatContE4fromB7_
FNDA:0,_RNvXs8_NtCsipbLpstqwUV_8tycho_vm4contINtNtB7_6saferc6SafeRcDNtB5_4ContEL_EINtNtCscHntIWw2aYb_4core7convert4FromNtB5_11ExcQuitContE4fromB7_
FNDA:314730,_RNvXs8_NtCsipbLpstqwUV_8tycho_vm4contINtNtB7_6saferc6SafeRcDNtB5_4ContEL_EINtNtCscHntIWw2aYb_4core7convert4FromNtB5_11PushIntContE4fromB7_
FNDA:6687808,_RNvXs8_NtCsipbLpstqwUV_8tycho_vm4contINtNtB7_6saferc6SafeRcDNtB5_4ContEL_EINtNtCscHntIWw2aYb_4core7convert4FromNtB5_7OrdContE4fromB7_
FNDA:0,_RNvXs8_NtCsipbLpstqwUV_8tycho_vm4contINtNtB7_6saferc6SafeRcDNtB5_4ContEL_EINtNtCscHntIWw2aYb_4core7convert4FromNtB5_8QuitContE4fromB7_
FNDA:239745,_RNvXs8_NtCsipbLpstqwUV_8tycho_vm4contINtNtB7_6saferc6SafeRcDNtB5_4ContEL_EINtNtCscHntIWw2aYb_4core7convert4FromNtB5_9AgainContE4fromB7_
FNDA:1062193,_RNvXs8_NtCsipbLpstqwUV_8tycho_vm4contINtNtB7_6saferc6SafeRcDNtB5_4ContEL_EINtNtCscHntIWw2aYb_4core7convert4FromNtB5_9UntilContE4fromB7_
FNDA:507932,_RNvXs8_NtCsipbLpstqwUV_8tycho_vm4contINtNtB7_6saferc6SafeRcDNtB5_4ContEL_EINtNtCscHntIWw2aYb_4core7convert4FromNtB5_9WhileContE4fromB7_
FNDA:7721357,_RNvXs9_NtCsipbLpstqwUV_8tycho_vm4contINtNtB7_6saferc6SafeRcDNtB5_4ContEL_EINtNtCscHntIWw2aYb_4core7convert4FromINtNtCs8f1B5igIjLM_5alloc2rc2RcNtB5_10RepeatContEE4fromB7_
FNDA:11451889,_RNvXs9_NtCsipbLpstqwUV_8tycho_vm4contINtNtB7_6saferc6SafeRcDNtB5_4ContEL_EINtNtCscHntIWw2aYb_4core7convert4FromINtNtCs8f1B5igIjLM_5alloc2rc2RcNtB5_9AgainContEE4fromB7_
FNDA:1621557,_RNvXs9_NtCsipbLpstqwUV_8tycho_vm4contINtNtB7_6saferc6SafeRcDNtB5_4ContEL_EINtNtCscHntIWw2aYb_4core7convert4FromINtNtCs8f1B5igIjLM_5alloc2rc2RcNtB5_9UntilContEE4fromB7_
FNDA:397565,_RNvXs9_NtCsipbLpstqwUV_8tycho_vm4contINtNtB7_6saferc6SafeRcDNtB5_4ContEL_EINtNtCscHntIWw2aYb_4core7convert4FromINtNtCs8f1B5igIjLM_5alloc2rc2RcNtB5_9WhileContEE4fromB7_
FNDA:156336,_RNvXsA_NtCsipbLpstqwUV_8tycho_vm4contNtB5_9UntilContNtB5_4Cont11rc_into_dyn
FNDA:0,_RNvXsA_NtCsipbLpstqwUV_8tycho_vm4contNtB5_9UntilContNtB5_4Cont14as_stack_value
FNDA:0,_RNvXsA_NtCsipbLpstqwUV_8tycho_vm4contNtB5_9UntilContNtB5_4Cont3fmt
FNDA:2377994,_RNvXsA_NtCsipbLpstqwUV_8tycho_vm4contNtB5_9UntilContNtB5_4Cont4jump
FNDA:539629,_RNvXsB_NtCsipbLpstqwUV_8tycho_vm4contNtB5_9UntilContNtNtB7_6saferc10SafeDelete19rc_into_safe_delete
FNDA:0,_RNvXsC_NtCsipbLpstqwUV_8tycho_vm4contNtB5_9UntilContNtNtNtCsdL4DZEAGarf_15everscale_types4cell7builder5Store10store_into
FNDA:0,_RNvXsD_NtCsipbLpstqwUV_8tycho_vm4contNtB5_9UntilContNtNtNtCsdL4DZEAGarf_15everscale_types4cell5slice4Load9load_from
FNDA:140698,_RNvXsF_NtCsipbLpstqwUV_8tycho_vm4contNtB5_9WhileContNtB5_4Cont11rc_into_dyn
FNDA:0,_RNvXsF_NtCsipbLpstqwUV_8tycho_vm4contNtB5_9WhileContNtB5_4Cont14as_stack_value
FNDA:0,_RNvXsF_NtCsipbLpstqwUV_8tycho_vm4contNtB5_9WhileContNtB5_4Cont3fmt
FNDA:578502,_RNvXsF_NtCsipbLpstqwUV_8tycho_vm4contNtB5_9WhileContNtB5_4Cont4jump
FNDA:459220,_RNvXsG_NtCsipbLpstqwUV_8tycho_vm4contNtB5_9WhileContNtNtB7_6saferc10SafeDelete19rc_into_safe_delete
FNDA:0,_RNvXsH_NtCsipbLpstqwUV_8tycho_vm4contNtB5_9WhileContNtNtNtCsdL4DZEAGarf_15everscale_types4cell7builder5Store10store_into
FNDA:0,_RNvXsI_NtCsipbLpstqwUV_8tycho_vm4contNtB5_9WhileContNtNtNtCsdL4DZEAGarf_15everscale_types4cell5slice4Load9load_from
FNDA:604379,_RNvXsK_NtCsipbLpstqwUV_8tycho_vm4contNtB5_10ArgContExtNtB5_4Cont11rc_into_dyn
FNDA:0,_RNvXsK_NtCsipbLpstqwUV_8tycho_vm4contNtB5_10ArgContExtNtB5_4Cont14as_stack_value
FNDA:1749365,_RNvXsK_NtCsipbLpstqwUV_8tycho_vm4contNtB5_10ArgContExtNtB5_4Cont16get_control_data
FNDA:1690538,_RNvXsK_NtCsipbLpstqwUV_8tycho_vm4contNtB5_10ArgContExtNtB5_4Cont20get_control_data_mut
FNDA:0,_RNvXsK_NtCsipbLpstqwUV_8tycho_vm4contNtB5_10ArgContExtNtB5_4Cont3fmt
FNDA:853242,_RNvXsK_NtCsipbLpstqwUV_8tycho_vm4contNtB5_10ArgContExtNtB5_4Cont4jump
FNDA:1015134,_RNvXsL_NtCsipbLpstqwUV_8tycho_vm4contNtB5_10ArgContExtNtNtB7_6saferc10SafeDelete19rc_into_safe_delete
FNDA:0,_RNvXsM_NtCsipbLpstqwUV_8tycho_vm4contNtB5_10ArgContExtNtNtNtCsdL4DZEAGarf_15everscale_types4cell7builder5Store10store_into
FNDA:0,_RNvXsN_NtCsipbLpstqwUV_8tycho_vm4contNtB5_10ArgContExtNtNtNtCsdL4DZEAGarf_15everscale_types4cell5slice4Load9load_from
FNDA:618639,_RNvXsP_NtCsipbLpstqwUV_8tycho_vm4contNtB5_7OrdContNtB5_4Cont11rc_into_dyn
FNDA:0,_RNvXsP_NtCsipbLpstqwUV_8tycho_vm4contNtB5_7OrdContNtB5_4Cont14as_stack_value
FNDA:104042849,_RNvXsP_NtCsipbLpstqwUV_8tycho_vm4contNtB5_7OrdContNtB5_4Cont16get_control_data
FNDA:1521867,_RNvXsP_NtCsipbLpstqwUV_8tycho_vm4contNtB5_7OrdContNtB5_4Cont20get_control_data_mut
FNDA:0,_RNvXsP_NtCsipbLpstqwUV_8tycho_vm4contNtB5_7OrdContNtB5_4Cont3fmt
FNDA:30777174,_RNvXsP_NtCsipbLpstqwUV_8tycho_vm4contNtB5_7OrdContNtB5_4Cont4jump
FNDA:9494528,_RNvXsQ_NtCsipbLpstqwUV_8tycho_vm4contNtB5_7OrdContNtNtB7_6saferc10SafeDelete19rc_into_safe_delete
FNDA:0,_RNvXsR_NtCsipbLpstqwUV_8tycho_vm4contNtB5_7OrdContNtNtNtCsdL4DZEAGarf_15everscale_types4cell7builder5Store10store_into
FNDA:0,_RNvXsS_NtCsipbLpstqwUV_8tycho_vm4contNtB5_7OrdContNtNtNtCsdL4DZEAGarf_15everscale_types4cell5slice4Load9load_from
FNDA:0,_RNvXs_NtCsipbLpstqwUV_8tycho_vm4contNtB4_11ControlDataNtNtNtCsdL4DZEAGarf_15everscale_types4cell7builder5Store10store_into
FNDA:379688,_RNvXsb_NtCsipbLpstqwUV_8tycho_vm4contNtB5_8QuitContNtB5_4Cont11rc_into_dyn
FNDA:0,_RNvXsb_NtCsipbLpstqwUV_8tycho_vm4contNtB5_8QuitContNtB5_4Cont14as_stack_value
FNDA:0,_RNvXsb_NtCsipbLpstqwUV_8tycho_vm4contNtB5_8QuitContNtB5_4Cont3fmt
FNDA:92120,_RNvXsb_NtCsipbLpstqwUV_8tycho_vm4contNtB5_8QuitContNtB5_4Cont4jump
FNDA:0,_RNvXsd_NtCsipbLpstqwUV_8tycho_vm4contNtB5_8QuitContNtNtNtCsdL4DZEAGarf_15everscale_types4cell7builder5Store10store_into
FNDA:0,_RNvXse_NtCsipbLpstqwUV_8tycho_vm4contNtB5_8QuitContNtNtNtCsdL4DZEAGarf_15everscale_types4cell5slice4Load9load_from
FNDA:134560,_RNvXsg_NtCsipbLpstqwUV_8tycho_vm4contNtB5_11ExcQuitContNtB5_4Cont11rc_into_dyn
FNDA:0,_RNvXsg_NtCsipbLpstqwUV_8tycho_vm4contNtB5_11ExcQuitContNtB5_4Cont14as_stack_value
FNDA:0,_RNvXsg_NtCsipbLpstqwUV_8tycho_vm4contNtB5_11ExcQuitContNtB5_4Cont3fmt
FNDA:673918,_RNvXsg_NtCsipbLpstqwUV_8tycho_vm4contNtB5_11ExcQuitContNtB5_4Cont4jump
FNDA:1,_RNvXsh_NtCsipbLpstqwUV_8tycho_vm4contNtB5_11ExcQuitContNtNtB7_6saferc10SafeDelete19rc_into_safe_delete
FNDA:0,_RNvXsi_NtCsipbLpstqwUV_8tycho_vm4contNtB5_11ExcQuitContNtNtNtCsdL4DZEAGarf_15everscale_types4cell7builder5Store10store_into
FNDA:0,_RNvXsj_NtCsipbLpstqwUV_8tycho_vm4contNtB5_11ExcQuitContNtNtNtCsdL4DZEAGarf_15everscale_types4cell5slice4Load9load_from
FNDA:18877,_RNvXsl_NtCsipbLpstqwUV_8tycho_vm4contNtB5_11PushIntContNtB5_4Cont11rc_into_dyn
FNDA:0,_RNvXsl_NtCsipbLpstqwUV_8tycho_vm4contNtB5_11PushIntContNtB5_4Cont14as_stack_value
FNDA:0,_RNvXsl_NtCsipbLpstqwUV_8tycho_vm4contNtB5_11PushIntContNtB5_4Cont3fmt
FNDA:99701,_RNvXsl_NtCsipbLpstqwUV_8tycho_vm4contNtB5_11PushIntContNtB5_4Cont4jump
FNDA:298522,_RNvXsm_NtCsipbLpstqwUV_8tycho_vm4contNtB5_11PushIntContNtNtB7_6saferc10SafeDelete19rc_into_safe_delete
FNDA:0,_RNvXsn_NtCsipbLpstqwUV_8tycho_vm4contNtB5_11PushIntContNtNtNtCsdL4DZEAGarf_15everscale_types4cell7builder5Store10store_into
FNDA:0,_RNvXso_NtCsipbLpstqwUV_8tycho_vm4contNtB5_11PushIntContNtNtNtCsdL4DZEAGarf_15everscale_types4cell5slice4Load9load_from
FNDA:1066706,_RNvXsq_NtCsipbLpstqwUV_8tycho_vm4contNtB5_10RepeatContNtB5_4Cont11rc_into_dyn
FNDA:0,_RNvXsq_NtCsipbLpstqwUV_8tycho_vm4contNtB5_10RepeatContNtB5_4Cont14as_stack_value
FNDA:0,_RNvXsq_NtCsipbLpstqwUV_8tycho_vm4contNtB5_10RepeatContNtB5_4Cont3fmt
FNDA:12580447,_RNvXsq_NtCsipbLpstqwUV_8tycho_vm4contNtB5_10RepeatContNtB5_4Cont4jump
FNDA:2705507,_RNvXsr_NtCsipbLpstqwUV_8tycho_vm4contNtB5_10RepeatContNtNtB7_6saferc10SafeDelete19rc_into_safe_delete
FNDA:0,_RNvXss_NtCsipbLpstqwUV_8tycho_vm4contNtB5_10RepeatContNtNtNtCsdL4DZEAGarf_15everscale_types4cell7builder5Store10store_into
FNDA:0,_RNvXst_NtCsipbLpstqwUV_8tycho_vm4contNtB5_10RepeatContNtNtNtCsdL4DZEAGarf_15everscale_types4cell5slice4Load9load_from
FNDA:952865,_RNvXsv_NtCsipbLpstqwUV_8tycho_vm4contNtB5_9AgainContNtB5_4Cont11rc_into_dyn
FNDA:0,_RNvXsv_NtCsipbLpstqwUV_8tycho_vm4contNtB5_9AgainContNtB5_4Cont14as_stack_value
FNDA:0,_RNvXsv_NtCsipbLpstqwUV_8tycho_vm4contNtB5_9AgainContNtB5_4Cont3fmt
FNDA:11477069,_RNvXsv_NtCsipbLpstqwUV_8tycho_vm4contNtB5_9AgainContNtB5_4Cont4jump
FNDA:209996,_RNvXsw_NtCsipbLpstqwUV_8tycho_vm4contNtB5_9AgainContNtNtB7_6saferc10SafeDelete19rc_into_safe_delete
FNDA:0,_RNvXsx_NtCsipbLpstqwUV_8tycho_vm4contNtB5_9AgainContNtNtNtCsdL4DZEAGarf_15everscale_types4cell7builder5Store10store_into
FNDA:0,_RNvXsy_NtCsipbLpstqwUV_8tycho_vm4contNtB5_9AgainContNtNtNtCsdL4DZEAGarf_15everscale_types4cell5slice4Load9load_from
FNDA:13017150,_RNvYNtNtCsipbLpstqwUV_8tycho_vm4cont10RepeatContNtB4_4Cont16get_control_dataB6_
FNDA:0,_RNvYNtNtCsipbLpstqwUV_8tycho_vm4cont10RepeatContNtB4_4Cont20get_control_data_mutB6_
FNDA:677313,_RNvYNtNtCsipbLpstqwUV_8tycho_vm4cont11ExcQuitContNtB4_4Cont16get_control_dataB6_
FNDA:0,_RNvYNtNtCsipbLpstqwUV_8tycho_vm4cont11ExcQuitContNtB4_4Cont20get_control_data_mutB6_
FNDA:129754,_RNvYNtNtCsipbLpstqwUV_8tycho_vm4cont11PushIntContNtB4_4Cont16get_control_dataB6_
FNDA:0,_RNvYNtNtCsipbLpstqwUV_8tycho_vm4cont11PushIntContNtB4_4Cont20get_control_data_mutB6_
FNDA:202698,_RNvYNtNtCsipbLpstqwUV_8tycho_vm4cont8QuitContNtB4_4Cont16get_control_dataB6_
FNDA:0,_RNvYNtNtCsipbLpstqwUV_8tycho_vm4cont8QuitContNtB4_4Cont20get_control_data_mutB6_
FNDA:12160778,_RNvYNtNtCsipbLpstqwUV_8tycho_vm4cont9AgainContNtB4_4Cont16get_control_dataB6_
FNDA:0,_RNvYNtNtCsipbLpstqwUV_8tycho_vm4cont9AgainContNtB4_4Cont20get_control_data_mutB6_
FNDA:2481600,_RNvYNtNtCsipbLpstqwUV_8tycho_vm4cont9UntilContNtB4_4Cont16get_control_dataB6_
FNDA:0,_RNvYNtNtCsipbLpstqwUV_8tycho_vm4cont9UntilContNtB4_4Cont20get_control_data_mutB6_
FNDA:637981,_RNvYNtNtCsipbLpstqwUV_8tycho_vm4cont9WhileContNtB4_4Cont16get_control_dataB6_
FNDA:0,_RNvYNtNtCsipbLpstqwUV_8tycho_vm4cont9WhileContNtB4_4Cont20get_control_data_mutB6_
FNF:105
FNH:57
DA:28,375558
DA:29,29145
DA:30,13343
DA:31,362215
DA:32,362215
DA:33,375558
DA:37,0
DA:38,0
DA:39,0
DA:40,0
DA:41,0
DA:42,0
DA:43,0
DA:44,0
DA:45,0
DA:46,0
DA:48,0
DA:51,0
DA:52,0
DA:53,0
DA:54,0
DA:55,0
DA:59,0
DA:61,0
DA:62,0
DA:63,0
DA:65,0
DA:66,0
DA:67,0
DA:69,0
DA:70,0
DA:72,0
DA:90,4618954
DA:91,4618954
DA:92,4618954
DA:94,31630416
DA:95,126521664
DA:96,126521664
DA:97,126521664
DA:98,63260832
DA:99,63260832
DA:101,31630416
DA:102,31630416
DA:104,23983023
DA:105,95932092
DA:106,95932092
DA:107,764908
DA:108,95167184
DA:110,47966046
DA:111,47966046
DA:112,2376
DA:113,47963670
DA:115,23983023
DA:116,1747
DA:117,23981276
DA:118,23983023
DA:121,1209042
DA:122,1209042
DA:123,1130957
DA:124,78085
DA:125,55376
DA:126,16407
DA:127,22709
DA:128,22709
DA:130,0
DA:132,1100576
DA:133,1209042
DA:135,0
DA:136,0
DA:137,0
DA:138,0
DA:140,0
DA:142,0
DA:144,50406
DA:145,50406
DA:146,50406
DA:147,50406
DA:148,50406
DA:150,0
DA:152,50406
DA:154,50825
DA:155,50825
DA:156,50825
DA:157,50825
DA:159,0
DA:161,50825
DA:163,0
DA:164,0
DA:165,0
DA:167,3702161
DA:168,3702161
DA:169,3321433
DA:170,380728
DA:171,231896
DA:172,231896
DA:173,231896
DA:174,148832
DA:175,145420
DA:177,3412
DA:179,3702161
DA:181,258156
DA:182,258156
DA:183,191418
DA:184,66738
DA:185,258156
DA:187,338826
DA:188,338826
DA:189,287236
DA:190,51590
DA:191,338826
DA:193,667587
DA:194,667587
DA:195,657969
DA:196,9618
DA:197,667587
DA:199,1475766
DA:200,1475766
DA:201,1073609
DA:202,1068148
DA:203,807646
DA:204,402157
DA:205,277312
DA:206,250903
DA:207,250903
DA:208,212076
DA:209,124845
DA:210,124845
DA:213,104416
DA:214,87133
DA:215,87133
DA:217,0
DA:219,1124138
DA:220,1475766
DA:222,201710
DA:223,201710
DA:224,0
DA:227,201710
DA:228,201710
DA:230,63260832
DA:231,63260832
DA:232,102096
DA:233,99724
DA:234,99724
DA:235,99724
DA:236,89616
DA:237,10108
DA:238,2372
DA:239,12480
DA:240,63158736
DA:241,63260832
DA:243,158152080
DA:244,158152080
DA:245,158152080
DA:246,158152080
DA:247,158152080
DA:248,2332511
DA:249,1566038
DA:250,299670
DA:251,1266368
DA:252,766473
DA:253,2032841
DA:254,155819569
DA:255,158152080
DA:259,0
DA:260,0
DA:261,0
DA:262,0
DA:263,0
DA:269,0
DA:270,0
DA:271,0
DA:272,0
DA:273,0
DA:274,0
DA:275,0
DA:280,0
DA:282,0
DA:283,0
DA:284,0
DA:285,0
DA:287,0
DA:288,0
DA:289,0
DA:290,0
DA:292,0
DA:293,0
DA:294,0
DA:296,0
DA:297,0
DA:301,0
DA:302,0
DA:304,0
DA:305,0
DA:306,0
DA:307,0
DA:308,0
DA:309,0
DA:310,0
DA:311,0
DA:314,0
DA:315,0
DA:328,29307274
DA:329,29307274
DA:330,29307274
DA:332,0
DA:333,0
DA:334,0
DA:339,7234658
DA:340,7234658
DA:341,7234658
DA:343,656689
DA:344,656689
DA:345,656689
DA:347,0
DA:348,0
DA:349,0
DA:350,0
DA:351,0
DA:352,0
DA:353,0
DA:354,0
DA:356,0
DA:357,0
DA:358,0
DA:359,0
DA:360,0
DA:362,0
DA:363,0
DA:364,0
DA:366,6191515
DA:367,6191515
DA:368,6191515
DA:375,24932296
DA:376,24932296
DA:377,24644145
DA:379,288151
DA:381,24932296
DA:386,1871398
DA:387,1871398
DA:388,1871398
DA:393,24788642
DA:394,24788642
DA:395,24788642
DA:396,24788642
DA:401,13515418
DA:402,13515418
DA:403,13515418
DA:408,21192368
DA:409,21192368
DA:410,21192368
DA:413,0
DA:418,0
DA:419,0
DA:420,0
DA:422,0
DA:426,0
DA:427,0
DA:428,0
DA:429,0
DA:431,0
DA:433,0
DA:435,0
DA:437,0
DA:439,0
DA:441,0
DA:443,0
DA:445,0
DA:447,0
DA:449,0
DA:451,0
DA:465,379688
DA:466,379688
DA:467,379688
DA:469,0
DA:470,0
DA:471,0
DA:474,0
DA:475,0
DA:476,0
DA:482,92120
DA:483,92120
DA:484,92120
DA:485,92120
DA:490,3
DA:491,3
DA:492,3
DA:496,0
DA:497,0
DA:498,0
DA:499,0
DA:503,0
DA:504,0
DA:505,0
DA:506,0
DA:509,0
DA:511,0
DA:524,134560
DA:525,134560
DA:526,134560
DA:528,0
DA:529,0
DA:530,0
DA:533,0
DA:534,0
DA:535,0
DA:541,673918
DA:542,673918
DA:543,673918
DA:544,673918
DA:545,673918
DA:546,673918
DA:547,673918
DA:548,673918
DA:553,1
DA:554,1
DA:555,1
DA:559,0
DA:560,0
DA:561,0
DA:566,0
DA:567,0
DA:568,0
DA:570,0
DA:572,0
DA:588,18877
DA:589,18877
DA:590,18877
DA:592,0
DA:593,0
DA:594,0
DA:597,0
DA:598,0
DA:599,0
DA:610,99701
DA:611,99701
DA:612,99701
DA:613,11389
DA:614,88312
DA:616,99701
DA:621,298522
DA:622,298522
DA:623,298522
DA:627,0
DA:628,0
DA:629,0
DA:630,0
DA:631,0
DA:632,0
DA:633,0
DA:634,0
DA:635,0
DA:639,0
DA:640,0
DA:641,0
DA:642,0
DA:645,0
DA:646,0
DA:648,0
DA:667,1066706
DA:668,1066706
DA:669,1066706
DA:671,0
DA:672,0
DA:673,0
DA:676,0
DA:677,0
DA:678,0
DA:689,12580447
DA:690,12580447
DA:691,2751518
DA:692,9828929
DA:693,9828929
DA:694,4489
DA:695,9824440
DA:696,9824440
DA:697,9824440
DA:698,9824440
DA:699,7721357
DA:700,7721357
DA:701,7721357
DA:703,2103083
DA:704,2103083
DA:705,2103083
DA:706,2103083
DA:707,2103083
DA:710,9824440
DA:711,12580447
DA:716,2705507
DA:717,2705507
DA:718,2705507
DA:722,0
DA:723,0
DA:724,0
DA:725,0
DA:726,0
DA:727,0
DA:728,0
DA:729,0
DA:730,0
DA:731,0
DA:732,0
DA:733,0
DA:734,0
DA:738,0
DA:739,0
DA:740,0
DA:741,0
DA:744,0
DA:745,0
DA:746,0
DA:748,0
DA:766,952865
DA:767,952865
DA:768,952865
DA:770,0
DA:771,0
DA:772,0
DA:775,0
DA:776,0
DA:777,0
DA:783,11477069
DA:784,11477069
DA:785,11451889
DA:786,25180
DA:787,11477069
DA:788,11477069
DA:793,209996
DA:794,209996
DA:795,209996
DA:799,0
DA:800,0
DA:801,0
DA:802,0
DA:803,0
DA:804,0
DA:805,0
DA:806,0
DA:810,0
DA:811,0
DA:812,0
DA:813,0
DA:816,0
DA:818,0
DA:834,156336
DA:835,156336
DA:836,156336
DA:838,0
DA:839,0
DA:840,0
DA:843,0
DA:844,0
DA:845,0
DA:851,2377994
DA:852,2377994
DA:853,2377994
DA:854,2343928
DA:855,722371
DA:856,722371
DA:857,1621557
DA:858,1621557
DA:859,1621557
DA:860,1621557
DA:861,1621557
DA:862,2377994
DA:867,539629
DA:868,539629
DA:869,539629
DA:873,0
DA:874,0
DA:875,0
DA:876,0
DA:877,0
DA:878,0
DA:879,0
DA:880,0
DA:881,0
DA:885,0
DA:886,0
DA:887,0
DA:888,0
DA:891,0
DA:892,0
DA:894,0
DA:912,140698
DA:913,140698
DA:914,140698
DA:916,0
DA:917,0
DA:918,0
DA:921,0
DA:922,0
DA:923,0
DA:925,0
DA:927,0
DA:938,578502
DA:939,578502
DA:940,323089
DA:941,323089
DA:942,50564
DA:943,50564
DA:944,263287
DA:945,263287
DA:947,255413
DA:948,255413
DA:951,518700
DA:952,514865
DA:953,397565
DA:954,397565
DA:955,397565
DA:956,397565
DA:957,117300
DA:958,117300
DA:959,117300
DA:960,117300
DA:961,117300
DA:962,117300
DA:964,3835
DA:966,518700
DA:967,578502
DA:972,459220
DA:973,459220
DA:974,459220
DA:978,0
DA:979,0
DA:980,0
DA:981,0
DA:982,0
DA:983,0
DA:984,0
DA:985,0
DA:986,0
DA:987,0
DA:988,0
DA:992,0
DA:993,0
DA:994,0
DA:995,0
DA:998,0
DA:999,0
DA:1000,0
DA:1001,0
DA:1003,0
DA:1019,604379
DA:1020,604379
DA:1021,604379
DA:1023,0
DA:1024,0
DA:1025,0
DA:1028,0
DA:1029,0
DA:1030,0
DA:1036,853242
DA:1037,853242
DA:1038,853242
DA:1039,0
DA:1040,853242
DA:1042,853242
DA:1043,598758
DA:1044,254484
DA:1046,853242
DA:1048,1749365
DA:1049,1749365
DA:1050,1749365
DA:1052,1690538
DA:1053,1690538
DA:1054,1690538
DA:1059,1015134
DA:1060,1015134
DA:1061,1015134
DA:1065,0
DA:1066,0
DA:1067,0
DA:1068,0
DA:1069,0
DA:1070,0
DA:1071,0
DA:1072,0
DA:1076,0
DA:1077,0
DA:1078,0
DA:1079,0
DA:1082,0
DA:1083,0
DA:1085,0
DA:1098,7089938
DA:1099,7089938
DA:1100,7089938
DA:1101,7089938
DA:1102,7089938
DA:1103,7089938
DA:1104,7089938
DA:1105,7089938
DA:1106,7089938
DA:1111,618639
DA:1112,618639
DA:1113,618639
DA:1115,0
DA:1116,0
DA:1117,0
DA:1120,0
DA:1121,0
DA:1122,0
DA:1128,30777174
DA:1129,30777174
DA:1130,30777174
DA:1131,0
DA:1133,30777174
DA:1134,30777174
DA:1135,30777174
DA:1137,104042849
DA:1138,104042849
DA:1139,104042849
DA:1141,1521867
DA:1142,1521867
DA:1143,1521867
DA:1148,9494528
DA:1149,9494528
DA:1150,9494528
DA:1154,0
DA:1155,0
DA:1156,0
DA:1157,0
DA:1158,0
DA:1159,0
DA:1160,0
DA:1161,0
DA:1162,0
DA:1166,0
DA:1167,0
DA:1168,0
DA:1169,0
DA:1172,0
DA:1173,0
DA:1175,0
BRF:0
BRH:0
LF:635
LH:324
end_of_record
SF:/home/odm3n/dev/work/everscale-vm/vm/src/dispatch.rs
FN:94,_RINvMNtCsipbLpstqwUV_8tycho_vm8dispatchNtB3_13DispatchTable11lookup_implINtNtCs8f1B5igIjLM_5alloc5boxed3BoxDNtB3_10OpcodeExecEL_EB1H_EB5_
FN:288,_RINvMs_NtCsipbLpstqwUV_8tycho_vm8dispatchNtB5_7Opcodes15add_opcode_implDNtB5_10OpcodeExecEL_EB7_
FN:318,_RINvNtCsipbLpstqwUV_8tycho_vm8dispatch13build_opcodesDNtB2_10OpcodeExecEL_NCNvMs_B2_NtB2_7Opcodes5build0EB4_
FN:125,_RNCNvMs_NtCsipbLpstqwUV_8tycho_vm8dispatchNtB6_7Opcodes5build0B8_
FN:87,_RNvMNtCsipbLpstqwUV_8tycho_vm8dispatchNtB2_13DispatchTable21get_opcode_from_slice
FN:66,_RNvMNtCsipbLpstqwUV_8tycho_vm8dispatchNtB2_13DispatchTable2id
FN:70,_RNvMNtCsipbLpstqwUV_8tycho_vm8dispatchNtB2_13DispatchTable6lookup
FN:56,_RNvMNtCsipbLpstqwUV_8tycho_vm8dispatchNtB2_13DispatchTable7builder
FN:74,_RNvMNtCsipbLpstqwUV_8tycho_vm8dispatchNtB2_13DispatchTable8dispatch
FN:278,_RNvMs_NtCsipbLpstqwUV_8tycho_vm8dispatchNtB4_7Opcodes10add_opcode
FN:148,_RNvMs_NtCsipbLpstqwUV_8tycho_vm8dispatchNtB4_7Opcodes10add_simple
FN:252,_RNvMs_NtCsipbLpstqwUV_8tycho_vm8dispatchNtB4_7Opcodes13add_ext_range
FN:199,_RNvMs_NtCsipbLpstqwUV_8tycho_vm8dispatchNtB4_7Opcodes15add_fixed_range
FN:124,_RNvMs_NtCsipbLpstqwUV_8tycho_vm8dispatchNtB4_7Opcodes5build
FN:226,_RNvMs_NtCsipbLpstqwUV_8tycho_vm8dispatchNtB4_7Opcodes7add_ext
FN:173,_RNvMs_NtCsipbLpstqwUV_8tycho_vm8dispatchNtB4_7Opcodes9add_fixed
FN:501,_RNvNtCsipbLpstqwUV_8tycho_vm8dispatch10opcode_gas
FN:352,_RNvXs0_NtCsipbLpstqwUV_8tycho_vm8dispatchNtB5_11DummyOpcodeNtB5_10OpcodeBase5range
FN:358,_RNvXs1_NtCsipbLpstqwUV_8tycho_vm8dispatchNtB5_11DummyOpcodeNtB5_10OpcodeExec4exec
FN:379,_RNvXs2_NtCsipbLpstqwUV_8tycho_vm8dispatchINtB5_12SimpleOpcodeFG0_QL1_INtNtB7_5state7VmStateL0_EEINtNtCscHntIWw2aYb_4core6result6ResultlINtNtCs8f1B5igIjLM_5alloc5boxed3BoxNtNtB7_5error7VmErrorEEENtB5_10OpcodeBase5rangeB7_
FN:385,_RNvXs3_NtCsipbLpstqwUV_8tycho_vm8dispatchINtB5_12SimpleOpcodeFG0_QL1_INtNtB7_5state7VmStateL0_EEINtNtCscHntIWw2aYb_4core6result6ResultlINtNtCs8f1B5igIjLM_5alloc5boxed3BoxNtNtB7_5error7VmErrorEEENtB5_10OpcodeExec4exec
FN:420,_RNvXs4_NtCsipbLpstqwUV_8tycho_vm8dispatchINtB5_11FixedOpcodeFG0_QL1_INtNtB7_5state7VmStateL0_EmEINtNtCscHntIWw2aYb_4core6result6ResultlINtNtCs8f1B5igIjLM_5alloc5boxed3BoxNtNtB7_5error7VmErrorEEENtB5_10OpcodeBase5rangeB7_
FN:426,_RNvXs5_NtCsipbLpstqwUV_8tycho_vm8dispatchINtB5_11FixedOpcodeFG0_QL1_INtNtB7_5state7VmStateL0_EmEINtNtCscHntIWw2aYb_4core6result6ResultlINtNtCs8f1B5igIjLM_5alloc5boxed3BoxNtNtB7_5error7VmErrorEEENtB5_10OpcodeExec4exec
FN:461,_RNvXs6_NtCsipbLpstqwUV_8tycho_vm8dispatchINtB5_9ExtOpcodeFG0_QL1_INtNtB7_5state7VmStateL0_EmtEINtNtCscHntIWw2aYb_4core6result6ResultlINtNtCs8f1B5igIjLM_5alloc5boxed3BoxNtNtB7_5error7VmErrorEEENtB5_10OpcodeBase5rangeB7_
FN:467,_RNvXs7_NtCsipbLpstqwUV_8tycho_vm8dispatchINtB5_9ExtOpcodeFG0_QL1_INtNtB7_5state7VmStateL0_EmtEINtNtCscHntIWw2aYb_4core6result6ResultlINtNtCs8f1B5igIjLM_5alloc5boxed3BoxNtNtB7_5error7VmErrorEEENtB5_10OpcodeExec4exec
FNDA:236246134,_RINvMNtCsipbLpstqwUV_8tycho_vm8dispatchNtB3_13DispatchTable11lookup_implINtNtCs8f1B5igIjLM_5alloc5boxed3BoxDNtB3_10OpcodeExecEL_EB1H_EB5_
FNDA:538,_RINvMs_NtCsipbLpstqwUV_8tycho_vm8dispatchNtB5_7Opcodes15add_opcode_implDNtB5_10OpcodeExecEL_EB7_
FNDA:1,_RINvNtCsipbLpstqwUV_8tycho_vm8dispatch13build_opcodesDNtB2_10OpcodeExecEL_NCNvMs_B2_NtB2_7Opcodes5build0EB4_
FNDA:95,_RNCNvMs_NtCsipbLpstqwUV_8tycho_vm8dispatchNtB6_7Opcodes5build0B8_
FNDA:236246134,_RNvMNtCsipbLpstqwUV_8tycho_vm8dispatchNtB2_13DispatchTable21get_opcode_from_slice
FNDA:11170112,_RNvMNtCsipbLpstqwUV_8tycho_vm8dispatchNtB2_13DispatchTable2id
FNDA:236246134,_RNvMNtCsipbLpstqwUV_8tycho_vm8dispatchNtB2_13DispatchTable6lookup
FNDA:1,_RNvMNtCsipbLpstqwUV_8tycho_vm8dispatchNtB2_13DispatchTable7builder
FNDA:236246134,_RNvMNtCsipbLpstqwUV_8tycho_vm8dispatchNtB2_13DispatchTable8dispatch
FNDA:538,_RNvMs_NtCsipbLpstqwUV_8tycho_vm8dispatchNtB4_7Opcodes10add_opcode
FNDA:350,_RNvMs_NtCsipbLpstqwUV_8tycho_vm8dispatchNtB4_7Opcodes10add_simple
FNDA:4,_RNvMs_NtCsipbLpstqwUV_8tycho_vm8dispatchNtB4_7Opcodes13add_ext_range
FNDA:37,_RNvMs_NtCsipbLpstqwUV_8tycho_vm8dispatchNtB4_7Opcodes15add_fixed_range
FNDA:1,_RNvMs_NtCsipbLpstqwUV_8tycho_vm8dispatchNtB4_7Opcodes5build
FNDA:21,_RNvMs_NtCsipbLpstqwUV_8tycho_vm8dispatchNtB4_7Opcodes7add_ext
FNDA:126,_RNvMs_NtCsipbLpstqwUV_8tycho_vm8dispatchNtB4_7Opcodes9add_fixed
FNDA:236180224,_RNvNtCsipbLpstqwUV_8tycho_vm8dispatch10opcode_gas
FNDA:0,_RNvXs0_NtCsipbLpstqwUV_8tycho_vm8dispatchNtB5_11DummyOpcodeNtB5_10OpcodeBase5range
FNDA:65910,_RNvXs1_NtCsipbLpstqwUV_8tycho_vm8dispatchNtB5_11DummyOpcodeNtB5_10OpcodeExec4exec
FNDA:1047,_RNvXs2_NtCsipbLpstqwUV_8tycho_vm8dispatchINtB5_12SimpleOpcodeFG0_QL1_INtNtB7_5state7VmStateL0_EEINtNtCscHntIWw2aYb_4core6result6ResultlINtNtCs8f1B5igIjLM_5alloc5boxed3BoxNtNtB7_5error7VmErrorEEENtB5_10OpcodeBase5rangeB7_
FNDA:138854620,_RNvXs3_NtCsipbLpstqwUV_8tycho_vm8dispatchINtB5_12SimpleOpcodeFG0_QL1_INtNtB7_5state7VmStateL0_EEINtNtCscHntIWw2aYb_4core6result6ResultlINtNtCs8f1B5igIjLM_5alloc5boxed3BoxNtNtB7_5error7VmErrorEEENtB5_10OpcodeExec4exec
FNDA:492,_RNvXs4_NtCsipbLpstqwUV_8tycho_vm8dispatchINtB5_11FixedOpcodeFG0_QL1_INtNtB7_5state7VmStateL0_EmEINtNtCscHntIWw2aYb_4core6result6ResultlINtNtCs8f1B5igIjLM_5alloc5boxed3BoxNtNtB7_5error7VmErrorEEENtB5_10OpcodeBase5rangeB7_
FNDA:88137461,_RNvXs5_NtCsipbLpstqwUV_8tycho_vm8dispatchINtB5_11FixedOpcodeFG0_QL1_INtNtB7_5state7VmStateL0_EmEINtNtCscHntIWw2aYb_4core6result6ResultlINtNtCs8f1B5igIjLM_5alloc5boxed3BoxNtNtB7_5error7VmErrorEEENtB5_10OpcodeExec4exec
FNDA:73,_RNvXs6_NtCsipbLpstqwUV_8tycho_vm8dispatchINtB5_9ExtOpcodeFG0_QL1_INtNtB7_5state7VmStateL0_EmtEINtNtCscHntIWw2aYb_4core6result6ResultlINtNtCs8f1B5igIjLM_5alloc5boxed3BoxNtNtB7_5error7VmErrorEEENtB5_10OpcodeBase5rangeB7_
FNDA:9188143,_RNvXs7_NtCsipbLpstqwUV_8tycho_vm8dispatchINtB5_9ExtOpcodeFG0_QL1_INtNtB7_5state7VmStateL0_EmtEINtNtCscHntIWw2aYb_4core6result6ResultlINtNtCs8f1B5igIjLM_5alloc5boxed3BoxNtNtB7_5error7VmErrorEEENtB5_10OpcodeExec4exec
FNF:25
FNH:24
DA:56,1
DA:57,1
DA:58,1
DA:59,1
DA:60,1
DA:61,1
DA:62,1
DA:63,1
DA:66,11170112
DA:67,11170112
DA:68,11170112
DA:70,236246134
DA:71,236246134
DA:72,236246134
DA:74,236246134
DA:75,236246134
DA:76,236246134
DA:77,236246134
DA:78,236246134
DA:87,236246134
DA:88,236246134
DA:89,236246134
DA:90,236246134
DA:91,236246134
DA:94,236246134
DA:95,236246134
DA:96,236246134
DA:97,236246134
DA:98,236246134
DA:99,236246134
DA:101,236246134
DA:102,236246134
DA:103,2437843392
DA:104,2201597258
DA:105,2201597258
DA:106,676149877
DA:107,1525447381
DA:108,1525447381
DA:109,1525447381
DA:111,236246134
DA:112,236246134
DA:124,1
DA:125,95
DA:126,95
DA:127,95
DA:128,95
DA:129,95
DA:130,95
DA:131,1
DA:132,1
DA:133,1
DA:134,1
DA:135,1
DA:136,1
DA:137,1
DA:138,1
DA:139,1
DA:140,1
DA:141,1
DA:142,1
DA:143,1
DA:144,1
DA:145,1
DA:146,1
DA:148,350
DA:149,350
DA:150,350
DA:151,350
DA:152,350
DA:153,350
DA:154,350
DA:155,350
DA:156,350
DA:157,350
DA:158,350
DA:159,350
DA:160,350
DA:161,350
DA:162,350
DA:163,350
DA:164,350
DA:165,350
DA:166,350
DA:167,350
DA:168,350
DA:169,350
DA:170,350
DA:171,350
DA:173,126
DA:174,126
DA:175,126
DA:176,126
DA:177,126
DA:178,126
DA:179,126
DA:180,126
DA:181,126
DA:182,126
DA:183,126
DA:184,126
DA:185,126
DA:186,126
DA:187,126
DA:188,126
DA:189,126
DA:190,126
DA:191,126
DA:192,126
DA:193,126
DA:194,126
DA:195,126
DA:196,126
DA:197,126
DA:199,37
DA:200,37
DA:201,37
DA:202,37
DA:203,37
DA:204,37
DA:205,37
DA:206,37
DA:207,37
DA:208,37
DA:209,37
DA:210,37
DA:211,37
DA:212,37
DA:213,37
DA:214,37
DA:215,37
DA:216,37
DA:217,37
DA:218,37
DA:219,37
DA:220,37
DA:221,37
DA:222,37
DA:223,37
DA:224,37
DA:226,21
DA:227,21
DA:228,21
DA:229,21
DA:230,21
DA:231,21
DA:232,21
DA:233,21
DA:234,21
DA:235,21
DA:236,21
DA:237,21
DA:238,21
DA:239,21
DA:240,21
DA:241,21
DA:242,21
DA:243,21
DA:244,21
DA:245,21
DA:246,21
DA:247,21
DA:248,21
DA:249,21
DA:250,21
DA:252,4
DA:253,4
DA:254,4
DA:255,4
DA:256,4
DA:257,4
DA:258,4
DA:259,4
DA:260,4
DA:261,4
DA:262,4
DA:263,4
DA:264,4
DA:265,4
DA:266,4
DA:267,4
DA:268,4
DA:269,4
DA:270,4
DA:271,4
DA:272,4
DA:273,4
DA:274,4
DA:275,4
DA:276,4
DA:278,538
DA:279,538
DA:280,538
DA:288,538
DA:289,538
DA:290,538
DA:291,538
DA:292,538
DA:293,538
DA:294,538
DA:296,538
DA:297,297
DA:298,297
DA:299,0
DA:301,241
DA:303,538
DA:304,536
DA:305,536
DA:306,536
DA:307,536
DA:308,536
DA:309,0
DA:311,2
DA:313,538
DA:314,538
DA:315,538
DA:318,1
DA:319,1
DA:320,1
DA:321,1
DA:322,1
DA:323,1
DA:324,1
DA:325,1
DA:326,539
DA:327,538
DA:328,538
DA:329,95
DA:330,443
DA:332,538
DA:333,538
DA:336,1
DA:337,0
DA:338,1
DA:340,1
DA:341,1
DA:342,1
DA:352,0
DA:353,0
DA:354,0
DA:358,65910
DA:359,65910
DA:360,65052
DA:361,65910
DA:379,1047
DA:380,1047
DA:381,1047
DA:385,138854620
DA:386,138854620
DA:387,138847344
DA:388,138783688
DA:389,138783688
DA:390,138854620
DA:420,492
DA:421,492
DA:422,492
DA:426,88137461
DA:427,88137461
DA:428,88133218
DA:429,88116092
DA:430,88116092
DA:431,88137461
DA:461,73
DA:462,73
DA:463,73
DA:467,9188143
DA:468,9188143
DA:469,9186173
DA:470,9183341
DA:471,9183341
DA:472,9183341
DA:473,9183341
DA:474,9183341
DA:475,9188143
DA:501,236180224
DA:502,236180224
DA:503,236180224
BRF:0
BRH:0
LF:278
LH:272
end_of_record
SF:/home/odm3n/dev/work/everscale-vm/vm/src/error.rs
FN:49,_RNvMNtCsipbLpstqwUV_8tycho_vm5errorNtB2_7VmError12as_exception
FN:45,_RNvMNtCsipbLpstqwUV_8tycho_vm5errorNtB2_7VmError13is_out_of_gas
FN:123,_RNvMs0_NtCsipbLpstqwUV_8tycho_vm5errorNtB5_11VmException12as_exit_code
FN:129,_RNvXs1_NtCsipbLpstqwUV_8tycho_vm5errorNtB5_11VmExceptionNtNtCscHntIWw2aYb_4core3fmt7Display3fmt
FN:78,_RNvXs_NtCsipbLpstqwUV_8tycho_vm5errorINtNtCs8f1B5igIjLM_5alloc5boxed3BoxNtB4_7VmErrorEINtNtCscHntIWw2aYb_4core7convert4FromNtNtCsdL4DZEAGarf_15everscale_types5error5ErrorE4from
FNDA:5029325,_RNvMNtCsipbLpstqwUV_8tycho_vm5errorNtB2_7VmError12as_exception
FNDA:5060107,_RNvMNtCsipbLpstqwUV_8tycho_vm5errorNtB2_7VmError13is_out_of_gas
FNDA:10699,_RNvMs0_NtCsipbLpstqwUV_8tycho_vm5errorNtB5_11VmException12as_exit_code
FNDA:0,_RNvXs1_NtCsipbLpstqwUV_8tycho_vm5errorNtB5_11VmExceptionNtNtCscHntIWw2aYb_4core3fmt7Display3fmt
FNDA:266608,_RNvXs_NtCsipbLpstqwUV_8tycho_vm5errorINtNtCs8f1B5igIjLM_5alloc5boxed3BoxNtB4_7VmErrorEINtNtCscHntIWw2aYb_4core7convert4FromNtNtCsdL4DZEAGarf_15everscale_types5error5ErrorE4from
FNF:5
FNH:4
DA:45,5060107
DA:46,5026861
DA:47,5060107
DA:49,5029325
DA:50,5029325
DA:51,2144240
DA:52,0
DA:53,240639
DA:54,7445
DA:55,31057
DA:56,201222
DA:57,418836
DA:58,1669792
DA:59,0
DA:60,0
DA:61,294728
DA:62,229766
DA:63,37918
DA:65,0
DA:67,0
DA:68,10995
DA:69,16049
DA:71,21366
DA:73,5029325
DA:78,266608
DA:79,266608
DA:80,266608
DA:123,10699
DA:124,10699
DA:125,10699
DA:129,0
DA:130,0
DA:131,0
DA:132,0
DA:133,0
DA:134,0
DA:135,0
DA:136,0
DA:137,0
DA:138,0
DA:139,0
DA:140,0
DA:141,0
DA:142,0
DA:143,0
DA:144,0
DA:145,0
DA:147,0
BRF:0
BRH:0
LF:48
LH:25
end_of_record
SF:/home/odm3n/dev/work/everscale-vm/vm/src/gas.rs
FN:44,_RNvMNtCsipbLpstqwUV_8tycho_vm3gasNtB2_9GasParams6getter
FN:589,_RINvMse_NtCsipbLpstqwUV_8tycho_vm3gasNtB6_11GasConsumer14load_cell_implNtNtNtNtCsdL4DZEAGarf_15everscale_types4cell9cell_impl2rc4CellEB8_
FN:589,_RINvMse_NtCsipbLpstqwUV_8tycho_vm3gasNtB6_11GasConsumer14load_cell_implRDNtNtCsdL4DZEAGarf_15everscale_types4cell8CellImplEL_EB8_
FN:685,_RINvMsh_NtCsipbLpstqwUV_8tycho_vm3gasNtB6_18LimitedGasConsumer14load_cell_implNtNtNtNtCsdL4DZEAGarf_15everscale_types4cell9cell_impl2rc4CellEB8_
FN:685,_RINvMsh_NtCsipbLpstqwUV_8tycho_vm3gasNtB6_18LimitedGasConsumer14load_cell_implRDNtNtCsdL4DZEAGarf_15everscale_types4cell8CellImplEL_EB8_
FN:232,_RNCNvXsa_NtCsipbLpstqwUV_8tycho_vm3gasINtNtNtCsdL4DZEAGarf_15everscale_types4dict5typed4DictNtNtBH_4cell9HashBytesNtNtNtBH_6models5shard8LibDescrENtB7_15LibraryProvider4find0B9_
FN:256,_RNCNvXsa_NtCsipbLpstqwUV_8tycho_vm3gasINtNtNtCsdL4DZEAGarf_15everscale_types4dict5typed4DictNtNtBH_4cell9HashBytesNtNtNtBH_6models5shard8LibDescrENtB7_15LibraryProvider8find_ref0B9_
FN:35,_RNvMNtCsipbLpstqwUV_8tycho_vm3gasNtB2_9GasParams9unlimited
FN:557,_RNvMse_NtCsipbLpstqwUV_8tycho_vm3gasNtB5_11GasConsumer11try_consume
FN:342,_RNvMse_NtCsipbLpstqwUV_8tycho_vm3gasNtB5_11GasConsumer14with_libraries
FN:571,_RNvMse_NtCsipbLpstqwUV_8tycho_vm3gasNtB5_11GasConsumer16consume_free_gas
FN:584,_RNvMse_NtCsipbLpstqwUV_8tycho_vm3gasNtB5_11GasConsumer18load_cell_as_slice
FN:580,_RNvMse_NtCsipbLpstqwUV_8tycho_vm3gasNtB5_11GasConsumer19set_missing_library
FN:538,_RNvMse_NtCsipbLpstqwUV_8tycho_vm3gasNtB5_11GasConsumer21try_consume_stack_gas
FN:545,_RNvMse_NtCsipbLpstqwUV_8tycho_vm3gasNtB5_11GasConsumer21try_consume_tuple_gas
FN:516,_RNvMse_NtCsipbLpstqwUV_8tycho_vm3gasNtB5_11GasConsumer25try_consume_exception_gas
FN:550,_RNvMse_NtCsipbLpstqwUV_8tycho_vm3gasNtB5_11GasConsumer27try_consume_stack_depth_gas
FN:524,_RNvMse_NtCsipbLpstqwUV_8tycho_vm3gasNtB5_11GasConsumer28try_consume_implicit_ret_gas
FN:506,_RNvMse_NtCsipbLpstqwUV_8tycho_vm3gasNtB5_11GasConsumer30try_get_extra_balance_consumer
FN:528,_RNvMse_NtCsipbLpstqwUV_8tycho_vm3gasNtB5_11GasConsumer31try_consume_check_signature_gas
FN:520,_RNvMse_NtCsipbLpstqwUV_8tycho_vm3gasNtB5_11GasConsumer31try_consume_implicit_jmpref_gas
FN:336,_RNvMse_NtCsipbLpstqwUV_8tycho_vm3gasNtB5_11GasConsumer3new
FN:482,_RNvMse_NtCsipbLpstqwUV_8tycho_vm3gasNtB5_11GasConsumer5limit
FN:502,_RNvMse_NtCsipbLpstqwUV_8tycho_vm3gasNtB5_11GasConsumer5price
FN:369,_RNvMse_NtCsipbLpstqwUV_8tycho_vm3gasNtB5_11GasConsumer6derive
FN:361,_RNvMse_NtCsipbLpstqwUV_8tycho_vm3gasNtB5_11GasConsumer7limited
FN:430,_RNvMse_NtCsipbLpstqwUV_8tycho_vm3gasNtB5_11GasConsumer7restore
FN:470,_RNvMse_NtCsipbLpstqwUV_8tycho_vm3gasNtB5_11GasConsumer8consumed
FN:495,_RNvMse_NtCsipbLpstqwUV_8tycho_vm3gasNtB5_11GasConsumer8set_base
FN:462,_RNvMse_NtCsipbLpstqwUV_8tycho_vm3gasNtB5_11GasConsumer9libraries
FN:474,_RNvMse_NtCsipbLpstqwUV_8tycho_vm3gasNtB5_11GasConsumer9remaining
FN:486,_RNvMse_NtCsipbLpstqwUV_8tycho_vm3gasNtB5_11GasConsumer9set_limit
FN:734,_RNvMsh_NtCsipbLpstqwUV_8tycho_vm3gasNtB5_18LimitedGasConsumer11try_consume
FN:798,_RNvNtCsipbLpstqwUV_8tycho_vm3gas12truncate_gas
FN:241,_RNvXNvXsa_NtCsipbLpstqwUV_8tycho_vm3gasINtNtNtCsdL4DZEAGarf_15everscale_types4dict5typed4DictNtNtBI_4cell9HashBytesNtNtNtBI_6models5shard8LibDescrENtB8_15LibraryProvider8find_refNtB2_11LibDescrRefNtNtB1v_5slice4Load9load_from
FN:177,_RNvXs7_NtCsipbLpstqwUV_8tycho_vm3gasNtB5_11NoLibrariesNtB5_15LibraryProvider4find
FN:181,_RNvXs7_NtCsipbLpstqwUV_8tycho_vm3gasNtB5_11NoLibrariesNtB5_15LibraryProvider8find_ref
FN:187,_RNvXs8_NtCsipbLpstqwUV_8tycho_vm3gasINtNtNtCsdL4DZEAGarf_15everscale_types4dict5typed4DictNtNtBF_4cell9HashBytesNtNtNtBF_6models7account9SimpleLibENtB5_15LibraryProvider4find
FN:194,_RNvXs8_NtCsipbLpstqwUV_8tycho_vm3gasINtNtNtCsdL4DZEAGarf_15everscale_types4dict5typed4DictNtNtBF_4cell9HashBytesNtNtNtBF_6models7account9SimpleLibENtB5_15LibraryProvider8find_ref
FN:206,_RNvXs9_NtCsipbLpstqwUV_8tycho_vm3gasINtNtCs8f1B5igIjLM_5alloc3vec3VecINtNtNtCsdL4DZEAGarf_15everscale_types4dict5typed4DictNtNtB1c_4cell9HashBytesNtNtNtB1c_6models7account9SimpleLibEENtB5_15LibraryProvider4find
FN:216,_RNvXs9_NtCsipbLpstqwUV_8tycho_vm3gasINtNtCs8f1B5igIjLM_5alloc3vec3VecINtNtNtCsdL4DZEAGarf_15everscale_types4dict5typed4DictNtNtB1c_4cell9HashBytesNtNtNtB1c_6models7account9SimpleLibEENtB5_15LibraryProvider8find_ref
FN:56,_RNvXs_NtCsipbLpstqwUV_8tycho_vm3gasNtB4_9GasParamsNtNtCscHntIWw2aYb_4core7default7Default7default
FN:231,_RNvXsa_NtCsipbLpstqwUV_8tycho_vm3gasINtNtNtCsdL4DZEAGarf_15everscale_types4dict5typed4DictNtNtBF_4cell9HashBytesNtNtNtBF_6models5shard8LibDescrENtB5_15LibraryProvider4find
FN:235,_RNvXsa_NtCsipbLpstqwUV_8tycho_vm3gasINtNtNtCsdL4DZEAGarf_15everscale_types4dict5typed4DictNtNtBF_4cell9HashBytesNtNtNtBF_6models5shard8LibDescrENtB5_15LibraryProvider8find_ref
FN:275,_RNvXsc_NtCsipbLpstqwUV_8tycho_vm3gasNtB5_12SimpleLibRefNtNtNtCsdL4DZEAGarf_15everscale_types4cell5slice4Load9load_from
FN:640,_RNvXsf_NtCsipbLpstqwUV_8tycho_vm3gasNtB5_11GasConsumerNtNtNtCsdL4DZEAGarf_15everscale_types4cell12cell_context11CellContext13finalize_cell
FN:649,_RNvXsf_NtCsipbLpstqwUV_8tycho_vm3gasNtB5_11GasConsumerNtNtNtCsdL4DZEAGarf_15everscale_types4cell12cell_context11CellContext13load_dyn_cell
FN:645,_RNvXsf_NtCsipbLpstqwUV_8tycho_vm3gasNtB5_11GasConsumerNtNtNtCsdL4DZEAGarf_15everscale_types4cell12cell_context11CellContext9load_cell
FN:667,_RNvXsg_NtCsipbLpstqwUV_8tycho_vm3gasNtB5_18LimitedGasConsumerNtNtNtCsdL4DZEAGarf_15everscale_types4cell12cell_context11CellContext13finalize_cell
FN:675,_RNvXsg_NtCsipbLpstqwUV_8tycho_vm3gasNtB5_18LimitedGasConsumerNtNtNtCsdL4DZEAGarf_15everscale_types4cell12cell_context11CellContext13load_dyn_cell
FN:671,_RNvXsg_NtCsipbLpstqwUV_8tycho_vm3gasNtB5_18LimitedGasConsumerNtNtNtCsdL4DZEAGarf_15everscale_types4cell12cell_context11CellContext9load_cell
FN:760,_RNvXsi_NtCsipbLpstqwUV_8tycho_vm3gasRDNtNtCsdL4DZEAGarf_15everscale_types4cell8CellImplEL_NtB5_11LoadLibrary12load_library
FN:769,_RNvXsj_NtCsipbLpstqwUV_8tycho_vm3gasNtNtNtNtCsdL4DZEAGarf_15everscale_types4cell9cell_impl2rc4CellNtB5_11LoadLibrary12load_library
FN:262,_RNCNvXININtCsipbLpstqwUV_8tycho_vm3gassb_0pEINtNtNtNtCs49Wc63s7Yx1_3std11collections4hash3map7HashMapNtNtCsdL4DZEAGarf_15everscale_types4cell9HashBytesNtNtNtB1F_6models7account9SimpleLibpENtB7_15LibraryProvider4find0B9_
FN:266,_RNCNvXININtCsipbLpstqwUV_8tycho_vm3gassb_0pEINtNtNtNtCs49Wc63s7Yx1_3std11collections4hash3map7HashMapNtNtCsdL4DZEAGarf_15everscale_types4cell9HashBytesNtNtNtB1F_6models7account9SimpleLibpENtB7_15LibraryProvider8find_ref0B9_
FN:576,_RNvMse_NtCsipbLpstqwUV_8tycho_vm3gasNtB5_11GasConsumer15missing_library
FN:478,_RNvMse_NtCsipbLpstqwUV_8tycho_vm3gasNtB5_11GasConsumer4base
FN:466,_RNvMse_NtCsipbLpstqwUV_8tycho_vm3gasNtB5_11GasConsumer6credit
FN:69,_RNvXININtCsipbLpstqwUV_8tycho_vm3gass0_0pERpNtB5_15LibraryProvider4findB7_
FN:73,_RNvXININtCsipbLpstqwUV_8tycho_vm3gass0_0pERpNtB5_15LibraryProvider8find_refB7_
FN:79,_RNvXININtCsipbLpstqwUV_8tycho_vm3gass1_0pEINtNtCscHntIWw2aYb_4core6option6OptionpENtB5_15LibraryProvider4findB7_
FN:86,_RNvXININtCsipbLpstqwUV_8tycho_vm3gass1_0pEINtNtCscHntIWw2aYb_4core6option6OptionpENtB5_15LibraryProvider8find_refB7_
FN:99,_RNvXININtCsipbLpstqwUV_8tycho_vm3gass2_0ppETppENtB5_15LibraryProvider4findB7_
FN:106,_RNvXININtCsipbLpstqwUV_8tycho_vm3gass2_0ppETppENtB5_15LibraryProvider8find_refB7_
FN:120,_RNvXININtCsipbLpstqwUV_8tycho_vm3gass3_0pppETpppENtB5_15LibraryProvider4findB7_
FN:130,_RNvXININtCsipbLpstqwUV_8tycho_vm3gass3_0pppETpppENtB5_15LibraryProvider8find_refB7_
FN:142,_RNvXININtCsipbLpstqwUV_8tycho_vm3gass4_0pEINtNtCs8f1B5igIjLM_5alloc5boxed3BoxpENtB5_15LibraryProvider4findB7_
FN:146,_RNvXININtCsipbLpstqwUV_8tycho_vm3gass4_0pEINtNtCs8f1B5igIjLM_5alloc5boxed3BoxpENtB5_15LibraryProvider8find_refB7_
FN:152,_RNvXININtCsipbLpstqwUV_8tycho_vm3gass5_0pEINtNtCs8f1B5igIjLM_5alloc2rc2RcpENtB5_15LibraryProvider4findB7_
FN:156,_RNvXININtCsipbLpstqwUV_8tycho_vm3gass5_0pEINtNtCs8f1B5igIjLM_5alloc2rc2RcpENtB5_15LibraryProvider8find_refB7_
FN:162,_RNvXININtCsipbLpstqwUV_8tycho_vm3gass6_0pEINtNtCs8f1B5igIjLM_5alloc4sync3ArcpENtB5_15LibraryProvider4findB7_
FN:166,_RNvXININtCsipbLpstqwUV_8tycho_vm3gass6_0pEINtNtCs8f1B5igIjLM_5alloc4sync3ArcpENtB5_15LibraryProvider8find_refB7_
FN:261,_RNvXININtCsipbLpstqwUV_8tycho_vm3gassb_0pEINtNtNtNtCs49Wc63s7Yx1_3std11collections4hash3map7HashMapNtNtCsdL4DZEAGarf_15everscale_types4cell9HashBytesNtNtNtB1D_6models7account9SimpleLibpENtB5_15LibraryProvider4findB7_
FN:265,_RNvXININtCsipbLpstqwUV_8tycho_vm3gassb_0pEINtNtNtNtCs49Wc63s7Yx1_3std11collections4hash3map7HashMapNtNtCsdL4DZEAGarf_15everscale_types4cell9HashBytesNtNtNtB1D_6models7account9SimpleLibpENtB5_15LibraryProvider8find_refB7_
FNDA:47097,_RNvMNtCsipbLpstqwUV_8tycho_vm3gasNtB2_9GasParams6getter
FNDA:2509357,_RINvMse_NtCsipbLpstqwUV_8tycho_vm3gasNtB6_11GasConsumer14load_cell_implNtNtNtNtCsdL4DZEAGarf_15everscale_types4cell9cell_impl2rc4CellEB8_
FNDA:956169,_RINvMse_NtCsipbLpstqwUV_8tycho_vm3gasNtB6_11GasConsumer14load_cell_implRDNtNtCsdL4DZEAGarf_15everscale_types4cell8CellImplEL_EB8_
FNDA:0,_RINvMsh_NtCsipbLpstqwUV_8tycho_vm3gasNtB6_18LimitedGasConsumer14load_cell_implNtNtNtNtCsdL4DZEAGarf_15everscale_types4cell9cell_impl2rc4CellEB8_
FNDA:755,_RINvMsh_NtCsipbLpstqwUV_8tycho_vm3gasNtB6_18LimitedGasConsumer14load_cell_implRDNtNtCsdL4DZEAGarf_15everscale_types4cell8CellImplEL_EB8_
FNDA:0,_RNCNvXsa_NtCsipbLpstqwUV_8tycho_vm3gasINtNtNtCsdL4DZEAGarf_15everscale_types4dict5typed4DictNtNtBH_4cell9HashBytesNtNtNtBH_6models5shard8LibDescrENtB7_15LibraryProvider4find0B9_
FNDA:0,_RNCNvXsa_NtCsipbLpstqwUV_8tycho_vm3gasINtNtNtCsdL4DZEAGarf_15everscale_types4dict5typed4DictNtNtBH_4cell9HashBytesNtNtNtBH_6models5shard8LibDescrENtB7_15LibraryProvider8find_ref0B9_
FNDA:47097,_RNvMNtCsipbLpstqwUV_8tycho_vm3gasNtB2_9GasParams9unlimited
FNDA:272557851,_RNvMse_NtCsipbLpstqwUV_8tycho_vm3gasNtB5_11GasConsumer11try_consume
FNDA:68350,_RNvMse_NtCsipbLpstqwUV_8tycho_vm3gasNtB5_11GasConsumer14with_libraries
FNDA:3030,_RNvMse_NtCsipbLpstqwUV_8tycho_vm3gasNtB5_11GasConsumer16consume_free_gas
FNDA:2182663,_RNvMse_NtCsipbLpstqwUV_8tycho_vm3gasNtB5_11GasConsumer18load_cell_as_slice
FNDA:0,_RNvMse_NtCsipbLpstqwUV_8tycho_vm3gasNtB5_11GasConsumer19set_missing_library
FNDA:2832655,_RNvMse_NtCsipbLpstqwUV_8tycho_vm3gasNtB5_11GasConsumer21try_consume_stack_gas
FNDA:1809335,_RNvMse_NtCsipbLpstqwUV_8tycho_vm3gasNtB5_11GasConsumer21try_consume_tuple_gas
FNDA:5053509,_RNvMse_NtCsipbLpstqwUV_8tycho_vm3gasNtB5_11GasConsumer25try_consume_exception_gas
FNDA:3747457,_RNvMse_NtCsipbLpstqwUV_8tycho_vm3gasNtB5_11GasConsumer27try_consume_stack_depth_gas
FNDA:18139479,_RNvMse_NtCsipbLpstqwUV_8tycho_vm3gasNtB5_11GasConsumer28try_consume_implicit_ret_gas
FNDA:48081,_RNvMse_NtCsipbLpstqwUV_8tycho_vm3gasNtB5_11GasConsumer30try_get_extra_balance_consumer
FNDA:11263,_RNvMse_NtCsipbLpstqwUV_8tycho_vm3gasNtB5_11GasConsumer31try_consume_check_signature_gas
FNDA:1502120,_RNvMse_NtCsipbLpstqwUV_8tycho_vm3gasNtB5_11GasConsumer31try_consume_implicit_jmpref_gas
FNDA:0,_RNvMse_NtCsipbLpstqwUV_8tycho_vm3gasNtB5_11GasConsumer3new
FNDA:768362,_RNvMse_NtCsipbLpstqwUV_8tycho_vm3gasNtB5_11GasConsumer5limit
FNDA:118144,_RNvMse_NtCsipbLpstqwUV_8tycho_vm3gasNtB5_11GasConsumer5price
FNDA:768364,_RNvMse_NtCsipbLpstqwUV_8tycho_vm3gasNtB5_11GasConsumer6derive
FNDA:315,_RNvMse_NtCsipbLpstqwUV_8tycho_vm3gasNtB5_11GasConsumer7limited
FNDA:768362,_RNvMse_NtCsipbLpstqwUV_8tycho_vm3gasNtB5_11GasConsumer7restore
FNDA:972514,_RNvMse_NtCsipbLpstqwUV_8tycho_vm3gasNtB5_11GasConsumer8consumed
FNDA:104423,_RNvMse_NtCsipbLpstqwUV_8tycho_vm3gasNtB5_11GasConsumer8set_base
FNDA:0,_RNvMse_NtCsipbLpstqwUV_8tycho_vm3gasNtB5_11GasConsumer9libraries
FNDA:768362,_RNvMse_NtCsipbLpstqwUV_8tycho_vm3gasNtB5_11GasConsumer9remaining
FNDA:104423,_RNvMse_NtCsipbLpstqwUV_8tycho_vm3gasNtB5_11GasConsumer9set_limit
FNDA:755,_RNvMsh_NtCsipbLpstqwUV_8tycho_vm3gasNtB5_18LimitedGasConsumer11try_consume
FNDA:272939459,_RNvNtCsipbLpstqwUV_8tycho_vm3gas12truncate_gas
FNDA:0,_RNvXNvXsa_NtCsipbLpstqwUV_8tycho_vm3gasINtNtNtCsdL4DZEAGarf_15everscale_types4dict5typed4DictNtNtBI_4cell9HashBytesNtNtNtBI_6models5shard8LibDescrENtB8_15LibraryProvider8find_refNtB2_11LibDescrRefNtNtB1v_5slice4Load9load_from
FNDA:0,_RNvXs7_NtCsipbLpstqwUV_8tycho_vm3gasNtB5_11NoLibrariesNtB5_15LibraryProvider4find
FNDA:0,_RNvXs7_NtCsipbLpstqwUV_8tycho_vm3gasNtB5_11NoLibrariesNtB5_15LibraryProvider8find_ref
FNDA:0,_RNvXs8_NtCsipbLpstqwUV_8tycho_vm3gasINtNtNtCsdL4DZEAGarf_15everscale_types4dict5typed4DictNtNtBF_4cell9HashBytesNtNtNtBF_6models7account9SimpleLibENtB5_15LibraryProvider4find
FNDA:0,_RNvXs8_NtCsipbLpstqwUV_8tycho_vm3gasINtNtNtCsdL4DZEAGarf_15everscale_types4dict5typed4DictNtNtBF_4cell9HashBytesNtNtNtBF_6models7account9SimpleLibENtB5_15LibraryProvider8find_ref
FNDA:0,_RNvXs9_NtCsipbLpstqwUV_8tycho_vm3gasINtNtCs8f1B5igIjLM_5alloc3vec3VecINtNtNtCsdL4DZEAGarf_15everscale_types4dict5typed4DictNtNtB1c_4cell9HashBytesNtNtNtB1c_6models7account9SimpleLibEENtB5_15LibraryProvider4find
FNDA:0,_RNvXs9_NtCsipbLpstqwUV_8tycho_vm3gasINtNtCs8f1B5igIjLM_5alloc3vec3VecINtNtNtCsdL4DZEAGarf_15everscale_types4dict5typed4DictNtNtB1c_4cell9HashBytesNtNtNtB1c_6models7account9SimpleLibEENtB5_15LibraryProvider8find_ref
FNDA:47097,_RNvXs_NtCsipbLpstqwUV_8tycho_vm3gasNtB4_9GasParamsNtNtCscHntIWw2aYb_4core7default7Default7default
FNDA:0,_RNvXsa_NtCsipbLpstqwUV_8tycho_vm3gasINtNtNtCsdL4DZEAGarf_15everscale_types4dict5typed4DictNtNtBF_4cell9HashBytesNtNtNtBF_6models5shard8LibDescrENtB5_15LibraryProvider4find
FNDA:0,_RNvXsa_NtCsipbLpstqwUV_8tycho_vm3gasINtNtNtCsdL4DZEAGarf_15everscale_types4dict5typed4DictNtNtBF_4cell9HashBytesNtNtNtBF_6models5shard8LibDescrENtB5_15LibraryProvider8find_ref
FNDA:0,_RNvXsc_NtCsipbLpstqwUV_8tycho_vm3gasNtB5_12SimpleLibRefNtNtNtCsdL4DZEAGarf_15everscale_types4cell5slice4Load9load_from
FNDA:349689,_RNvXsf_NtCsipbLpstqwUV_8tycho_vm3gasNtB5_11GasConsumerNtNtNtCsdL4DZEAGarf_15everscale_types4cell12cell_context11CellContext13finalize_cell
FNDA:956169,_RNvXsf_NtCsipbLpstqwUV_8tycho_vm3gasNtB5_11GasConsumerNtNtNtCsdL4DZEAGarf_15everscale_types4cell12cell_context11CellContext13load_dyn_cell
FNDA:326694,_RNvXsf_NtCsipbLpstqwUV_8tycho_vm3gasNtB5_11GasConsumerNtNtNtCsdL4DZEAGarf_15everscale_types4cell12cell_context11CellContext9load_cell
FNDA:0,_RNvXsg_NtCsipbLpstqwUV_8tycho_vm3gasNtB5_18LimitedGasConsumerNtNtNtCsdL4DZEAGarf_15everscale_types4cell12cell_context11CellContext13finalize_cell
FNDA:755,_RNvXsg_NtCsipbLpstqwUV_8tycho_vm3gasNtB5_18LimitedGasConsumerNtNtNtCsdL4DZEAGarf_15everscale_types4cell12cell_context11CellContext13load_dyn_cell
FNDA:0,_RNvXsg_NtCsipbLpstqwUV_8tycho_vm3gasNtB5_18LimitedGasConsumerNtNtNtCsdL4DZEAGarf_15everscale_types4cell12cell_context11CellContext9load_cell
FNDA:0,_RNvXsi_NtCsipbLpstqwUV_8tycho_vm3gasRDNtNtCsdL4DZEAGarf_15everscale_types4cell8CellImplEL_NtB5_11LoadLibrary12load_library
FNDA:0,_RNvXsj_NtCsipbLpstqwUV_8tycho_vm3gasNtNtNtNtCsdL4DZEAGarf_15everscale_types4cell9cell_impl2rc4CellNtB5_11LoadLibrary12load_library
FNDA:0,_RNCNvXININtCsipbLpstqwUV_8tycho_vm3gassb_0pEINtNtNtNtCs49Wc63s7Yx1_3std11collections4hash3map7HashMapNtNtCsdL4DZEAGarf_15everscale_types4cell9HashBytesNtNtNtB1F_6models7account9SimpleLibpENtB7_15LibraryProvider4find0B9_
FNDA:0,_RNCNvXININtCsipbLpstqwUV_8tycho_vm3gassb_0pEINtNtNtNtCs49Wc63s7Yx1_3std11collections4hash3map7HashMapNtNtCsdL4DZEAGarf_15everscale_types4cell9HashBytesNtNtNtB1F_6models7account9SimpleLibpENtB7_15LibraryProvider8find_ref0B9_
FNDA:0,_RNvMse_NtCsipbLpstqwUV_8tycho_vm3gasNtB5_11GasConsumer15missing_library
FNDA:0,_RNvMse_NtCsipbLpstqwUV_8tycho_vm3gasNtB5_11GasConsumer4base
FNDA:0,_RNvMse_NtCsipbLpstqwUV_8tycho_vm3gasNtB5_11GasConsumer6credit
FNDA:0,_RNvXININtCsipbLpstqwUV_8tycho_vm3gass0_0pERpNtB5_15LibraryProvider4findB7_
FNDA:0,_RNvXININtCsipbLpstqwUV_8tycho_vm3gass0_0pERpNtB5_15LibraryProvider8find_refB7_
FNDA:0,_RNvXININtCsipbLpstqwUV_8tycho_vm3gass1_0pEINtNtCscHntIWw2aYb_4core6option6OptionpENtB5_15LibraryProvider4findB7_
FNDA:0,_RNvXININtCsipbLpstqwUV_8tycho_vm3gass1_0pEINtNtCscHntIWw2aYb_4core6option6OptionpENtB5_15LibraryProvider8find_refB7_
FNDA:0,_RNvXININtCsipbLpstqwUV_8tycho_vm3gass2_0ppETppENtB5_15LibraryProvider4findB7_
FNDA:0,_RNvXININtCsipbLpstqwUV_8tycho_vm3gass2_0ppETppENtB5_15LibraryProvider8find_refB7_
FNDA:0,_RNvXININtCsipbLpstqwUV_8tycho_vm3gass3_0pppETpppENtB5_15LibraryProvider4findB7_
FNDA:0,_RNvXININtCsipbLpstqwUV_8tycho_vm3gass3_0pppETpppENtB5_15LibraryProvider8find_refB7_
FNDA:0,_RNvXININtCsipbLpstqwUV_8tycho_vm3gass4_0pEINtNtCs8f1B5igIjLM_5alloc5boxed3BoxpENtB5_15LibraryProvider4findB7_
FNDA:0,_RNvXININtCsipbLpstqwUV_8tycho_vm3gass4_0pEINtNtCs8f1B5igIjLM_5alloc5boxed3BoxpENtB5_15LibraryProvider8find_refB7_
FNDA:0,_RNvXININtCsipbLpstqwUV_8tycho_vm3gass5_0pEINtNtCs8f1B5igIjLM_5alloc2rc2RcpENtB5_15LibraryProvider4findB7_
FNDA:0,_RNvXININtCsipbLpstqwUV_8tycho_vm3gass5_0pEINtNtCs8f1B5igIjLM_5alloc2rc2RcpENtB5_15LibraryProvider8find_refB7_
FNDA:0,_RNvXININtCsipbLpstqwUV_8tycho_vm3gass6_0pEINtNtCs8f1B5igIjLM_5alloc4sync3ArcpENtB5_15LibraryProvider4findB7_
FNDA:0,_RNvXININtCsipbLpstqwUV_8tycho_vm3gass6_0pEINtNtCs8f1B5igIjLM_5alloc4sync3ArcpENtB5_15LibraryProvider8find_refB7_
FNDA:0,_RNvXININtCsipbLpstqwUV_8tycho_vm3gassb_0pEINtNtNtNtCs49Wc63s7Yx1_3std11collections4hash3map7HashMapNtNtCsdL4DZEAGarf_15everscale_types4cell9HashBytesNtNtNtB1D_6models7account9SimpleLibpENtB5_15LibraryProvider4findB7_
FNDA:0,_RNvXININtCsipbLpstqwUV_8tycho_vm3gassb_0pEINtNtNtNtCs49Wc63s7Yx1_3std11collections4hash3map7HashMapNtNtCsdL4DZEAGarf_15everscale_types4cell9HashBytesNtNtNtB1D_6models7account9SimpleLibpENtB5_15LibraryProvider8find_refB7_
FNF:72
FNH:32
DA:35,47097
DA:36,47097
DA:37,47097
DA:38,47097
DA:39,47097
DA:40,47097
DA:41,47097
DA:42,47097
DA:44,47097
DA:45,47097
DA:46,47097
DA:47,47097
DA:48,47097
DA:49,47097
DA:50,47097
DA:51,47097
DA:56,47097
DA:57,47097
DA:58,47097
DA:69,0
DA:70,0
DA:71,0
DA:73,0
DA:74,0
DA:75,0
DA:79,0
DA:80,0
DA:81,0
DA:82,0
DA:84,0
DA:86,0
DA:87,0
DA:88,0
DA:89,0
DA:91,0
DA:99,0
DA:100,0
DA:101,0
DA:102,0
DA:103,0
DA:104,0
DA:106,0
DA:107,0
DA:108,0
DA:109,0
DA:110,0
DA:111,0
DA:120,0
DA:121,0
DA:122,0
DA:123,0
DA:124,0
DA:125,0
DA:126,0
DA:127,0
DA:128,0
DA:130,0
DA:131,0
DA:132,0
DA:133,0
DA:134,0
DA:135,0
DA:136,0
DA:137,0
DA:138,0
DA:142,0
DA:143,0
DA:144,0
DA:146,0
DA:147,0
DA:148,0
DA:152,0
DA:153,0
DA:154,0
DA:156,0
DA:157,0
DA:158,0
DA:162,0
DA:163,0
DA:164,0
DA:166,0
DA:167,0
DA:168,0
DA:177,0
DA:178,0
DA:179,0
DA:181,0
DA:182,0
DA:183,0
DA:187,0
DA:188,0
DA:189,0
DA:190,0
DA:192,0
DA:194,0
DA:195,0
DA:196,0
DA:197,0
DA:199,0
DA:200,0
DA:202,0
DA:206,0
DA:207,0
DA:208,0
DA:209,0
DA:210,0
DA:213,0
DA:214,0
DA:216,0
DA:217,0
DA:218,0
DA:219,0
DA:220,0
DA:222,0
DA:223,0
DA:226,0
DA:227,0
DA:231,0
DA:232,0
DA:233,0
DA:235,0
DA:241,0
DA:242,0
DA:243,0
DA:244,0
DA:245,0
DA:246,0
DA:248,0
DA:253,0
DA:254,0
DA:255,0
DA:256,0
DA:257,0
DA:261,0
DA:262,0
DA:263,0
DA:265,0
DA:266,0
DA:267,0
DA:275,0
DA:276,0
DA:278,0
DA:280,0
DA:336,0
DA:339,0
DA:340,0
DA:342,68350
DA:343,68350
DA:344,68350
DA:345,68350
DA:346,68350
DA:347,68350
DA:348,68350
DA:349,68350
DA:350,68350
DA:351,68350
DA:352,68350
DA:353,68350
DA:354,68350
DA:355,68350
DA:356,68350
DA:357,68350
DA:358,68350
DA:359,68350
DA:361,315
DA:362,315
DA:363,315
DA:364,315
DA:365,315
DA:366,315
DA:369,768364
DA:372,768364
DA:374,21255
DA:378,21253
DA:379,21253
DA:382,21253
DA:383,21253
DA:384,21253
DA:385,21253
DA:386,21253
DA:387,21253
DA:388,21253
DA:389,21253
DA:390,21253
DA:391,21253
DA:392,21253
DA:393,21253
DA:394,21253
DA:395,21253
DA:396,21253
DA:397,21253
DA:398,21253
DA:402,747109
DA:403,747109
DA:406,747109
DA:407,747109
DA:408,747109
DA:409,747109
DA:410,747109
DA:411,747109
DA:412,747109
DA:413,747109
DA:414,747109
DA:415,747109
DA:416,747109
DA:417,747109
DA:418,747109
DA:419,747109
DA:420,747109
DA:421,747109
DA:422,747109
DA:423,747109
DA:424,747109
DA:425,747109
DA:426,747109
DA:428,768364
DA:430,768362
DA:431,768362
DA:432,768362
DA:433,768362
DA:434,768362
DA:436,768362
DA:437,747109
DA:438,747109
DA:439,747109
DA:441,768362
DA:442,747109
DA:444,768362
DA:445,768362
DA:446,768362
DA:447,0
DA:448,768362
DA:451,768362
DA:452,768362
DA:453,768362
DA:454,768362
DA:455,768362
DA:456,768362
DA:457,768362
DA:458,768362
DA:459,768362
DA:460,768362
DA:462,0
DA:463,0
DA:464,0
DA:466,0
DA:467,0
DA:468,0
DA:470,972514
DA:471,972514
DA:472,972514
DA:474,768362
DA:475,768362
DA:476,768362
DA:478,0
DA:479,0
DA:480,0
DA:482,768362
DA:483,768362
DA:484,768362
DA:486,104423
DA:487,104423
DA:488,104423
DA:489,104423
DA:490,104423
DA:491,104423
DA:492,104423
DA:493,104423
DA:495,104423
DA:496,104423
DA:497,104423
DA:498,104423
DA:499,104423
DA:500,104423
DA:502,118144
DA:503,118144
DA:504,118144
DA:506,48081
DA:507,48081
DA:508,48081
DA:509,48081
DA:510,315
DA:511,47766
DA:512,47766
DA:513,47766
DA:514,48081
DA:516,5053509
DA:517,5053509
DA:518,5053509
DA:520,1502120
DA:521,1502120
DA:522,1502120
DA:524,18139479
DA:525,18139479
DA:526,18139479
DA:528,11263
DA:529,11263
DA:530,11263
DA:531,8522
DA:532,2741
DA:533,2741
DA:534,2741
DA:535,11234
DA:536,11263
DA:538,2832655
DA:539,2832655
DA:540,2832655
DA:541,0
DA:542,2832445
DA:543,2832655
DA:545,1809335
DA:546,1809335
DA:547,1808653
DA:548,1809335
DA:550,3747457
DA:551,3747457
DA:552,3747457
DA:553,3747457
DA:554,3747457
DA:555,3747457
DA:557,272557851
DA:558,272557851
DA:559,272557851
DA:560,272557851
DA:561,272557851
DA:562,272557851
DA:563,272557851
DA:564,272557851
DA:565,272517019
DA:567,40832
DA:569,272557851
DA:571,3030
DA:572,3030
DA:573,3030
DA:574,3030
DA:576,0
DA:577,0
DA:578,0
DA:580,0
DA:581,0
DA:582,0
DA:584,2182663
DA:585,2182663
DA:586,2181175
DA:587,2182663
DA:589,3465526
DA:590,3465526
DA:591,3465526
DA:592,3465526
DA:593,3465526
DA:594,3465526
DA:596,3465526
DA:598,3419388
DA:599,3419388
DA:601,3419388
DA:602,137181
DA:604,3282207
DA:606,46138
DA:608,3463975
DA:609,382567
DA:610,3081408
DA:611,3081408
DA:612,3081408
DA:613,3081408
DA:614,0
DA:615,0
DA:616,0
DA:619,0
DA:620,0
DA:621,0
DA:622,0
DA:623,0
DA:625,0
DA:626,0
DA:627,0
DA:630,0
DA:631,0
DA:633,0
DA:636,3465526
DA:640,349689
DA:641,349689
DA:642,349127
DA:643,349689
DA:645,326694
DA:646,326694
DA:647,326694
DA:649,956169
DA:650,956169
DA:651,956169
DA:652,956169
DA:653,956169
DA:654,956169
DA:655,956169
DA:667,0
DA:668,0
DA:671,0
DA:672,0
DA:673,0
DA:675,755
DA:676,755
DA:677,755
DA:678,755
DA:679,755
DA:680,755
DA:681,755
DA:685,755
DA:686,755
DA:687,755
DA:688,755
DA:689,755
DA:690,755
DA:692,755
DA:694,755
DA:695,755
DA:697,755
DA:698,332
DA:700,423
DA:702,0
DA:704,755
DA:705,0
DA:706,755
DA:707,755
DA:708,755
DA:709,755
DA:710,0
DA:711,0
DA:712,0
DA:715,0
DA:716,0
DA:717,0
DA:718,0
DA:719,0
DA:721,0
DA:722,0
DA:723,0
DA:726,0
DA:727,0
DA:729,0
DA:732,755
DA:734,755
DA:735,755
DA:736,755
DA:737,755
DA:738,755
DA:739,755
DA:740,755
DA:742,755
DA:743,755
DA:744,755
DA:745,755
DA:746,755
DA:747,289
DA:748,466
DA:749,755
DA:750,755
DA:760,0
DA:761,0
DA:762,0
DA:763,0
DA:764,0
DA:765,0
DA:769,0
DA:770,0
DA:771,0
DA:772,0
DA:773,0
DA:774,0
DA:798,272939459
DA:799,272939459
DA:800,272939459
DA:802,0
DA:804,272939459
BRF:0
BRH:0
LF:476
LH:280
end_of_record
SF:/home/odm3n/dev/work/everscale-vm/vm/src/instr/arithops.rs
FN:817,_RNvMs1_NtNtCsipbLpstqwUV_8tycho_vm5instr8arithopsNtB5_9RoundMode9from_args
FN:879,_RNvNtNtCsipbLpstqwUV_8tycho_vm5instr8arithops10int_divmod
FN:913,_RNvNtNtCsipbLpstqwUV_8tycho_vm5instr8arithops10int_rshift
FN:207,_RNvNtNtCsipbLpstqwUV_8tycho_vm5instr8arithops11exec_addint
FN:255,_RNvNtNtCsipbLpstqwUV_8tycho_vm5instr8arithops11exec_divmod
FN:675,_RNvNtNtCsipbLpstqwUV_8tycho_vm5instr8arithops11exec_minmax
FN:222,_RNvNtNtCsipbLpstqwUV_8tycho_vm5instr8arithops11exec_mulint
FN:159,_RNvNtNtCsipbLpstqwUV_8tycho_vm5instr8arithops11exec_negate
FN:327,_RNvNtNtCsipbLpstqwUV_8tycho_vm5instr8arithops11exec_shrmod
FN:925,_RNvNtNtCsipbLpstqwUV_8tycho_vm5instr8arithops12int_mod_pow2
FN:39,_RNvNtNtCsipbLpstqwUV_8tycho_vm5instr8arithops13exec_push_int
FN:85,_RNvNtNtCsipbLpstqwUV_8tycho_vm5instr8arithops13exec_push_nan
FN:937,_RNvNtNtCsipbLpstqwUV_8tycho_vm5instr8arithops13int_rshiftmod
FN:412,_RNvNtNtCsipbLpstqwUV_8tycho_vm5instr8arithops14exec_muldivmod
FN:490,_RNvNtNtCsipbLpstqwUV_8tycho_vm5instr8arithops14exec_mulshrmod
FN:78,_RNvNtNtCsipbLpstqwUV_8tycho_vm5instr8arithops14exec_push_pow2
FN:582,_RNvNtNtCsipbLpstqwUV_8tycho_vm5instr8arithops14exec_shldivmod
FN:965,_RNvNtNtCsipbLpstqwUV_8tycho_vm5instr8arithops16update_or_new_rc
FN:100,_RNvNtNtCsipbLpstqwUV_8tycho_vm5instr8arithops17exec_push_negpow2
FN:91,_RNvNtNtCsipbLpstqwUV_8tycho_vm5instr8arithops17exec_push_pow2dec
FN:28,_RNvNtNtCsipbLpstqwUV_8tycho_vm5instr8arithops18exec_push_tinyint4
FN:961,_RNvNtNtCsipbLpstqwUV_8tycho_vm5instr8arithops22ceil_rounding_required
FN:948,_RNvNtNtCsipbLpstqwUV_8tycho_vm5instr8arithops25nearest_rounding_required
FN:827,_RNvNtNtCsipbLpstqwUV_8tycho_vm5instr8arithops7int_div
FN:855,_RNvNtNtCsipbLpstqwUV_8tycho_vm5instr8arithops7int_mod
FN:706,_RNvNtNtCsipbLpstqwUV_8tycho_vm5instr8arithops8exec_abs
FN:108,_RNvNtNtCsipbLpstqwUV_8tycho_vm5instr8arithops8exec_add
FN:192,_RNvNtNtCsipbLpstqwUV_8tycho_vm5instr8arithops8exec_dec
FN:177,_RNvNtNtCsipbLpstqwUV_8tycho_vm5instr8arithops8exec_inc
FN:237,_RNvNtNtCsipbLpstqwUV_8tycho_vm5instr8arithops8exec_mul
FN:125,_RNvNtNtCsipbLpstqwUV_8tycho_vm5instr8arithops8exec_sub
FN:142,_RNvNtNtCsipbLpstqwUV_8tycho_vm5instr8arithops9exec_subr
FN:21,_RNvNvXs3_NtNtCsipbLpstqwUV_8tycho_vm5instr8arithopsNtB7_8ArithOpsNtB9_6Module4init16exec_abs_wrapper
FN:21,_RNvNvXs3_NtNtCsipbLpstqwUV_8tycho_vm5instr8arithopsNtB7_8ArithOpsNtB9_6Module4init16exec_add_wrapper
FN:21,_RNvNvXs3_NtNtCsipbLpstqwUV_8tycho_vm5instr8arithopsNtB7_8ArithOpsNtB9_6Module4init16exec_dec_wrapper
FN:21,_RNvNvXs3_NtNtCsipbLpstqwUV_8tycho_vm5instr8arithopsNtB7_8ArithOpsNtB9_6Module4init16exec_inc_wrapper
FN:21,_RNvNvXs3_NtNtCsipbLpstqwUV_8tycho_vm5instr8arithopsNtB7_8ArithOpsNtB9_6Module4init16exec_mul_wrapper
FN:21,_RNvNvXs3_NtNtCsipbLpstqwUV_8tycho_vm5instr8arithopsNtB7_8ArithOpsNtB9_6Module4init16exec_sub_wrapper
FN:21,_RNvNvXs3_NtNtCsipbLpstqwUV_8tycho_vm5instr8arithopsNtB7_8ArithOpsNtB9_6Module4init17exec_subr_wrapper
FN:21,_RNvNvXs3_NtNtCsipbLpstqwUV_8tycho_vm5instr8arithopsNtB7_8ArithOpsNtB9_6Module4init19exec_addint_wrapper
FN:21,_RNvNvXs3_NtNtCsipbLpstqwUV_8tycho_vm5instr8arithopsNtB7_8ArithOpsNtB9_6Module4init19exec_divmod_wrapper
FN:21,_RNvNvXs3_NtNtCsipbLpstqwUV_8tycho_vm5instr8arithopsNtB7_8ArithOpsNtB9_6Module4init19exec_minmax_wrapper
FN:21,_RNvNvXs3_NtNtCsipbLpstqwUV_8tycho_vm5instr8arithopsNtB7_8ArithOpsNtB9_6Module4init19exec_mulint_wrapper
FN:21,_RNvNvXs3_NtNtCsipbLpstqwUV_8tycho_vm5instr8arithopsNtB7_8ArithOpsNtB9_6Module4init19exec_negate_wrapper
FN:21,_RNvNvXs3_NtNtCsipbLpstqwUV_8tycho_vm5instr8arithopsNtB7_8ArithOpsNtB9_6Module4init19exec_shrmod_wrapper
FN:21,_RNvNvXs3_NtNtCsipbLpstqwUV_8tycho_vm5instr8arithopsNtB7_8ArithOpsNtB9_6Module4init21exec_push_nan_wrapper
FN:21,_RNvNvXs3_NtNtCsipbLpstqwUV_8tycho_vm5instr8arithopsNtB7_8ArithOpsNtB9_6Module4init22exec_muldivmod_wrapper
FN:21,_RNvNvXs3_NtNtCsipbLpstqwUV_8tycho_vm5instr8arithopsNtB7_8ArithOpsNtB9_6Module4init22exec_mulshrmod_wrapper
FN:21,_RNvNvXs3_NtNtCsipbLpstqwUV_8tycho_vm5instr8arithopsNtB7_8ArithOpsNtB9_6Module4init22exec_push_pow2_wrapper
FN:21,_RNvNvXs3_NtNtCsipbLpstqwUV_8tycho_vm5instr8arithopsNtB7_8ArithOpsNtB9_6Module4init22exec_shldivmod_wrapper
FN:21,_RNvNvXs3_NtNtCsipbLpstqwUV_8tycho_vm5instr8arithopsNtB7_8ArithOpsNtB9_6Module4init25exec_push_negpow2_wrapper
FN:21,_RNvNvXs3_NtNtCsipbLpstqwUV_8tycho_vm5instr8arithopsNtB7_8ArithOpsNtB9_6Module4init25exec_push_pow2dec_wrapper
FN:21,_RNvNvXs3_NtNtCsipbLpstqwUV_8tycho_vm5instr8arithopsNtB7_8ArithOpsNtB9_6Module4init26exec_push_tinyint4_wrapper
FN:21,_RNvNvXs3_NtNtCsipbLpstqwUV_8tycho_vm5instr8arithopsNtB7_8ArithOpsNtB9_6Module4inits0_19exec_minmax_wrapper
FN:21,_RNvNvXs3_NtNtCsipbLpstqwUV_8tycho_vm5instr8arithopsNtB7_8ArithOpsNtB9_6Module4inits0_19exec_shrmod_wrapper
FN:21,_RNvNvXs3_NtNtCsipbLpstqwUV_8tycho_vm5instr8arithopsNtB7_8ArithOpsNtB9_6Module4inits0_22exec_mulshrmod_wrapper
FN:21,_RNvNvXs3_NtNtCsipbLpstqwUV_8tycho_vm5instr8arithopsNtB7_8ArithOpsNtB9_6Module4inits0_22exec_shldivmod_wrapper
FN:21,_RNvNvXs3_NtNtCsipbLpstqwUV_8tycho_vm5instr8arithopsNtB7_8ArithOpsNtB9_6Module4inits0_26exec_push_tinyint4_wrapper
FN:21,_RNvNvXs3_NtNtCsipbLpstqwUV_8tycho_vm5instr8arithopsNtB7_8ArithOpsNtB9_6Module4inits1_19exec_minmax_wrapper
FN:21,_RNvNvXs3_NtNtCsipbLpstqwUV_8tycho_vm5instr8arithopsNtB7_8ArithOpsNtB9_6Module4inits2_19exec_minmax_wrapper
FN:21,_RNvNvXs3_NtNtCsipbLpstqwUV_8tycho_vm5instr8arithopsNtB7_8ArithOpsNtB9_6Module4inits3_19exec_minmax_wrapper
FN:21,_RNvNvXs3_NtNtCsipbLpstqwUV_8tycho_vm5instr8arithopsNtB7_8ArithOpsNtB9_6Module4inits_16exec_abs_wrapper
FN:21,_RNvNvXs3_NtNtCsipbLpstqwUV_8tycho_vm5instr8arithopsNtB7_8ArithOpsNtB9_6Module4inits_16exec_add_wrapper
FN:21,_RNvNvXs3_NtNtCsipbLpstqwUV_8tycho_vm5instr8arithopsNtB7_8ArithOpsNtB9_6Module4inits_16exec_dec_wrapper
FN:21,_RNvNvXs3_NtNtCsipbLpstqwUV_8tycho_vm5instr8arithopsNtB7_8ArithOpsNtB9_6Module4inits_16exec_inc_wrapper
FN:21,_RNvNvXs3_NtNtCsipbLpstqwUV_8tycho_vm5instr8arithopsNtB7_8ArithOpsNtB9_6Module4inits_16exec_mul_wrapper
FN:21,_RNvNvXs3_NtNtCsipbLpstqwUV_8tycho_vm5instr8arithopsNtB7_8ArithOpsNtB9_6Module4inits_16exec_sub_wrapper
FN:21,_RNvNvXs3_NtNtCsipbLpstqwUV_8tycho_vm5instr8arithopsNtB7_8ArithOpsNtB9_6Module4inits_17exec_subr_wrapper
FN:21,_RNvNvXs3_NtNtCsipbLpstqwUV_8tycho_vm5instr8arithopsNtB7_8ArithOpsNtB9_6Module4inits_19exec_addint_wrapper
FN:21,_RNvNvXs3_NtNtCsipbLpstqwUV_8tycho_vm5instr8arithopsNtB7_8ArithOpsNtB9_6Module4inits_19exec_divmod_wrapper
FN:21,_RNvNvXs3_NtNtCsipbLpstqwUV_8tycho_vm5instr8arithopsNtB7_8ArithOpsNtB9_6Module4inits_19exec_minmax_wrapper
FN:21,_RNvNvXs3_NtNtCsipbLpstqwUV_8tycho_vm5instr8arithopsNtB7_8ArithOpsNtB9_6Module4inits_19exec_mulint_wrapper
FN:21,_RNvNvXs3_NtNtCsipbLpstqwUV_8tycho_vm5instr8arithopsNtB7_8ArithOpsNtB9_6Module4inits_19exec_negate_wrapper
FN:21,_RNvNvXs3_NtNtCsipbLpstqwUV_8tycho_vm5instr8arithopsNtB7_8ArithOpsNtB9_6Module4inits_19exec_shrmod_wrapper
FN:21,_RNvNvXs3_NtNtCsipbLpstqwUV_8tycho_vm5instr8arithopsNtB7_8ArithOpsNtB9_6Module4inits_22exec_muldivmod_wrapper
FN:21,_RNvNvXs3_NtNtCsipbLpstqwUV_8tycho_vm5instr8arithopsNtB7_8ArithOpsNtB9_6Module4inits_22exec_mulshrmod_wrapper
FN:21,_RNvNvXs3_NtNtCsipbLpstqwUV_8tycho_vm5instr8arithopsNtB7_8ArithOpsNtB9_6Module4inits_22exec_shldivmod_wrapper
FN:21,_RNvNvXs3_NtNtCsipbLpstqwUV_8tycho_vm5instr8arithopsNtB7_8ArithOpsNtB9_6Module4inits_26exec_push_tinyint4_wrapper
FN:726,_RNvXNtNtCsipbLpstqwUV_8tycho_vm5instr8arithopsNtB2_10DumpDivmodNtNtCscHntIWw2aYb_4core3fmt7Display3fmt
FN:779,_RNvXs0_NtNtCsipbLpstqwUV_8tycho_vm5instr8arithopsNtB5_7DumpShlNtNtCscHntIWw2aYb_4core3fmt7Display3fmt
FN:745,_RNvXs_NtNtCsipbLpstqwUV_8tycho_vm5instr8arithopsNtB4_7DumpShrNtNtCscHntIWw2aYb_4core3fmt7Display3fmt
FNDA:1490033,_RNvMs1_NtNtCsipbLpstqwUV_8tycho_vm5instr8arithopsNtB5_9RoundMode9from_args
FNDA:449707,_RNvNtNtCsipbLpstqwUV_8tycho_vm5instr8arithops10int_divmod
FNDA:35848,_RNvNtNtCsipbLpstqwUV_8tycho_vm5instr8arithops10int_rshift
FNDA:758678,_RNvNtNtCsipbLpstqwUV_8tycho_vm5instr8arithops11exec_addint
FNDA:564497,_RNvNtNtCsipbLpstqwUV_8tycho_vm5instr8arithops11exec_divmod
FNDA:127940,_RNvNtNtCsipbLpstqwUV_8tycho_vm5instr8arithops11exec_minmax
FNDA:373585,_RNvNtNtCsipbLpstqwUV_8tycho_vm5instr8arithops11exec_mulint
FNDA:275764,_RNvNtNtCsipbLpstqwUV_8tycho_vm5instr8arithops11exec_negate
FNDA:270828,_RNvNtNtCsipbLpstqwUV_8tycho_vm5instr8arithops11exec_shrmod
FNDA:116130,_RNvNtNtCsipbLpstqwUV_8tycho_vm5instr8arithops12int_mod_pow2
FNDA:771595,_RNvNtNtCsipbLpstqwUV_8tycho_vm5instr8arithops13exec_push_int
FNDA:128662,_RNvNtNtCsipbLpstqwUV_8tycho_vm5instr8arithops13exec_push_nan
FNDA:240047,_RNvNtNtCsipbLpstqwUV_8tycho_vm5instr8arithops13int_rshiftmod
FNDA:274921,_RNvNtNtCsipbLpstqwUV_8tycho_vm5instr8arithops14exec_muldivmod
FNDA:221751,_RNvNtNtCsipbLpstqwUV_8tycho_vm5instr8arithops14exec_mulshrmod
FNDA:561030,_RNvNtNtCsipbLpstqwUV_8tycho_vm5instr8arithops14exec_push_pow2
FNDA:158036,_RNvNtNtCsipbLpstqwUV_8tycho_vm5instr8arithops14exec_shldivmod
FNDA:1371387,_RNvNtNtCsipbLpstqwUV_8tycho_vm5instr8arithops16update_or_new_rc
FNDA:514939,_RNvNtNtCsipbLpstqwUV_8tycho_vm5instr8arithops17exec_push_negpow2
FNDA:1132424,_RNvNtNtCsipbLpstqwUV_8tycho_vm5instr8arithops17exec_push_pow2dec
FNDA:31973602,_RNvNtNtCsipbLpstqwUV_8tycho_vm5instr8arithops18exec_push_tinyint4
FNDA:199206,_RNvNtNtCsipbLpstqwUV_8tycho_vm5instr8arithops22ceil_rounding_required
FNDA:193899,_RNvNtNtCsipbLpstqwUV_8tycho_vm5instr8arithops25nearest_rounding_required
FNDA:136542,_RNvNtNtCsipbLpstqwUV_8tycho_vm5instr8arithops7int_div
FNDA:230520,_RNvNtNtCsipbLpstqwUV_8tycho_vm5instr8arithops7int_mod
FNDA:44588,_RNvNtNtCsipbLpstqwUV_8tycho_vm5instr8arithops8exec_abs
FNDA:573660,_RNvNtNtCsipbLpstqwUV_8tycho_vm5instr8arithops8exec_add
FNDA:449362,_RNvNtNtCsipbLpstqwUV_8tycho_vm5instr8arithops8exec_dec
FNDA:588442,_RNvNtNtCsipbLpstqwUV_8tycho_vm5instr8arithops8exec_inc
FNDA:597766,_RNvNtNtCsipbLpstqwUV_8tycho_vm5instr8arithops8exec_mul
FNDA:305893,_RNvNtNtCsipbLpstqwUV_8tycho_vm5instr8arithops8exec_sub
FNDA:446540,_RNvNtNtCsipbLpstqwUV_8tycho_vm5instr8arithops9exec_subr
FNDA:27429,_RNvNvXs3_NtNtCsipbLpstqwUV_8tycho_vm5instr8arithopsNtB7_8ArithOpsNtB9_6Module4init16exec_abs_wrapper
FNDA:520837,_RNvNvXs3_NtNtCsipbLpstqwUV_8tycho_vm5instr8arithopsNtB7_8ArithOpsNtB9_6Module4init16exec_add_wrapper
FNDA:392065,_RNvNvXs3_NtNtCsipbLpstqwUV_8tycho_vm5instr8arithopsNtB7_8ArithOpsNtB9_6Module4init16exec_dec_wrapper
FNDA:581464,_RNvNvXs3_NtNtCsipbLpstqwUV_8tycho_vm5instr8arithopsNtB7_8ArithOpsNtB9_6Module4init16exec_inc_wrapper
FNDA:530908,_RNvNvXs3_NtNtCsipbLpstqwUV_8tycho_vm5instr8arithopsNtB7_8ArithOpsNtB9_6Module4init16exec_mul_wrapper
FNDA:271557,_RNvNvXs3_NtNtCsipbLpstqwUV_8tycho_vm5instr8arithopsNtB7_8ArithOpsNtB9_6Module4init16exec_sub_wrapper
FNDA:410818,_RNvNvXs3_NtNtCsipbLpstqwUV_8tycho_vm5instr8arithopsNtB7_8ArithOpsNtB9_6Module4init17exec_subr_wrapper
FNDA:744542,_RNvNvXs3_NtNtCsipbLpstqwUV_8tycho_vm5instr8arithopsNtB7_8ArithOpsNtB9_6Module4init19exec_addint_wrapper
FNDA:307873,_RNvNvXs3_NtNtCsipbLpstqwUV_8tycho_vm5instr8arithopsNtB7_8ArithOpsNtB9_6Module4init19exec_divmod_wrapper
FNDA:9152,_RNvNvXs3_NtNtCsipbLpstqwUV_8tycho_vm5instr8arithopsNtB7_8ArithOpsNtB9_6Module4init19exec_minmax_wrapper
FNDA:240737,_RNvNvXs3_NtNtCsipbLpstqwUV_8tycho_vm5instr8arithopsNtB7_8ArithOpsNtB9_6Module4init19exec_mulint_wrapper
FNDA:244468,_RNvNvXs3_NtNtCsipbLpstqwUV_8tycho_vm5instr8arithopsNtB7_8ArithOpsNtB9_6Module4init19exec_negate_wrapper
FNDA:98658,_RNvNvXs3_NtNtCsipbLpstqwUV_8tycho_vm5instr8arithopsNtB7_8ArithOpsNtB9_6Module4init19exec_shrmod_wrapper
FNDA:128662,_RNvNvXs3_NtNtCsipbLpstqwUV_8tycho_vm5instr8arithopsNtB7_8ArithOpsNtB9_6Module4init21exec_push_nan_wrapper
FNDA:191080,_RNvNvXs3_NtNtCsipbLpstqwUV_8tycho_vm5instr8arithopsNtB7_8ArithOpsNtB9_6Module4init22exec_muldivmod_wrapper
FNDA:161349,_RNvNvXs3_NtNtCsipbLpstqwUV_8tycho_vm5instr8arithopsNtB7_8ArithOpsNtB9_6Module4init22exec_mulshrmod_wrapper
FNDA:561030,_RNvNvXs3_NtNtCsipbLpstqwUV_8tycho_vm5instr8arithopsNtB7_8ArithOpsNtB9_6Module4init22exec_push_pow2_wrapper
FNDA:45859,_RNvNvXs3_NtNtCsipbLpstqwUV_8tycho_vm5instr8arithopsNtB7_8ArithOpsNtB9_6Module4init22exec_shldivmod_wrapper
FNDA:514939,_RNvNvXs3_NtNtCsipbLpstqwUV_8tycho_vm5instr8arithopsNtB7_8ArithOpsNtB9_6Module4init25exec_push_negpow2_wrapper
FNDA:1132424,_RNvNvXs3_NtNtCsipbLpstqwUV_8tycho_vm5instr8arithopsNtB7_8ArithOpsNtB9_6Module4init25exec_push_pow2dec_wrapper
FNDA:29088484,_RNvNvXs3_NtNtCsipbLpstqwUV_8tycho_vm5instr8arithopsNtB7_8ArithOpsNtB9_6Module4init26exec_push_tinyint4_wrapper
FNDA:29953,_RNvNvXs3_NtNtCsipbLpstqwUV_8tycho_vm5instr8arithopsNtB7_8ArithOpsNtB9_6Module4inits0_19exec_minmax_wrapper
FNDA:42388,_RNvNvXs3_NtNtCsipbLpstqwUV_8tycho_vm5instr8arithopsNtB7_8ArithOpsNtB9_6Module4inits0_19exec_shrmod_wrapper
FNDA:20318,_RNvNvXs3_NtNtCsipbLpstqwUV_8tycho_vm5instr8arithopsNtB7_8ArithOpsNtB9_6Module4inits0_22exec_mulshrmod_wrapper
FNDA:29236,_RNvNvXs3_NtNtCsipbLpstqwUV_8tycho_vm5instr8arithopsNtB7_8ArithOpsNtB9_6Module4inits0_22exec_shldivmod_wrapper
FNDA:460857,_RNvNvXs3_NtNtCsipbLpstqwUV_8tycho_vm5instr8arithopsNtB7_8ArithOpsNtB9_6Module4inits0_26exec_push_tinyint4_wrapper
FNDA:3968,_RNvNvXs3_NtNtCsipbLpstqwUV_8tycho_vm5instr8arithopsNtB7_8ArithOpsNtB9_6Module4inits1_19exec_minmax_wrapper
FNDA:4042,_RNvNvXs3_NtNtCsipbLpstqwUV_8tycho_vm5instr8arithopsNtB7_8ArithOpsNtB9_6Module4inits2_19exec_minmax_wrapper
FNDA:70804,_RNvNvXs3_NtNtCsipbLpstqwUV_8tycho_vm5instr8arithopsNtB7_8ArithOpsNtB9_6Module4inits3_19exec_minmax_wrapper
FNDA:17159,_RNvNvXs3_NtNtCsipbLpstqwUV_8tycho_vm5instr8arithopsNtB7_8ArithOpsNtB9_6Module4inits_16exec_abs_wrapper
FNDA:52823,_RNvNvXs3_NtNtCsipbLpstqwUV_8tycho_vm5instr8arithopsNtB7_8ArithOpsNtB9_6Module4inits_16exec_add_wrapper
FNDA:57297,_RNvNvXs3_NtNtCsipbLpstqwUV_8tycho_vm5instr8arithopsNtB7_8ArithOpsNtB9_6Module4inits_16exec_dec_wrapper
FNDA:6978,_RNvNvXs3_NtNtCsipbLpstqwUV_8tycho_vm5instr8arithopsNtB7_8ArithOpsNtB9_6Module4inits_16exec_inc_wrapper
FNDA:66858,_RNvNvXs3_NtNtCsipbLpstqwUV_8tycho_vm5instr8arithopsNtB7_8ArithOpsNtB9_6Module4inits_16exec_mul_wrapper
FNDA:34336,_RNvNvXs3_NtNtCsipbLpstqwUV_8tycho_vm5instr8arithopsNtB7_8ArithOpsNtB9_6Module4inits_16exec_sub_wrapper
FNDA:35722,_RNvNvXs3_NtNtCsipbLpstqwUV_8tycho_vm5instr8arithopsNtB7_8ArithOpsNtB9_6Module4inits_17exec_subr_wrapper
FNDA:14136,_RNvNvXs3_NtNtCsipbLpstqwUV_8tycho_vm5instr8arithopsNtB7_8ArithOpsNtB9_6Module4inits_19exec_addint_wrapper
FNDA:256624,_RNvNvXs3_NtNtCsipbLpstqwUV_8tycho_vm5instr8arithopsNtB7_8ArithOpsNtB9_6Module4inits_19exec_divmod_wrapper
FNDA:10021,_RNvNvXs3_NtNtCsipbLpstqwUV_8tycho_vm5instr8arithopsNtB7_8ArithOpsNtB9_6Module4inits_19exec_minmax_wrapper
FNDA:132848,_RNvNvXs3_NtNtCsipbLpstqwUV_8tycho_vm5instr8arithopsNtB7_8ArithOpsNtB9_6Module4inits_19exec_mulint_wrapper
FNDA:31296,_RNvNvXs3_NtNtCsipbLpstqwUV_8tycho_vm5instr8arithopsNtB7_8ArithOpsNtB9_6Module4inits_19exec_negate_wrapper
FNDA:129782,_RNvNvXs3_NtNtCsipbLpstqwUV_8tycho_vm5instr8arithopsNtB7_8ArithOpsNtB9_6Module4inits_19exec_shrmod_wrapper
FNDA:83841,_RNvNvXs3_NtNtCsipbLpstqwUV_8tycho_vm5instr8arithopsNtB7_8ArithOpsNtB9_6Module4inits_22exec_muldivmod_wrapper
FNDA:40084,_RNvNvXs3_NtNtCsipbLpstqwUV_8tycho_vm5instr8arithopsNtB7_8ArithOpsNtB9_6Module4inits_22exec_mulshrmod_wrapper
FNDA:82941,_RNvNvXs3_NtNtCsipbLpstqwUV_8tycho_vm5instr8arithopsNtB7_8ArithOpsNtB9_6Module4inits_22exec_shldivmod_wrapper
FNDA:2424261,_RNvNvXs3_NtNtCsipbLpstqwUV_8tycho_vm5instr8arithopsNtB7_8ArithOpsNtB9_6Module4inits_26exec_push_tinyint4_wrapper
FNDA:0,_RNvXNtNtCsipbLpstqwUV_8tycho_vm5instr8arithopsNtB2_10DumpDivmodNtNtCscHntIWw2aYb_4core3fmt7Display3fmt
FNDA:0,_RNvXs0_NtNtCsipbLpstqwUV_8tycho_vm5instr8arithopsNtB5_7DumpShlNtNtCscHntIWw2aYb_4core3fmt7Display3fmt
FNDA:0,_RNvXs_NtNtCsipbLpstqwUV_8tycho_vm5instr8arithopsNtB4_7DumpShrNtNtCscHntIWw2aYb_4core3fmt7Display3fmt
FNF:36
FNH:33
DA:21,40342908
DA:28,31973602
DA:29,31973602
DA:30,31973602
DA:31,31973602
DA:39,771595
DA:40,771595
DA:41,771595
DA:42,771595
DA:43,771595
DA:44,771595
DA:45,771595
DA:46,768878
DA:47,768878
DA:48,768878
DA:49,768878
DA:50,768878
DA:51,768878
DA:52,768878
DA:54,768878
DA:55,768878
DA:56,771595
DA:78,561030
DA:79,561030
DA:80,561030
DA:81,561030
DA:82,561030
DA:85,128662
DA:86,128662
DA:87,128662
DA:88,128662
DA:91,1132424
DA:92,1132424
DA:93,1132424
DA:94,1132424
DA:95,1132424
DA:96,1132424
DA:97,1132424
DA:100,514939
DA:101,514939
DA:102,514939
DA:103,514939
DA:108,573660
DA:109,573660
DA:110,573660
DA:111,572740
DA:112,547956
DA:113,501600
DA:114,501600
DA:115,501600
DA:117,42392
DA:118,3964
DA:120,542459
DA:121,573660
DA:125,305893
DA:126,305893
DA:127,305893
DA:128,303880
DA:129,299488
DA:130,278100
DA:131,278100
DA:132,278100
DA:134,17025
DA:135,4363
DA:137,294537
DA:138,305893
DA:142,446540
DA:143,446540
DA:144,446540
DA:145,446294
DA:146,429885
DA:147,393808
DA:148,393808
DA:149,393808
DA:151,29740
DA:152,6337
DA:154,421969
DA:155,446540
DA:159,275764
DA:160,275764
DA:161,275764
DA:162,262713
DA:163,262713
DA:164,262713
DA:165,262713
DA:166,262713
DA:167,262713
DA:169,9852
DA:170,1945
DA:172,272213
DA:173,275764
DA:177,588442
DA:178,588442
DA:179,588442
DA:180,576451
DA:181,576451
DA:182,576451
DA:184,4134
DA:185,6106
DA:187,580325
DA:188,588442
DA:192,449362
DA:193,449362
DA:194,449362
DA:195,424036
DA:196,424036
DA:197,424036
DA:199,19895
DA:200,550
DA:202,441539
DA:203,449362
DA:207,758678
DA:208,758678
DA:209,758678
DA:210,750797
DA:211,750797
DA:212,750797
DA:214,2809
DA:215,997
DA:217,752073
DA:218,758678
DA:222,373585
DA:223,373585
DA:224,373585
DA:225,263562
DA:226,263562
DA:227,263562
DA:229,106611
DA:230,251
DA:232,369342
DA:233,373585
DA:237,597766
DA:238,597766
DA:239,597766
DA:240,595151
DA:241,573614
DA:242,523075
DA:243,523075
DA:244,523075
DA:246,46029
DA:247,4510
DA:249,567977
DA:250,597766
DA:255,564497
DA:262,564497
DA:263,564217
DA:264,564217
DA:265,259929
DA:266,259929
DA:267,259929
DA:269,51496
DA:270,218754
DA:271,34038
DA:272,0
DA:275,564217
DA:277,564217
DA:278,562230
DA:279,258410
DA:281,303820
DA:283,557941
DA:285,547196
DA:286,409722
DA:288,51414
DA:289,51414
DA:292,93888
DA:293,93888
DA:296,202548
DA:297,4828
DA:298,164619
DA:299,4227
DA:300,4227
DA:301,4227
DA:302,4227
DA:304,601
DA:306,33101
DA:308,197720
DA:309,197720
DA:310,197495
DA:313,189317
DA:314,189317
DA:315,189317
DA:316,66307
DA:317,123010
DA:319,10029
DA:321,523234
DA:322,564497
DA:327,270828
DA:334,270828
DA:335,129782
DA:336,129782
DA:337,129782
DA:339,141046
DA:342,270828
DA:343,270612
DA:344,270612
DA:345,151619
DA:346,151619
DA:347,151619
DA:349,15143
DA:350,50599
DA:351,53251
DA:352,0
DA:355,270612
DA:356,270612
DA:357,129719
DA:358,140893
DA:361,266329
DA:362,16762
DA:363,249567
DA:364,266329
DA:365,149684
DA:367,116645
DA:370,263668
DA:371,206427
DA:373,12739
DA:374,12739
DA:377,50295
DA:378,50295
DA:381,143393
DA:382,5211
DA:383,87316
DA:384,4145
DA:385,4145
DA:386,4145
DA:387,4145
DA:389,1066
DA:391,50866
DA:393,138182
DA:394,138182
DA:395,137445
DA:398,27385
DA:399,27385
DA:400,27385
DA:401,25005
DA:402,2380
DA:404,9793
DA:407,227101
DA:408,270828
DA:412,274921
DA:420,274921
DA:421,274639
DA:422,274639
DA:423,118558
DA:424,118558
DA:425,118558
DA:427,51371
DA:428,79969
DA:429,24741
DA:430,0
DA:433,274639
DA:435,274639
DA:436,273584
DA:437,118264
DA:439,155320
DA:441,273305
DA:442,272898
DA:444,248710
DA:445,209743
DA:446,169877
DA:447,169877
DA:448,169877
DA:450,34213
DA:451,34213
DA:454,48631
DA:455,48631
DA:458,87033
DA:459,3407
DA:460,67408
DA:461,2308
DA:462,2308
DA:463,2308
DA:464,2308
DA:466,1099
DA:468,16218
DA:470,83626
DA:471,83626
DA:472,81780
DA:476,65473
DA:477,65473
DA:478,65473
DA:479,41927
DA:480,23546
DA:482,13360
DA:484,228032
DA:485,274921
DA:490,221751
DA:497,221751
DA:498,40084
DA:499,40084
DA:500,40084
DA:502,181667
DA:505,221751
DA:506,219917
DA:507,219917
DA:508,115481
DA:509,115481
DA:510,115481
DA:512,26435
DA:513,75639
DA:514,2362
DA:515,0
DA:518,219917
DA:519,219917
DA:520,40030
DA:521,179887
DA:524,219555
DA:525,48943
DA:526,170612
DA:527,219555
DA:528,115460
DA:530,104095
DA:533,217371
DA:534,214886
DA:535,210670
DA:536,193212
DA:537,193212
DA:538,193212
DA:539,193212
DA:541,23109
DA:542,23109
DA:545,65835
DA:546,65835
DA:549,104268
DA:550,2403
DA:551,99735
DA:552,2086
DA:553,2086
DA:554,2086
DA:555,2086
DA:557,317
DA:559,2130
DA:561,101865
DA:562,101865
DA:563,101473
DA:567,10898
DA:568,10898
DA:569,10898
DA:570,4384
DA:571,6514
DA:573,6560
DA:576,200828
DA:577,221751
DA:582,158036
DA:589,158036
DA:590,82941
DA:591,82941
DA:592,82941
DA:594,75095
DA:597,158036
DA:598,157483
DA:599,157483
DA:600,42136
DA:601,42136
DA:602,42136
DA:604,27867
DA:605,22414
DA:606,65066
DA:607,0
DA:610,157483
DA:611,157483
DA:612,82865
DA:613,74618
DA:616,157218
DA:617,156960
DA:618,41883
DA:620,115077
DA:622,146130
DA:624,139627
DA:625,132550
DA:626,118272
DA:627,118272
DA:628,118272
DA:630,26970
DA:631,26970
DA:634,10200
DA:635,10200
DA:638,81102
DA:639,4007
DA:640,17405
DA:641,3643
DA:642,3643
DA:643,3643
DA:644,3643
DA:646,364
DA:648,59690
DA:650,77095
DA:651,77095
DA:652,76330
DA:656,17246
DA:657,17246
DA:658,17246
DA:659,6780
DA:660,10466
DA:662,4109
DA:664,129410
DA:665,158036
DA:675,127940
DA:676,127940
DA:677,127940
DA:678,126393
DA:679,114406
DA:680,78314
DA:681,78314
DA:682,13282
DA:683,65032
DA:684,78314
DA:685,64521
DA:686,13793
DA:687,78314
DA:688,67194
DA:689,11120
DA:691,34514
DA:692,34514
DA:693,34265
DA:694,249
DA:695,34514
DA:696,34260
DA:697,254
DA:699,1578
DA:701,112828
DA:702,127940
DA:706,44588
DA:707,44588
DA:708,44588
DA:709,37499
DA:710,37499
DA:711,7172
DA:712,7172
DA:713,30327
DA:714,37499
DA:716,4916
DA:717,1077
DA:719,37728
DA:720,44588
DA:726,0
DA:727,0
DA:728,0
DA:729,0
DA:730,0
DA:731,0
DA:732,0
DA:733,0
DA:734,0
DA:735,0
DA:736,0
DA:737,0
DA:739,0
DA:745,0
DA:746,0
DA:747,0
DA:748,0
DA:749,0
DA:750,0
DA:752,0
DA:755,0
DA:756,0
DA:757,0
DA:758,0
DA:759,0
DA:760,0
DA:762,0
DA:763,0
DA:764,0
DA:765,0
DA:768,0
DA:769,0
DA:771,0
DA:773,0
DA:779,0
DA:780,0
DA:781,0
DA:782,0
DA:783,0
DA:784,0
DA:786,0
DA:789,0
DA:790,0
DA:791,0
DA:792,0
DA:793,0
DA:794,0
DA:796,0
DA:797,0
DA:798,0
DA:799,0
DA:802,0
DA:803,0
DA:805,0
DA:807,0
DA:817,1490033
DA:818,1490033
DA:819,890071
DA:820,265536
DA:821,331261
DA:822,3165
DA:824,1490033
DA:827,136542
DA:828,136542
DA:829,66288
DA:831,41044
DA:832,41044
DA:833,3260
DA:834,2444
DA:835,2444
DA:836,816
DA:837,816
DA:838,37784
DA:839,41044
DA:842,29210
DA:843,29210
DA:844,4166
DA:845,4166
DA:846,4166
DA:847,0
DA:848,0
DA:849,25044
DA:850,29210
DA:853,136542
DA:855,230520
DA:856,230520
DA:857,95781
DA:859,49794
DA:860,49794
DA:861,15839
DA:862,10728
DA:863,10728
DA:864,5111
DA:865,5111
DA:866,33955
DA:867,49794
DA:870,84945
DA:871,84945
DA:872,28182
DA:873,56763
DA:874,84945
DA:877,230520
DA:879,449707
DA:880,449707
DA:881,261595
DA:883,103061
DA:884,103061
DA:885,15450
DA:886,14432
DA:887,14432
DA:888,1018
DA:889,1018
DA:890,15450
DA:891,14432
DA:892,14432
DA:893,1018
DA:894,1018
DA:895,87611
DA:896,103061
DA:899,85051
DA:900,85051
DA:901,54041
DA:902,54041
DA:903,54041
DA:904,54041
DA:905,0
DA:906,0
DA:907,31010
DA:908,85051
DA:911,449707
DA:913,35848
DA:914,35848
DA:915,11903
DA:918,23945
DA:919,23945
DA:922,35848
DA:925,116130
DA:926,116130
DA:927,116130
DA:929,38329
DA:930,38329
DA:932,77801
DA:934,116130
DA:937,240047
DA:938,240047
DA:939,240047
DA:941,148781
DA:942,148781
DA:944,91266
DA:946,240047
DA:948,193899
DA:949,193899
DA:950,97184
DA:951,96715
DA:952,96715
DA:953,96715
DA:954,96715
DA:955,18949
DA:956,23783
DA:957,62166
DA:959,193899
DA:961,199206
DA:962,199206
DA:963,199206
DA:965,1371387
DA:966,1371387
DA:967,305598
DA:968,1065789
DA:969,1065789
DA:970,1065789
DA:973,1371387
BRF:0
BRH:0
LF:605
LH:541
end_of_record
SF:/home/odm3n/dev/work/everscale-vm/vm/src/instr/cellops.rs
FN:2047,_RINvNtNtCsipbLpstqwUV_8tycho_vm5instr7cellops13compute_depthNtNtCsdL4DZEAGarf_15everscale_types4cell8RefsIterRDNtBY_8CellImplEL_EB6_
FN:2047,_RINvNtNtCsipbLpstqwUV_8tycho_vm5instr7cellops13compute_depthRSNtNtNtNtCsdL4DZEAGarf_15everscale_types4cell9cell_impl2rc4CellRBY_EB6_
FN:1695,_RINvNtNtCsipbLpstqwUV_8tycho_vm5instr7cellops21finish_store_overflowNtNtB6_4util14OwnedCellSliceNtNtNtCsdL4DZEAGarf_15everscale_types4cell7builder11CellBuilderEB6_
FN:1695,_RINvNtNtCsipbLpstqwUV_8tycho_vm5instr7cellops21finish_store_overflowNtNtNtCsdL4DZEAGarf_15everscale_types4cell7builder11CellBuilderB14_EB6_
FN:1695,_RINvNtNtCsipbLpstqwUV_8tycho_vm5instr7cellops21finish_store_overflowNtNtNtCsdL4DZEAGarf_15everscale_types4cell7builder11CellBuilderNtNtB6_4util14OwnedCellSliceEB6_
FN:1695,_RINvNtNtCsipbLpstqwUV_8tycho_vm5instr7cellops21finish_store_overflowNtNtNtCsdL4DZEAGarf_15everscale_types4cell7builder11CellBuilderNtNtNtB18_9cell_impl2rc4CellEB6_
FN:1695,_RINvNtNtCsipbLpstqwUV_8tycho_vm5instr7cellops21finish_store_overflowNtNtNtNtCsdL4DZEAGarf_15everscale_types4cell9cell_impl2rc4CellNtNtB1a_7builder11CellBuilderEB6_
FN:569,_RNCNvNtNtCsipbLpstqwUV_8tycho_vm5instr7cellops17exec_store_le_int0B7_
FN:570,_RNCNvNtNtCsipbLpstqwUV_8tycho_vm5instr7cellops17exec_store_le_ints_0B7_
FN:1677,_RNCNvNtNtCsipbLpstqwUV_8tycho_vm5instr7cellops21exec_store_int_common0B7_
FN:1191,_RNCNvNtNtCsipbLpstqwUV_8tycho_vm5instr7cellops22exec_load_special_cell0B7_
FN:918,_RNCNvNtNtCsipbLpstqwUV_8tycho_vm5instr7cellops26exec_preload_uint_fixed_0e0B7_
FN:1731,_RNvMNtNtCsipbLpstqwUV_8tycho_vm5instr7cellopsNtB2_14StoreLeIntArgs11is_unsigned
FN:1739,_RNvMNtNtCsipbLpstqwUV_8tycho_vm5instr7cellopsNtB2_14StoreLeIntArgs7is_long
FN:1735,_RNvMNtNtCsipbLpstqwUV_8tycho_vm5instr7cellopsNtB2_14StoreLeIntArgs9is_signed
FN:1768,_RNvMs0_NtNtCsipbLpstqwUV_8tycho_vm5instr7cellopsNtB5_12StoreIntArgs11is_reversed
FN:1760,_RNvMs0_NtNtCsipbLpstqwUV_8tycho_vm5instr7cellopsNtB5_12StoreIntArgs11is_unsigned
FN:1772,_RNvMs0_NtNtCsipbLpstqwUV_8tycho_vm5instr7cellopsNtB5_12StoreIntArgs8is_quiet
FN:1756,_RNvMs0_NtNtCsipbLpstqwUV_8tycho_vm5instr7cellopsNtB5_12StoreIntArgs9from_sign
FN:1764,_RNvMs0_NtNtCsipbLpstqwUV_8tycho_vm5instr7cellopsNtB5_12StoreIntArgs9is_signed
FN:1869,_RNvMs3_NtNtCsipbLpstqwUV_8tycho_vm5instr7cellopsNtB5_13LoadLeIntArgs11is_prefetch
FN:1857,_RNvMs3_NtNtCsipbLpstqwUV_8tycho_vm5instr7cellopsNtB5_13LoadLeIntArgs11is_unsigned
FN:1865,_RNvMs3_NtNtCsipbLpstqwUV_8tycho_vm5instr7cellopsNtB5_13LoadLeIntArgs7is_long
FN:1873,_RNvMs3_NtNtCsipbLpstqwUV_8tycho_vm5instr7cellopsNtB5_13LoadLeIntArgs8is_quiet
FN:1861,_RNvMs3_NtNtCsipbLpstqwUV_8tycho_vm5instr7cellopsNtB5_13LoadLeIntArgs9is_signed
FN:1904,_RNvMs5_NtNtCsipbLpstqwUV_8tycho_vm5instr7cellopsNtB5_11LoadIntArgs11is_prefetch
FN:1896,_RNvMs5_NtNtCsipbLpstqwUV_8tycho_vm5instr7cellopsNtB5_11LoadIntArgs11is_unsigned
FN:1908,_RNvMs5_NtNtCsipbLpstqwUV_8tycho_vm5instr7cellopsNtB5_11LoadIntArgs8is_quiet
FN:1892,_RNvMs5_NtNtCsipbLpstqwUV_8tycho_vm5instr7cellopsNtB5_11LoadIntArgs9from_sign
FN:1900,_RNvMs5_NtNtCsipbLpstqwUV_8tycho_vm5instr7cellopsNtB5_11LoadIntArgs9is_signed
FN:1978,_RNvMs7_NtNtCsipbLpstqwUV_8tycho_vm5instr7cellopsNtB5_13LoadSliceArgs11is_prefetch
FN:1982,_RNvMs7_NtNtCsipbLpstqwUV_8tycho_vm5instr7cellopsNtB5_13LoadSliceArgs8is_quiet
FN:1140,_RNvNtNtCsipbLpstqwUV_8tycho_vm5instr7cellops10exec_split
FN:838,_RNvNtNtCsipbLpstqwUV_8tycho_vm5instr7cellops13exec_load_ref
FN:31,_RNvNtNtCsipbLpstqwUV_8tycho_vm5instr7cellops13exec_push_ref
FN:1115,_RNvNtNtCsipbLpstqwUV_8tycho_vm5instr7cellops13exec_subslice
FN:1365,_RNvNtNtCsipbLpstqwUV_8tycho_vm5instr7cellops14exec_load_same
FN:136,_RNvNtNtCsipbLpstqwUV_8tycho_vm5instr7cellops14exec_push_cont
FN:344,_RNvNtNtCsipbLpstqwUV_8tycho_vm5instr7cellops14exec_store_int
FN:352,_RNvNtNtCsipbLpstqwUV_8tycho_vm5instr7cellops14exec_store_ref
FN:1407,_RNvNtNtCsipbLpstqwUV_8tycho_vm5instr7cellops15exec_cell_depth
FN:1430,_RNvNtNtCsipbLpstqwUV_8tycho_vm5instr7cellops15exec_cell_level
FN:950,_RNvNtNtCsipbLpstqwUV_8tycho_vm5instr7cellops15exec_load_slice
FN:76,_RNvNtNtCsipbLpstqwUV_8tycho_vm5instr7cellops15exec_push_slice
FN:717,_RNvNtNtCsipbLpstqwUV_8tycho_vm5instr7cellops15exec_store_same
FN:1715,_RNvNtNtCsipbLpstqwUV_8tycho_vm5instr7cellops15finish_store_ok
FN:1255,_RNvNtNtCsipbLpstqwUV_8tycho_vm5instr7cellops16exec_check_slice
FN:1319,_RNvNtNtCsipbLpstqwUV_8tycho_vm5instr7cellops16exec_load_le_int
FN:328,_RNvNtNtCsipbLpstqwUV_8tycho_vm5instr7cellops16exec_new_builder
FN:1279,_RNvNtNtCsipbLpstqwUV_8tycho_vm5instr7cellops16exec_preload_ref
FN:1396,_RNvNtNtCsipbLpstqwUV_8tycho_vm5instr7cellops16exec_slice_depth
FN:387,_RNvNtNtCsipbLpstqwUV_8tycho_vm5instr7cellops16exec_store_slice
FN:620,_RNvNtNtCsipbLpstqwUV_8tycho_vm5instr7cellops17exec_builder_bits
FN:628,_RNvNtNtCsipbLpstqwUV_8tycho_vm5instr7cellops17exec_builder_refs
FN:877,_RNvNtNtCsipbLpstqwUV_8tycho_vm5instr7cellops17exec_load_int_var
FN:93,_RNvNtNtCsipbLpstqwUV_8tycho_vm5instr7cellops17exec_push_slice_r
FN:272,_RNvNtNtCsipbLpstqwUV_8tycho_vm5instr7cellops17exec_slice_bin_op
FN:995,_RNvNtNtCsipbLpstqwUV_8tycho_vm5instr7cellops17exec_slice_substr
FN:551,_RNvNtNtCsipbLpstqwUV_8tycho_vm5instr7cellops17exec_store_le_int
FN:610,_RNvNtNtCsipbLpstqwUV_8tycho_vm5instr7cellops18exec_builder_depth
FN:1449,_RNvNtNtCsipbLpstqwUV_8tycho_vm5instr7cellops18exec_cell_level_op
FN:807,_RNvNtNtCsipbLpstqwUV_8tycho_vm5instr7cellops18exec_cell_to_slice
FN:61,_RNvNtNtCsipbLpstqwUV_8tycho_vm5instr7cellops18exec_push_ref_cont
FN:117,_RNvNtNtCsipbLpstqwUV_8tycho_vm5instr7cellops18exec_push_slice_r2
FN:250,_RNvNtNtCsipbLpstqwUV_8tycho_vm5instr7cellops18exec_slice_lex_cmp
FN:437,_RNvNtNtCsipbLpstqwUV_8tycho_vm5instr7cellops18exec_store_builder
FN:403,_RNvNtNtCsipbLpstqwUV_8tycho_vm5instr7cellops18exec_store_int_var
FN:453,_RNvNtNtCsipbLpstqwUV_8tycho_vm5instr7cellops18exec_store_ref_rev
FN:832,_RNvNtNtCsipbLpstqwUV_8tycho_vm5instr7cellops19exec_load_int_fixed
FN:46,_RNvNtNtCsipbLpstqwUV_8tycho_vm5instr7cellops19exec_push_ref_slice
FN:969,_RNvNtNtCsipbLpstqwUV_8tycho_vm5instr7cellops19exec_slice_range_op
FN:334,_RNvNtNtCsipbLpstqwUV_8tycho_vm5instr7cellops20exec_builder_to_cell
FN:1439,_RNvNtNtCsipbLpstqwUV_8tycho_vm5instr7cellops20exec_cell_level_mask
FN:1817,_RNvNtNtCsipbLpstqwUV_8tycho_vm5instr7cellops20exec_load_int_common
FN:888,_RNvNtNtCsipbLpstqwUV_8tycho_vm5instr7cellops20exec_load_int_fixed2
FN:1489,_RNvNtNtCsipbLpstqwUV_8tycho_vm5instr7cellops20exec_push_ref_common
FN:1293,_RNvNtNtCsipbLpstqwUV_8tycho_vm5instr7cellops20exec_slice_bits_refs
FN:820,_RNvNtNtCsipbLpstqwUV_8tycho_vm5instr7cellops20exec_slice_chk_empty
FN:501,_RNvNtNtCsipbLpstqwUV_8tycho_vm5instr7cellops20exec_store_const_ref
FN:414,_RNvNtNtCsipbLpstqwUV_8tycho_vm5instr7cellops20exec_store_int_fixed
FN:469,_RNvNtNtCsipbLpstqwUV_8tycho_vm5instr7cellops20exec_store_slice_rev
FN:671,_RNvNtNtCsipbLpstqwUV_8tycho_vm5instr7cellops21exec_builder_chk_bits
FN:645,_RNvNtNtCsipbLpstqwUV_8tycho_vm5instr7cellops21exec_builder_rem_bits
FN:653,_RNvNtNtCsipbLpstqwUV_8tycho_vm5instr7cellops21exec_builder_rem_refs
FN:871,_RNvNtNtCsipbLpstqwUV_8tycho_vm5instr7cellops21exec_load_slice_fixed
FN:184,_RNvNtNtCsipbLpstqwUV_8tycho_vm5instr7cellops21exec_push_cont_simple
FN:1608,_RNvNtNtCsipbLpstqwUV_8tycho_vm5instr7cellops21exec_store_int_common
FN:636,_RNvNtNtCsipbLpstqwUV_8tycho_vm5instr7cellops22exec_builder_bits_refs
FN:1455,_RNvNtNtCsipbLpstqwUV_8tycho_vm5instr7cellops22exec_cell_level_op_var
FN:1936,_RNvNtNtCsipbLpstqwUV_8tycho_vm5instr7cellops22exec_load_slice_common
FN:961,_RNvNtNtCsipbLpstqwUV_8tycho_vm5instr7cellops22exec_load_slice_fixed2
FN:1190,_RNvNtNtCsipbLpstqwUV_8tycho_vm5instr7cellops22exec_load_special_cell
FN:1308,_RNvNtNtCsipbLpstqwUV_8tycho_vm5instr7cellops22exec_preload_ref_fixed
FN:1524,_RNvNtNtCsipbLpstqwUV_8tycho_vm5instr7cellops22exec_push_slice_common
FN:1018,_RNvNtNtCsipbLpstqwUV_8tycho_vm5instr7cellops22exec_slice_begins_with
FN:486,_RNvNtNtCsipbLpstqwUV_8tycho_vm5instr7cellops22exec_store_builder_rev
FN:746,_RNvNtNtCsipbLpstqwUV_8tycho_vm5instr7cellops22exec_store_const_slice
FN:311,_RNvNtNtCsipbLpstqwUV_8tycho_vm5instr7cellops23exec_slice_int_unary_op
FN:232,_RNvNtNtCsipbLpstqwUV_8tycho_vm5instr7cellops24exec_slice_bool_unary_op
FN:1088,_RNvNtNtCsipbLpstqwUV_8tycho_vm5instr7cellops24exec_slice_full_range_op
FN:2061,_RNvNtNtCsipbLpstqwUV_8tycho_vm5instr7cellops25exec_cell_level_op_common
FN:420,_RNvNtNtCsipbLpstqwUV_8tycho_vm5instr7cellops25exec_store_builder_as_ref
FN:690,_RNvNtNtCsipbLpstqwUV_8tycho_vm5instr7cellops26exec_builder_chk_bits_refs
FN:661,_RNvNtNtCsipbLpstqwUV_8tycho_vm5instr7cellops26exec_builder_rem_bits_refs
FN:854,_RNvNtNtCsipbLpstqwUV_8tycho_vm5instr7cellops26exec_load_ref_rev_to_slice
FN:893,_RNvNtNtCsipbLpstqwUV_8tycho_vm5instr7cellops26exec_preload_uint_fixed_0e
FN:594,_RNvNtNtCsipbLpstqwUV_8tycho_vm5instr7cellops28exec_builder_to_special_cell
FN:1027,_RNvNtNtCsipbLpstqwUV_8tycho_vm5instr7cellops28exec_slice_begins_with_const
FN:2017,_RNvNtNtCsipbLpstqwUV_8tycho_vm5instr7cellops29exec_slice_begins_with_common
FN:369,_RNvNtNtCsipbLpstqwUV_8tycho_vm5instr7cellops29exec_store_builder_as_ref_rev
FN:1173,_RNvNtNtCsipbLpstqwUV_8tycho_vm5instr7cellops32exec_cell_to_slice_maybe_special
FN:273,_RNvNvNtNtCsipbLpstqwUV_8tycho_vm5instr7cellops17exec_slice_bin_op9is_proper
FN:1609,_RNvNvNtNtCsipbLpstqwUV_8tycho_vm5instr7cellops21exec_store_int_common17finish_store_fail
FN:26,_RNvNvXsa_NtNtCsipbLpstqwUV_8tycho_vm5instr7cellopsNtB7_7CellOpsNtB9_6Module4init18exec_split_wrapper
FN:26,_RNvNvXsa_NtNtCsipbLpstqwUV_8tycho_vm5instr7cellopsNtB7_7CellOpsNtB9_6Module4init21exec_load_ref_wrapper
FN:26,_RNvNvXsa_NtNtCsipbLpstqwUV_8tycho_vm5instr7cellopsNtB7_7CellOpsNtB9_6Module4init21exec_subslice_wrapper
FN:26,_RNvNvXsa_NtNtCsipbLpstqwUV_8tycho_vm5instr7cellopsNtB7_7CellOpsNtB9_6Module4init22exec_load_same_wrapper
FN:26,_RNvNvXsa_NtNtCsipbLpstqwUV_8tycho_vm5instr7cellopsNtB7_7CellOpsNtB9_6Module4init22exec_store_int_wrapper
FN:26,_RNvNvXsa_NtNtCsipbLpstqwUV_8tycho_vm5instr7cellopsNtB7_7CellOpsNtB9_6Module4init22exec_store_ref_wrapper
FN:26,_RNvNvXsa_NtNtCsipbLpstqwUV_8tycho_vm5instr7cellopsNtB7_7CellOpsNtB9_6Module4init23exec_cell_depth_wrapper
FN:26,_RNvNvXsa_NtNtCsipbLpstqwUV_8tycho_vm5instr7cellopsNtB7_7CellOpsNtB9_6Module4init23exec_cell_level_wrapper
FN:26,_RNvNvXsa_NtNtCsipbLpstqwUV_8tycho_vm5instr7cellopsNtB7_7CellOpsNtB9_6Module4init23exec_load_slice_wrapper
FN:26,_RNvNvXsa_NtNtCsipbLpstqwUV_8tycho_vm5instr7cellopsNtB7_7CellOpsNtB9_6Module4init23exec_store_same_wrapper
FN:26,_RNvNvXsa_NtNtCsipbLpstqwUV_8tycho_vm5instr7cellopsNtB7_7CellOpsNtB9_6Module4init24exec_check_slice_wrapper
FN:26,_RNvNvXsa_NtNtCsipbLpstqwUV_8tycho_vm5instr7cellopsNtB7_7CellOpsNtB9_6Module4init24exec_load_le_int_wrapper
FN:26,_RNvNvXsa_NtNtCsipbLpstqwUV_8tycho_vm5instr7cellopsNtB7_7CellOpsNtB9_6Module4init24exec_new_builder_wrapper
FN:26,_RNvNvXsa_NtNtCsipbLpstqwUV_8tycho_vm5instr7cellopsNtB7_7CellOpsNtB9_6Module4init24exec_preload_ref_wrapper
FN:26,_RNvNvXsa_NtNtCsipbLpstqwUV_8tycho_vm5instr7cellopsNtB7_7CellOpsNtB9_6Module4init24exec_slice_depth_wrapper
FN:26,_RNvNvXsa_NtNtCsipbLpstqwUV_8tycho_vm5instr7cellopsNtB7_7CellOpsNtB9_6Module4init24exec_store_slice_wrapper
FN:26,_RNvNvXsa_NtNtCsipbLpstqwUV_8tycho_vm5instr7cellopsNtB7_7CellOpsNtB9_6Module4init25exec_builder_bits_wrapper
FN:26,_RNvNvXsa_NtNtCsipbLpstqwUV_8tycho_vm5instr7cellopsNtB7_7CellOpsNtB9_6Module4init25exec_builder_refs_wrapper
FN:26,_RNvNvXsa_NtNtCsipbLpstqwUV_8tycho_vm5instr7cellopsNtB7_7CellOpsNtB9_6Module4init25exec_load_int_var_wrapper
FN:26,_RNvNvXsa_NtNtCsipbLpstqwUV_8tycho_vm5instr7cellopsNtB7_7CellOpsNtB9_6Module4init25exec_slice_bin_op_wrapper
FN:26,_RNvNvXsa_NtNtCsipbLpstqwUV_8tycho_vm5instr7cellopsNtB7_7CellOpsNtB9_6Module4init25exec_slice_substr_wrapper
FN:26,_RNvNvXsa_NtNtCsipbLpstqwUV_8tycho_vm5instr7cellopsNtB7_7CellOpsNtB9_6Module4init25exec_store_le_int_wrapper
FN:26,_RNvNvXsa_NtNtCsipbLpstqwUV_8tycho_vm5instr7cellopsNtB7_7CellOpsNtB9_6Module4init26exec_builder_depth_wrapper
FN:26,_RNvNvXsa_NtNtCsipbLpstqwUV_8tycho_vm5instr7cellopsNtB7_7CellOpsNtB9_6Module4init26exec_cell_level_op_wrapper
FN:26,_RNvNvXsa_NtNtCsipbLpstqwUV_8tycho_vm5instr7cellopsNtB7_7CellOpsNtB9_6Module4init26exec_cell_to_slice_wrapper
FN:26,_RNvNvXsa_NtNtCsipbLpstqwUV_8tycho_vm5instr7cellopsNtB7_7CellOpsNtB9_6Module4init26exec_slice_lex_cmp_wrapper
FN:26,_RNvNvXsa_NtNtCsipbLpstqwUV_8tycho_vm5instr7cellopsNtB7_7CellOpsNtB9_6Module4init26exec_store_builder_wrapper
FN:26,_RNvNvXsa_NtNtCsipbLpstqwUV_8tycho_vm5instr7cellopsNtB7_7CellOpsNtB9_6Module4init26exec_store_int_var_wrapper
FN:26,_RNvNvXsa_NtNtCsipbLpstqwUV_8tycho_vm5instr7cellopsNtB7_7CellOpsNtB9_6Module4init26exec_store_ref_rev_wrapper
FN:26,_RNvNvXsa_NtNtCsipbLpstqwUV_8tycho_vm5instr7cellopsNtB7_7CellOpsNtB9_6Module4init27exec_load_int_fixed_wrapper
FN:26,_RNvNvXsa_NtNtCsipbLpstqwUV_8tycho_vm5instr7cellopsNtB7_7CellOpsNtB9_6Module4init27exec_slice_range_op_wrapper
FN:26,_RNvNvXsa_NtNtCsipbLpstqwUV_8tycho_vm5instr7cellopsNtB7_7CellOpsNtB9_6Module4init28exec_builder_to_cell_wrapper
FN:26,_RNvNvXsa_NtNtCsipbLpstqwUV_8tycho_vm5instr7cellopsNtB7_7CellOpsNtB9_6Module4init28exec_cell_level_mask_wrapper
FN:26,_RNvNvXsa_NtNtCsipbLpstqwUV_8tycho_vm5instr7cellopsNtB7_7CellOpsNtB9_6Module4init28exec_load_int_fixed2_wrapper
FN:26,_RNvNvXsa_NtNtCsipbLpstqwUV_8tycho_vm5instr7cellopsNtB7_7CellOpsNtB9_6Module4init28exec_slice_bits_refs_wrapper
FN:26,_RNvNvXsa_NtNtCsipbLpstqwUV_8tycho_vm5instr7cellopsNtB7_7CellOpsNtB9_6Module4init28exec_slice_chk_empty_wrapper
FN:26,_RNvNvXsa_NtNtCsipbLpstqwUV_8tycho_vm5instr7cellopsNtB7_7CellOpsNtB9_6Module4init28exec_store_int_fixed_wrapper
FN:26,_RNvNvXsa_NtNtCsipbLpstqwUV_8tycho_vm5instr7cellopsNtB7_7CellOpsNtB9_6Module4init28exec_store_slice_rev_wrapper
FN:26,_RNvNvXsa_NtNtCsipbLpstqwUV_8tycho_vm5instr7cellopsNtB7_7CellOpsNtB9_6Module4init29exec_builder_chk_bits_wrapper
FN:26,_RNvNvXsa_NtNtCsipbLpstqwUV_8tycho_vm5instr7cellopsNtB7_7CellOpsNtB9_6Module4init29exec_builder_rem_bits_wrapper
FN:26,_RNvNvXsa_NtNtCsipbLpstqwUV_8tycho_vm5instr7cellopsNtB7_7CellOpsNtB9_6Module4init29exec_builder_rem_refs_wrapper
FN:26,_RNvNvXsa_NtNtCsipbLpstqwUV_8tycho_vm5instr7cellopsNtB7_7CellOpsNtB9_6Module4init29exec_load_slice_fixed_wrapper
FN:26,_RNvNvXsa_NtNtCsipbLpstqwUV_8tycho_vm5instr7cellopsNtB7_7CellOpsNtB9_6Module4init30exec_builder_bits_refs_wrapper
FN:26,_RNvNvXsa_NtNtCsipbLpstqwUV_8tycho_vm5instr7cellopsNtB7_7CellOpsNtB9_6Module4init30exec_cell_level_op_var_wrapper
FN:26,_RNvNvXsa_NtNtCsipbLpstqwUV_8tycho_vm5instr7cellopsNtB7_7CellOpsNtB9_6Module4init30exec_load_slice_fixed2_wrapper
FN:26,_RNvNvXsa_NtNtCsipbLpstqwUV_8tycho_vm5instr7cellopsNtB7_7CellOpsNtB9_6Module4init30exec_load_special_cell_wrapper
FN:26,_RNvNvXsa_NtNtCsipbLpstqwUV_8tycho_vm5instr7cellopsNtB7_7CellOpsNtB9_6Module4init30exec_preload_ref_fixed_wrapper
FN:26,_RNvNvXsa_NtNtCsipbLpstqwUV_8tycho_vm5instr7cellopsNtB7_7CellOpsNtB9_6Module4init30exec_slice_begins_with_wrapper
FN:26,_RNvNvXsa_NtNtCsipbLpstqwUV_8tycho_vm5instr7cellopsNtB7_7CellOpsNtB9_6Module4init30exec_store_builder_rev_wrapper
FN:26,_RNvNvXsa_NtNtCsipbLpstqwUV_8tycho_vm5instr7cellopsNtB7_7CellOpsNtB9_6Module4init31exec_slice_int_unary_op_wrapper
FN:26,_RNvNvXsa_NtNtCsipbLpstqwUV_8tycho_vm5instr7cellopsNtB7_7CellOpsNtB9_6Module4init32exec_slice_bool_unary_op_wrapper
FN:26,_RNvNvXsa_NtNtCsipbLpstqwUV_8tycho_vm5instr7cellopsNtB7_7CellOpsNtB9_6Module4init32exec_slice_full_range_op_wrapper
FN:26,_RNvNvXsa_NtNtCsipbLpstqwUV_8tycho_vm5instr7cellopsNtB7_7CellOpsNtB9_6Module4init33exec_store_builder_as_ref_wrapper
FN:26,_RNvNvXsa_NtNtCsipbLpstqwUV_8tycho_vm5instr7cellopsNtB7_7CellOpsNtB9_6Module4init34exec_builder_chk_bits_refs_wrapper
FN:26,_RNvNvXsa_NtNtCsipbLpstqwUV_8tycho_vm5instr7cellopsNtB7_7CellOpsNtB9_6Module4init34exec_builder_rem_bits_refs_wrapper
FN:26,_RNvNvXsa_NtNtCsipbLpstqwUV_8tycho_vm5instr7cellopsNtB7_7CellOpsNtB9_6Module4init34exec_load_ref_rev_to_slice_wrapper
FN:26,_RNvNvXsa_NtNtCsipbLpstqwUV_8tycho_vm5instr7cellopsNtB7_7CellOpsNtB9_6Module4init34exec_preload_uint_fixed_0e_wrapper
FN:26,_RNvNvXsa_NtNtCsipbLpstqwUV_8tycho_vm5instr7cellopsNtB7_7CellOpsNtB9_6Module4init36exec_builder_to_special_cell_wrapper
FN:26,_RNvNvXsa_NtNtCsipbLpstqwUV_8tycho_vm5instr7cellopsNtB7_7CellOpsNtB9_6Module4init37exec_store_builder_as_ref_rev_wrapper
FN:26,_RNvNvXsa_NtNtCsipbLpstqwUV_8tycho_vm5instr7cellopsNtB7_7CellOpsNtB9_6Module4init40exec_cell_to_slice_maybe_special_wrapper
FN:26,_RNvNvXsa_NtNtCsipbLpstqwUV_8tycho_vm5instr7cellopsNtB7_7CellOpsNtB9_6Module4inits0_22exec_load_same_wrapper
FN:26,_RNvNvXsa_NtNtCsipbLpstqwUV_8tycho_vm5instr7cellopsNtB7_7CellOpsNtB9_6Module4inits0_22exec_store_ref_wrapper
FN:26,_RNvNvXsa_NtNtCsipbLpstqwUV_8tycho_vm5instr7cellopsNtB7_7CellOpsNtB9_6Module4inits0_23exec_store_same_wrapper
FN:26,_RNvNvXsa_NtNtCsipbLpstqwUV_8tycho_vm5instr7cellopsNtB7_7CellOpsNtB9_6Module4inits0_24exec_check_slice_wrapper
FN:26,_RNvNvXsa_NtNtCsipbLpstqwUV_8tycho_vm5instr7cellopsNtB7_7CellOpsNtB9_6Module4inits0_24exec_store_slice_wrapper
FN:26,_RNvNvXsa_NtNtCsipbLpstqwUV_8tycho_vm5instr7cellopsNtB7_7CellOpsNtB9_6Module4inits0_25exec_slice_bin_op_wrapper
FN:26,_RNvNvXsa_NtNtCsipbLpstqwUV_8tycho_vm5instr7cellopsNtB7_7CellOpsNtB9_6Module4inits0_27exec_slice_range_op_wrapper
FN:26,_RNvNvXsa_NtNtCsipbLpstqwUV_8tycho_vm5instr7cellopsNtB7_7CellOpsNtB9_6Module4inits0_28exec_slice_bits_refs_wrapper
FN:26,_RNvNvXsa_NtNtCsipbLpstqwUV_8tycho_vm5instr7cellopsNtB7_7CellOpsNtB9_6Module4inits0_31exec_slice_int_unary_op_wrapper
FN:26,_RNvNvXsa_NtNtCsipbLpstqwUV_8tycho_vm5instr7cellopsNtB7_7CellOpsNtB9_6Module4inits0_32exec_slice_bool_unary_op_wrapper
FN:26,_RNvNvXsa_NtNtCsipbLpstqwUV_8tycho_vm5instr7cellopsNtB7_7CellOpsNtB9_6Module4inits0_32exec_slice_full_range_op_wrapper
FN:26,_RNvNvXsa_NtNtCsipbLpstqwUV_8tycho_vm5instr7cellopsNtB7_7CellOpsNtB9_6Module4inits0_34exec_builder_chk_bits_refs_wrapper
FN:26,_RNvNvXsa_NtNtCsipbLpstqwUV_8tycho_vm5instr7cellopsNtB7_7CellOpsNtB9_6Module4inits0_37exec_store_builder_as_ref_rev_wrapper
FN:26,_RNvNvXsa_NtNtCsipbLpstqwUV_8tycho_vm5instr7cellopsNtB7_7CellOpsNtB9_6Module4inits1_24exec_check_slice_wrapper
FN:26,_RNvNvXsa_NtNtCsipbLpstqwUV_8tycho_vm5instr7cellopsNtB7_7CellOpsNtB9_6Module4inits1_25exec_slice_bin_op_wrapper
FN:26,_RNvNvXsa_NtNtCsipbLpstqwUV_8tycho_vm5instr7cellopsNtB7_7CellOpsNtB9_6Module4inits1_27exec_slice_range_op_wrapper
FN:26,_RNvNvXsa_NtNtCsipbLpstqwUV_8tycho_vm5instr7cellopsNtB7_7CellOpsNtB9_6Module4inits1_31exec_slice_int_unary_op_wrapper
FN:26,_RNvNvXsa_NtNtCsipbLpstqwUV_8tycho_vm5instr7cellopsNtB7_7CellOpsNtB9_6Module4inits1_32exec_slice_bool_unary_op_wrapper
FN:26,_RNvNvXsa_NtNtCsipbLpstqwUV_8tycho_vm5instr7cellopsNtB7_7CellOpsNtB9_6Module4inits1_32exec_slice_full_range_op_wrapper
FN:26,_RNvNvXsa_NtNtCsipbLpstqwUV_8tycho_vm5instr7cellopsNtB7_7CellOpsNtB9_6Module4inits1_34exec_builder_chk_bits_refs_wrapper
FN:26,_RNvNvXsa_NtNtCsipbLpstqwUV_8tycho_vm5instr7cellopsNtB7_7CellOpsNtB9_6Module4inits2_24exec_check_slice_wrapper
FN:26,_RNvNvXsa_NtNtCsipbLpstqwUV_8tycho_vm5instr7cellopsNtB7_7CellOpsNtB9_6Module4inits2_25exec_slice_bin_op_wrapper
FN:26,_RNvNvXsa_NtNtCsipbLpstqwUV_8tycho_vm5instr7cellopsNtB7_7CellOpsNtB9_6Module4inits2_34exec_builder_chk_bits_refs_wrapper
FN:26,_RNvNvXsa_NtNtCsipbLpstqwUV_8tycho_vm5instr7cellopsNtB7_7CellOpsNtB9_6Module4inits3_24exec_check_slice_wrapper
FN:26,_RNvNvXsa_NtNtCsipbLpstqwUV_8tycho_vm5instr7cellopsNtB7_7CellOpsNtB9_6Module4inits3_25exec_slice_bin_op_wrapper
FN:26,_RNvNvXsa_NtNtCsipbLpstqwUV_8tycho_vm5instr7cellopsNtB7_7CellOpsNtB9_6Module4inits3_34exec_builder_chk_bits_refs_wrapper
FN:26,_RNvNvXsa_NtNtCsipbLpstqwUV_8tycho_vm5instr7cellopsNtB7_7CellOpsNtB9_6Module4inits4_25exec_slice_bin_op_wrapper
FN:26,_RNvNvXsa_NtNtCsipbLpstqwUV_8tycho_vm5instr7cellopsNtB7_7CellOpsNtB9_6Module4inits5_25exec_slice_bin_op_wrapper
FN:26,_RNvNvXsa_NtNtCsipbLpstqwUV_8tycho_vm5instr7cellopsNtB7_7CellOpsNtB9_6Module4inits6_25exec_slice_bin_op_wrapper
FN:26,_RNvNvXsa_NtNtCsipbLpstqwUV_8tycho_vm5instr7cellopsNtB7_7CellOpsNtB9_6Module4inits_18exec_split_wrapper
FN:26,_RNvNvXsa_NtNtCsipbLpstqwUV_8tycho_vm5instr7cellopsNtB7_7CellOpsNtB9_6Module4inits_22exec_load_same_wrapper
FN:26,_RNvNvXsa_NtNtCsipbLpstqwUV_8tycho_vm5instr7cellopsNtB7_7CellOpsNtB9_6Module4inits_22exec_store_int_wrapper
FN:26,_RNvNvXsa_NtNtCsipbLpstqwUV_8tycho_vm5instr7cellopsNtB7_7CellOpsNtB9_6Module4inits_22exec_store_ref_wrapper
FN:26,_RNvNvXsa_NtNtCsipbLpstqwUV_8tycho_vm5instr7cellopsNtB7_7CellOpsNtB9_6Module4inits_23exec_store_same_wrapper
FN:26,_RNvNvXsa_NtNtCsipbLpstqwUV_8tycho_vm5instr7cellopsNtB7_7CellOpsNtB9_6Module4inits_24exec_check_slice_wrapper
FN:26,_RNvNvXsa_NtNtCsipbLpstqwUV_8tycho_vm5instr7cellopsNtB7_7CellOpsNtB9_6Module4inits_24exec_store_slice_wrapper
FN:26,_RNvNvXsa_NtNtCsipbLpstqwUV_8tycho_vm5instr7cellopsNtB7_7CellOpsNtB9_6Module4inits_25exec_slice_bin_op_wrapper
FN:26,_RNvNvXsa_NtNtCsipbLpstqwUV_8tycho_vm5instr7cellopsNtB7_7CellOpsNtB9_6Module4inits_26exec_cell_level_op_wrapper
FN:26,_RNvNvXsa_NtNtCsipbLpstqwUV_8tycho_vm5instr7cellopsNtB7_7CellOpsNtB9_6Module4inits_26exec_store_builder_wrapper
FN:26,_RNvNvXsa_NtNtCsipbLpstqwUV_8tycho_vm5instr7cellopsNtB7_7CellOpsNtB9_6Module4inits_26exec_store_ref_rev_wrapper
FN:26,_RNvNvXsa_NtNtCsipbLpstqwUV_8tycho_vm5instr7cellopsNtB7_7CellOpsNtB9_6Module4inits_27exec_load_int_fixed_wrapper
FN:26,_RNvNvXsa_NtNtCsipbLpstqwUV_8tycho_vm5instr7cellopsNtB7_7CellOpsNtB9_6Module4inits_27exec_slice_range_op_wrapper
FN:26,_RNvNvXsa_NtNtCsipbLpstqwUV_8tycho_vm5instr7cellopsNtB7_7CellOpsNtB9_6Module4inits_28exec_slice_bits_refs_wrapper
FN:26,_RNvNvXsa_NtNtCsipbLpstqwUV_8tycho_vm5instr7cellopsNtB7_7CellOpsNtB9_6Module4inits_28exec_store_slice_rev_wrapper
FN:26,_RNvNvXsa_NtNtCsipbLpstqwUV_8tycho_vm5instr7cellopsNtB7_7CellOpsNtB9_6Module4inits_29exec_builder_chk_bits_wrapper
FN:26,_RNvNvXsa_NtNtCsipbLpstqwUV_8tycho_vm5instr7cellopsNtB7_7CellOpsNtB9_6Module4inits_30exec_cell_level_op_var_wrapper
FN:26,_RNvNvXsa_NtNtCsipbLpstqwUV_8tycho_vm5instr7cellopsNtB7_7CellOpsNtB9_6Module4inits_30exec_load_special_cell_wrapper
FN:26,_RNvNvXsa_NtNtCsipbLpstqwUV_8tycho_vm5instr7cellopsNtB7_7CellOpsNtB9_6Module4inits_30exec_slice_begins_with_wrapper
FN:26,_RNvNvXsa_NtNtCsipbLpstqwUV_8tycho_vm5instr7cellopsNtB7_7CellOpsNtB9_6Module4inits_30exec_store_builder_rev_wrapper
FN:26,_RNvNvXsa_NtNtCsipbLpstqwUV_8tycho_vm5instr7cellopsNtB7_7CellOpsNtB9_6Module4inits_31exec_slice_int_unary_op_wrapper
FN:26,_RNvNvXsa_NtNtCsipbLpstqwUV_8tycho_vm5instr7cellopsNtB7_7CellOpsNtB9_6Module4inits_32exec_slice_bool_unary_op_wrapper
FN:26,_RNvNvXsa_NtNtCsipbLpstqwUV_8tycho_vm5instr7cellopsNtB7_7CellOpsNtB9_6Module4inits_32exec_slice_full_range_op_wrapper
FN:26,_RNvNvXsa_NtNtCsipbLpstqwUV_8tycho_vm5instr7cellopsNtB7_7CellOpsNtB9_6Module4inits_33exec_store_builder_as_ref_wrapper
FN:26,_RNvNvXsa_NtNtCsipbLpstqwUV_8tycho_vm5instr7cellopsNtB7_7CellOpsNtB9_6Module4inits_34exec_builder_chk_bits_refs_wrapper
FN:26,_RNvNvXsa_NtNtCsipbLpstqwUV_8tycho_vm5instr7cellopsNtB7_7CellOpsNtB9_6Module4inits_37exec_store_builder_as_ref_rev_wrapper
FN:1808,_RNvXs2_NtNtCsipbLpstqwUV_8tycho_vm5instr7cellopsNtB5_9CheckModeNtNtCscHntIWw2aYb_4core3fmt7Display3fmt
FN:1879,_RNvXs4_NtNtCsipbLpstqwUV_8tycho_vm5instr7cellopsNtB5_13LoadLeIntArgsNtNtCscHntIWw2aYb_4core3fmt7Display3fmt
FN:1745,_RNvXs_NtNtCsipbLpstqwUV_8tycho_vm5instr7cellopsNtB4_14StoreLeIntArgsNtNtCscHntIWw2aYb_4core3fmt7Display3fmt
FN:1776,_RNvMs0_NtNtCsipbLpstqwUV_8tycho_vm5instr7cellopsNtB5_12StoreIntArgs7display
FN:1780,_RNvMs0_NtNtCsipbLpstqwUV_8tycho_vm5instr7cellopsNtB5_12StoreIntArgs9display_x
FN:1912,_RNvMs5_NtNtCsipbLpstqwUV_8tycho_vm5instr7cellopsNtB5_11LoadIntArgs7display
FN:1916,_RNvMs5_NtNtCsipbLpstqwUV_8tycho_vm5instr7cellopsNtB5_11LoadIntArgs9display_x
FN:1986,_RNvMs7_NtNtCsipbLpstqwUV_8tycho_vm5instr7cellopsNtB5_13LoadSliceArgs7display
FN:1990,_RNvMs7_NtNtCsipbLpstqwUV_8tycho_vm5instr7cellopsNtB5_13LoadSliceArgs9display_x
FN:1788,_RNvXININtNtCsipbLpstqwUV_8tycho_vm5instr7cellopss1_0KpEINtB5_19DisplayStoreIntArgsKpENtNtCscHntIWw2aYb_4core3fmt7Display3fmtB9_
FN:1924,_RNvXININtNtCsipbLpstqwUV_8tycho_vm5instr7cellopss6_0KpEINtB5_18DisplayLoadIntArgsKpENtNtCscHntIWw2aYb_4core3fmt7Display3fmtB9_
FN:1998,_RNvXININtNtCsipbLpstqwUV_8tycho_vm5instr7cellopss8_0KpEINtB5_20DisplayLoadSliceArgsKpENtNtCscHntIWw2aYb_4core3fmt7Display3fmtB9_
FNDA:16838,_RINvNtNtCsipbLpstqwUV_8tycho_vm5instr7cellops13compute_depthNtNtCsdL4DZEAGarf_15everscale_types4cell8RefsIterRDNtBY_8CellImplEL_EB6_
FNDA:88008,_RINvNtNtCsipbLpstqwUV_8tycho_vm5instr7cellops13compute_depthRSNtNtNtNtCsdL4DZEAGarf_15everscale_types4cell9cell_impl2rc4CellRBY_EB6_
FNDA:2815,_RINvNtNtCsipbLpstqwUV_8tycho_vm5instr7cellops21finish_store_overflowNtNtB6_4util14OwnedCellSliceNtNtNtCsdL4DZEAGarf_15everscale_types4cell7builder11CellBuilderEB6_
FNDA:13875,_RINvNtNtCsipbLpstqwUV_8tycho_vm5instr7cellops21finish_store_overflowNtNtNtCsdL4DZEAGarf_15everscale_types4cell7builder11CellBuilderB14_EB6_
FNDA:4601,_RINvNtNtCsipbLpstqwUV_8tycho_vm5instr7cellops21finish_store_overflowNtNtNtCsdL4DZEAGarf_15everscale_types4cell7builder11CellBuilderNtNtB6_4util14OwnedCellSliceEB6_
FNDA:2595,_RINvNtNtCsipbLpstqwUV_8tycho_vm5instr7cellops21finish_store_overflowNtNtNtCsdL4DZEAGarf_15everscale_types4cell7builder11CellBuilderNtNtNtB18_9cell_impl2rc4CellEB6_
FNDA:1126,_RINvNtNtCsipbLpstqwUV_8tycho_vm5instr7cellops21finish_store_overflowNtNtNtNtCsdL4DZEAGarf_15everscale_types4cell9cell_impl2rc4CellNtNtB1a_7builder11CellBuilderEB6_
FNDA:22066,_RNCNvNtNtCsipbLpstqwUV_8tycho_vm5instr7cellops17exec_store_le_int0B7_
FNDA:5692,_RNCNvNtNtCsipbLpstqwUV_8tycho_vm5instr7cellops17exec_store_le_ints_0B7_
FNDA:94710,_RNCNvNtNtCsipbLpstqwUV_8tycho_vm5instr7cellops21exec_store_int_common0B7_
FNDA:0,_RNCNvNtNtCsipbLpstqwUV_8tycho_vm5instr7cellops22exec_load_special_cell0B7_
FNDA:21384,_RNCNvNtNtCsipbLpstqwUV_8tycho_vm5instr7cellops26exec_preload_uint_fixed_0e0B7_
FNDA:63618,_RNvMNtNtCsipbLpstqwUV_8tycho_vm5instr7cellopsNtB2_14StoreLeIntArgs11is_unsigned
FNDA:133859,_RNvMNtNtCsipbLpstqwUV_8tycho_vm5instr7cellopsNtB2_14StoreLeIntArgs7is_long
FNDA:0,_RNvMNtNtCsipbLpstqwUV_8tycho_vm5instr7cellopsNtB2_14StoreLeIntArgs9is_signed
FNDA:273971,_RNvMs0_NtNtCsipbLpstqwUV_8tycho_vm5instr7cellopsNtB5_12StoreIntArgs11is_reversed
FNDA:342953,_RNvMs0_NtNtCsipbLpstqwUV_8tycho_vm5instr7cellopsNtB5_12StoreIntArgs11is_unsigned
FNDA:220262,_RNvMs0_NtNtCsipbLpstqwUV_8tycho_vm5instr7cellopsNtB5_12StoreIntArgs8is_quiet
FNDA:222264,_RNvMs0_NtNtCsipbLpstqwUV_8tycho_vm5instr7cellopsNtB5_12StoreIntArgs9from_sign
FNDA:342953,_RNvMs0_NtNtCsipbLpstqwUV_8tycho_vm5instr7cellopsNtB5_12StoreIntArgs9is_signed
FNDA:131652,_RNvMs3_NtNtCsipbLpstqwUV_8tycho_vm5instr7cellopsNtB5_13LoadLeIntArgs11is_prefetch
FNDA:98418,_RNvMs3_NtNtCsipbLpstqwUV_8tycho_vm5instr7cellopsNtB5_13LoadLeIntArgs11is_unsigned
FNDA:232217,_RNvMs3_NtNtCsipbLpstqwUV_8tycho_vm5instr7cellopsNtB5_13LoadLeIntArgs7is_long
FNDA:133799,_RNvMs3_NtNtCsipbLpstqwUV_8tycho_vm5instr7cellopsNtB5_13LoadLeIntArgs8is_quiet
FNDA:0,_RNvMs3_NtNtCsipbLpstqwUV_8tycho_vm5instr7cellopsNtB5_13LoadLeIntArgs9is_signed
FNDA:91979,_RNvMs5_NtNtCsipbLpstqwUV_8tycho_vm5instr7cellopsNtB5_11LoadIntArgs11is_prefetch
FNDA:74227,_RNvMs5_NtNtCsipbLpstqwUV_8tycho_vm5instr7cellopsNtB5_11LoadIntArgs11is_unsigned
FNDA:92960,_RNvMs5_NtNtCsipbLpstqwUV_8tycho_vm5instr7cellopsNtB5_11LoadIntArgs8is_quiet
FNDA:73627,_RNvMs5_NtNtCsipbLpstqwUV_8tycho_vm5instr7cellopsNtB5_11LoadIntArgs9from_sign
FNDA:74227,_RNvMs5_NtNtCsipbLpstqwUV_8tycho_vm5instr7cellopsNtB5_11LoadIntArgs9is_signed
FNDA:142677,_RNvMs7_NtNtCsipbLpstqwUV_8tycho_vm5instr7cellopsNtB5_13LoadSliceArgs11is_prefetch
FNDA:143198,_RNvMs7_NtNtCsipbLpstqwUV_8tycho_vm5instr7cellopsNtB5_13LoadSliceArgs8is_quiet
FNDA:15892,_RNvNtNtCsipbLpstqwUV_8tycho_vm5instr7cellops10exec_split
FNDA:7030,_RNvNtNtCsipbLpstqwUV_8tycho_vm5instr7cellops13exec_load_ref
FNDA:441914,_RNvNtNtCsipbLpstqwUV_8tycho_vm5instr7cellops13exec_push_ref
FNDA:11352,_RNvNtNtCsipbLpstqwUV_8tycho_vm5instr7cellops13exec_subslice
FNDA:26754,_RNvNtNtCsipbLpstqwUV_8tycho_vm5instr7cellops14exec_load_same
FNDA:121936,_RNvNtNtCsipbLpstqwUV_8tycho_vm5instr7cellops14exec_push_cont
FNDA:222264,_RNvNtNtCsipbLpstqwUV_8tycho_vm5instr7cellops14exec_store_int
FNDA:20246,_RNvNtNtCsipbLpstqwUV_8tycho_vm5instr7cellops14exec_store_ref
FNDA:35922,_RNvNtNtCsipbLpstqwUV_8tycho_vm5instr7cellops15exec_cell_depth
FNDA:10888,_RNvNtNtCsipbLpstqwUV_8tycho_vm5instr7cellops15exec_cell_level
FNDA:12172,_RNvNtNtCsipbLpstqwUV_8tycho_vm5instr7cellops15exec_load_slice
FNDA:2585681,_RNvNtNtCsipbLpstqwUV_8tycho_vm5instr7cellops15exec_push_slice
FNDA:21650,_RNvNtNtCsipbLpstqwUV_8tycho_vm5instr7cellops15exec_store_same
FNDA:346709,_RNvNtNtCsipbLpstqwUV_8tycho_vm5instr7cellops15finish_store_ok
FNDA:25309,_RNvNtNtCsipbLpstqwUV_8tycho_vm5instr7cellops16exec_check_slice
FNDA:154816,_RNvNtNtCsipbLpstqwUV_8tycho_vm5instr7cellops16exec_load_le_int
FNDA:1776405,_RNvNtNtCsipbLpstqwUV_8tycho_vm5instr7cellops16exec_new_builder
FNDA:14994,_RNvNtNtCsipbLpstqwUV_8tycho_vm5instr7cellops16exec_preload_ref
FNDA:15676,_RNvNtNtCsipbLpstqwUV_8tycho_vm5instr7cellops16exec_slice_depth
FNDA:28465,_RNvNtNtCsipbLpstqwUV_8tycho_vm5instr7cellops16exec_store_slice
FNDA:35170,_RNvNtNtCsipbLpstqwUV_8tycho_vm5instr7cellops17exec_builder_bits
FNDA:9956,_RNvNtNtCsipbLpstqwUV_8tycho_vm5instr7cellops17exec_builder_refs
FNDA:11238,_RNvNtNtCsipbLpstqwUV_8tycho_vm5instr7cellops17exec_load_int_var
FNDA:59846,_RNvNtNtCsipbLpstqwUV_8tycho_vm5instr7cellops17exec_push_slice_r
FNDA:61035,_RNvNtNtCsipbLpstqwUV_8tycho_vm5instr7cellops17exec_slice_bin_op
FNDA:8915,_RNvNtNtCsipbLpstqwUV_8tycho_vm5instr7cellops17exec_slice_substr
FNDA:71090,_RNvNtNtCsipbLpstqwUV_8tycho_vm5instr7cellops17exec_store_le_int
FNDA:120019,_RNvNtNtCsipbLpstqwUV_8tycho_vm5instr7cellops18exec_builder_depth
FNDA:5252,_RNvNtNtCsipbLpstqwUV_8tycho_vm5instr7cellops18exec_cell_level_op
FNDA:65101,_RNvNtNtCsipbLpstqwUV_8tycho_vm5instr7cellops18exec_cell_to_slice
FNDA:327896,_RNvNtNtCsipbLpstqwUV_8tycho_vm5instr7cellops18exec_push_ref_cont
FNDA:81367,_RNvNtNtCsipbLpstqwUV_8tycho_vm5instr7cellops18exec_push_slice_r2
FNDA:15752,_RNvNtNtCsipbLpstqwUV_8tycho_vm5instr7cellops18exec_slice_lex_cmp
FNDA:25016,_RNvNtNtCsipbLpstqwUV_8tycho_vm5instr7cellops18exec_store_builder
FNDA:9321,_RNvNtNtCsipbLpstqwUV_8tycho_vm5instr7cellops18exec_store_int_var
FNDA:12843,_RNvNtNtCsipbLpstqwUV_8tycho_vm5instr7cellops18exec_store_ref_rev
FNDA:73627,_RNvNtNtCsipbLpstqwUV_8tycho_vm5instr7cellops19exec_load_int_fixed
FNDA:185004,_RNvNtNtCsipbLpstqwUV_8tycho_vm5instr7cellops19exec_push_ref_slice
FNDA:18523,_RNvNtNtCsipbLpstqwUV_8tycho_vm5instr7cellops19exec_slice_range_op
FNDA:72209,_RNvNtNtCsipbLpstqwUV_8tycho_vm5instr7cellops20exec_builder_to_cell
FNDA:7436,_RNvNtNtCsipbLpstqwUV_8tycho_vm5instr7cellops20exec_cell_level_mask
FNDA:122609,_RNvNtNtCsipbLpstqwUV_8tycho_vm5instr7cellops20exec_load_int_common
FNDA:42582,_RNvNtNtCsipbLpstqwUV_8tycho_vm5instr7cellops20exec_load_int_fixed2
FNDA:954814,_RNvNtNtCsipbLpstqwUV_8tycho_vm5instr7cellops20exec_push_ref_common
FNDA:27300,_RNvNtNtCsipbLpstqwUV_8tycho_vm5instr7cellops20exec_slice_bits_refs
FNDA:25060,_RNvNtNtCsipbLpstqwUV_8tycho_vm5instr7cellops20exec_slice_chk_empty
FNDA:9988,_RNvNtNtCsipbLpstqwUV_8tycho_vm5instr7cellops20exec_store_const_ref
FNDA:37085,_RNvNtNtCsipbLpstqwUV_8tycho_vm5instr7cellops20exec_store_int_fixed
FNDA:30232,_RNvNtNtCsipbLpstqwUV_8tycho_vm5instr7cellops20exec_store_slice_rev
FNDA:18602,_RNvNtNtCsipbLpstqwUV_8tycho_vm5instr7cellops21exec_builder_chk_bits
FNDA:6810,_RNvNtNtCsipbLpstqwUV_8tycho_vm5instr7cellops21exec_builder_rem_bits
FNDA:14160,_RNvNtNtCsipbLpstqwUV_8tycho_vm5instr7cellops21exec_builder_rem_refs
FNDA:57891,_RNvNtNtCsipbLpstqwUV_8tycho_vm5instr7cellops21exec_load_slice_fixed
FNDA:4077577,_RNvNtNtCsipbLpstqwUV_8tycho_vm5instr7cellops21exec_push_cont_simple
FNDA:266760,_RNvNtNtCsipbLpstqwUV_8tycho_vm5instr7cellops21exec_store_int_common
FNDA:14224,_RNvNtNtCsipbLpstqwUV_8tycho_vm5instr7cellops22exec_builder_bits_refs
FNDA:3811,_RNvNtNtCsipbLpstqwUV_8tycho_vm5instr7cellops22exec_cell_level_op_var
FNDA:149769,_RNvNtNtCsipbLpstqwUV_8tycho_vm5instr7cellops22exec_load_slice_common
FNDA:82253,_RNvNtNtCsipbLpstqwUV_8tycho_vm5instr7cellops22exec_load_slice_fixed2
FNDA:18889,_RNvNtNtCsipbLpstqwUV_8tycho_vm5instr7cellops22exec_load_special_cell
FNDA:10821,_RNvNtNtCsipbLpstqwUV_8tycho_vm5instr7cellops22exec_preload_ref_fixed
FNDA:2726894,_RNvNtNtCsipbLpstqwUV_8tycho_vm5instr7cellops22exec_push_slice_common
FNDA:79234,_RNvNtNtCsipbLpstqwUV_8tycho_vm5instr7cellops22exec_slice_begins_with
FNDA:19226,_RNvNtNtCsipbLpstqwUV_8tycho_vm5instr7cellops22exec_store_builder_rev
FNDA:16624,_RNvNtNtCsipbLpstqwUV_8tycho_vm5instr7cellops22exec_store_const_slice
FNDA:88722,_RNvNtNtCsipbLpstqwUV_8tycho_vm5instr7cellops23exec_slice_int_unary_op
FNDA:38232,_RNvNtNtCsipbLpstqwUV_8tycho_vm5instr7cellops24exec_slice_bool_unary_op
FNDA:8186,_RNvNtNtCsipbLpstqwUV_8tycho_vm5instr7cellops24exec_slice_full_range_op
FNDA:6962,_RNvNtNtCsipbLpstqwUV_8tycho_vm5instr7cellops25exec_cell_level_op_common
FNDA:29050,_RNvNtNtCsipbLpstqwUV_8tycho_vm5instr7cellops25exec_store_builder_as_ref
FNDA:29075,_RNvNtNtCsipbLpstqwUV_8tycho_vm5instr7cellops26exec_builder_chk_bits_refs
FNDA:5438,_RNvNtNtCsipbLpstqwUV_8tycho_vm5instr7cellops26exec_builder_rem_bits_refs
FNDA:14142,_RNvNtNtCsipbLpstqwUV_8tycho_vm5instr7cellops26exec_load_ref_rev_to_slice
FNDA:46909,_RNvNtNtCsipbLpstqwUV_8tycho_vm5instr7cellops26exec_preload_uint_fixed_0e
FNDA:27455,_RNvNtNtCsipbLpstqwUV_8tycho_vm5instr7cellops28exec_builder_to_special_cell
FNDA:29564,_RNvNtNtCsipbLpstqwUV_8tycho_vm5instr7cellops28exec_slice_begins_with_const
FNDA:100896,_RNvNtNtCsipbLpstqwUV_8tycho_vm5instr7cellops29exec_slice_begins_with_common
FNDA:83768,_RNvNtNtCsipbLpstqwUV_8tycho_vm5instr7cellops29exec_store_builder_as_ref_rev
FNDA:6995,_RNvNtNtCsipbLpstqwUV_8tycho_vm5instr7cellops32exec_cell_to_slice_maybe_special
FNDA:23466,_RNvNvNtNtCsipbLpstqwUV_8tycho_vm5instr7cellops17exec_slice_bin_op9is_proper
FNDA:7211,_RNvNvNtNtCsipbLpstqwUV_8tycho_vm5instr7cellops21exec_store_int_common17finish_store_fail
FNDA:8045,_RNvNvXsa_NtNtCsipbLpstqwUV_8tycho_vm5instr7cellopsNtB7_7CellOpsNtB9_6Module4init18exec_split_wrapper
FNDA:7030,_RNvNvXsa_NtNtCsipbLpstqwUV_8tycho_vm5instr7cellopsNtB7_7CellOpsNtB9_6Module4init21exec_load_ref_wrapper
FNDA:11352,_RNvNvXsa_NtNtCsipbLpstqwUV_8tycho_vm5instr7cellopsNtB7_7CellOpsNtB9_6Module4init21exec_subslice_wrapper
FNDA:18503,_RNvNvXsa_NtNtCsipbLpstqwUV_8tycho_vm5instr7cellopsNtB7_7CellOpsNtB9_6Module4init22exec_load_same_wrapper
FNDA:192894,_RNvNvXsa_NtNtCsipbLpstqwUV_8tycho_vm5instr7cellopsNtB7_7CellOpsNtB9_6Module4init22exec_store_int_wrapper
FNDA:18816,_RNvNvXsa_NtNtCsipbLpstqwUV_8tycho_vm5instr7cellopsNtB7_7CellOpsNtB9_6Module4init22exec_store_ref_wrapper
FNDA:35922,_RNvNvXsa_NtNtCsipbLpstqwUV_8tycho_vm5instr7cellopsNtB7_7CellOpsNtB9_6Module4init23exec_cell_depth_wrapper
FNDA:10888,_RNvNvXsa_NtNtCsipbLpstqwUV_8tycho_vm5instr7cellopsNtB7_7CellOpsNtB9_6Module4init23exec_cell_level_wrapper
FNDA:12172,_RNvNvXsa_NtNtCsipbLpstqwUV_8tycho_vm5instr7cellopsNtB7_7CellOpsNtB9_6Module4init23exec_load_slice_wrapper
FNDA:11537,_RNvNvXsa_NtNtCsipbLpstqwUV_8tycho_vm5instr7cellopsNtB7_7CellOpsNtB9_6Module4init23exec_store_same_wrapper
FNDA:9093,_RNvNvXsa_NtNtCsipbLpstqwUV_8tycho_vm5instr7cellopsNtB7_7CellOpsNtB9_6Module4init24exec_check_slice_wrapper
FNDA:154816,_RNvNvXsa_NtNtCsipbLpstqwUV_8tycho_vm5instr7cellopsNtB7_7CellOpsNtB9_6Module4init24exec_load_le_int_wrapper
FNDA:1776405,_RNvNvXsa_NtNtCsipbLpstqwUV_8tycho_vm5instr7cellopsNtB7_7CellOpsNtB9_6Module4init24exec_new_builder_wrapper
FNDA:14994,_RNvNvXsa_NtNtCsipbLpstqwUV_8tycho_vm5instr7cellopsNtB7_7CellOpsNtB9_6Module4init24exec_preload_ref_wrapper
FNDA:15676,_RNvNvXsa_NtNtCsipbLpstqwUV_8tycho_vm5instr7cellopsNtB7_7CellOpsNtB9_6Module4init24exec_slice_depth_wrapper
FNDA:26861,_RNvNvXsa_NtNtCsipbLpstqwUV_8tycho_vm5instr7cellopsNtB7_7CellOpsNtB9_6Module4init24exec_store_slice_wrapper
FNDA:35170,_RNvNvXsa_NtNtCsipbLpstqwUV_8tycho_vm5instr7cellopsNtB7_7CellOpsNtB9_6Module4init25exec_builder_bits_wrapper
FNDA:9956,_RNvNvXsa_NtNtCsipbLpstqwUV_8tycho_vm5instr7cellopsNtB7_7CellOpsNtB9_6Module4init25exec_builder_refs_wrapper
FNDA:11238,_RNvNvXsa_NtNtCsipbLpstqwUV_8tycho_vm5instr7cellopsNtB7_7CellOpsNtB9_6Module4init25exec_load_int_var_wrapper
FNDA:11012,_RNvNvXsa_NtNtCsipbLpstqwUV_8tycho_vm5instr7cellopsNtB7_7CellOpsNtB9_6Module4init25exec_slice_bin_op_wrapper
FNDA:8915,_RNvNvXsa_NtNtCsipbLpstqwUV_8tycho_vm5instr7cellopsNtB7_7CellOpsNtB9_6Module4init25exec_slice_substr_wrapper
FNDA:71090,_RNvNvXsa_NtNtCsipbLpstqwUV_8tycho_vm5instr7cellopsNtB7_7CellOpsNtB9_6Module4init25exec_store_le_int_wrapper
FNDA:120019,_RNvNvXsa_NtNtCsipbLpstqwUV_8tycho_vm5instr7cellopsNtB7_7CellOpsNtB9_6Module4init26exec_builder_depth_wrapper
FNDA:1301,_RNvNvXsa_NtNtCsipbLpstqwUV_8tycho_vm5instr7cellopsNtB7_7CellOpsNtB9_6Module4init26exec_cell_level_op_wrapper
FNDA:65101,_RNvNvXsa_NtNtCsipbLpstqwUV_8tycho_vm5instr7cellopsNtB7_7CellOpsNtB9_6Module4init26exec_cell_to_slice_wrapper
FNDA:15752,_RNvNvXsa_NtNtCsipbLpstqwUV_8tycho_vm5instr7cellopsNtB7_7CellOpsNtB9_6Module4init26exec_slice_lex_cmp_wrapper
FNDA:17602,_RNvNvXsa_NtNtCsipbLpstqwUV_8tycho_vm5instr7cellopsNtB7_7CellOpsNtB9_6Module4init26exec_store_builder_wrapper
FNDA:9321,_RNvNvXsa_NtNtCsipbLpstqwUV_8tycho_vm5instr7cellopsNtB7_7CellOpsNtB9_6Module4init26exec_store_int_var_wrapper
FNDA:3358,_RNvNvXsa_NtNtCsipbLpstqwUV_8tycho_vm5instr7cellopsNtB7_7CellOpsNtB9_6Module4init26exec_store_ref_rev_wrapper
FNDA:15686,_RNvNvXsa_NtNtCsipbLpstqwUV_8tycho_vm5instr7cellopsNtB7_7CellOpsNtB9_6Module4init27exec_load_int_fixed_wrapper
FNDA:13554,_RNvNvXsa_NtNtCsipbLpstqwUV_8tycho_vm5instr7cellopsNtB7_7CellOpsNtB9_6Module4init27exec_slice_range_op_wrapper
FNDA:72209,_RNvNvXsa_NtNtCsipbLpstqwUV_8tycho_vm5instr7cellopsNtB7_7CellOpsNtB9_6Module4init28exec_builder_to_cell_wrapper
FNDA:7436,_RNvNvXsa_NtNtCsipbLpstqwUV_8tycho_vm5instr7cellopsNtB7_7CellOpsNtB9_6Module4init28exec_cell_level_mask_wrapper
FNDA:42582,_RNvNvXsa_NtNtCsipbLpstqwUV_8tycho_vm5instr7cellopsNtB7_7CellOpsNtB9_6Module4init28exec_load_int_fixed2_wrapper
FNDA:5266,_RNvNvXsa_NtNtCsipbLpstqwUV_8tycho_vm5instr7cellopsNtB7_7CellOpsNtB9_6Module4init28exec_slice_bits_refs_wrapper
FNDA:25060,_RNvNvXsa_NtNtCsipbLpstqwUV_8tycho_vm5instr7cellopsNtB7_7CellOpsNtB9_6Module4init28exec_slice_chk_empty_wrapper
FNDA:37085,_RNvNvXsa_NtNtCsipbLpstqwUV_8tycho_vm5instr7cellopsNtB7_7CellOpsNtB9_6Module4init28exec_store_int_fixed_wrapper
FNDA:10474,_RNvNvXsa_NtNtCsipbLpstqwUV_8tycho_vm5instr7cellopsNtB7_7CellOpsNtB9_6Module4init28exec_store_slice_rev_wrapper
FNDA:16401,_RNvNvXsa_NtNtCsipbLpstqwUV_8tycho_vm5instr7cellopsNtB7_7CellOpsNtB9_6Module4init29exec_builder_chk_bits_wrapper
FNDA:6810,_RNvNvXsa_NtNtCsipbLpstqwUV_8tycho_vm5instr7cellopsNtB7_7CellOpsNtB9_6Module4init29exec_builder_rem_bits_wrapper
FNDA:14160,_RNvNvXsa_NtNtCsipbLpstqwUV_8tycho_vm5instr7cellopsNtB7_7CellOpsNtB9_6Module4init29exec_builder_rem_refs_wrapper
FNDA:57891,_RNvNvXsa_NtNtCsipbLpstqwUV_8tycho_vm5instr7cellopsNtB7_7CellOpsNtB9_6Module4init29exec_load_slice_fixed_wrapper
FNDA:14224,_RNvNvXsa_NtNtCsipbLpstqwUV_8tycho_vm5instr7cellopsNtB7_7CellOpsNtB9_6Module4init30exec_builder_bits_refs_wrapper
FNDA:3313,_RNvNvXsa_NtNtCsipbLpstqwUV_8tycho_vm5instr7cellopsNtB7_7CellOpsNtB9_6Module4init30exec_cell_level_op_var_wrapper
FNDA:82253,_RNvNvXsa_NtNtCsipbLpstqwUV_8tycho_vm5instr7cellopsNtB7_7CellOpsNtB9_6Module4init30exec_load_slice_fixed2_wrapper
FNDA:7847,_RNvNvXsa_NtNtCsipbLpstqwUV_8tycho_vm5instr7cellopsNtB7_7CellOpsNtB9_6Module4init30exec_load_special_cell_wrapper
FNDA:10821,_RNvNvXsa_NtNtCsipbLpstqwUV_8tycho_vm5instr7cellopsNtB7_7CellOpsNtB9_6Module4init30exec_preload_ref_fixed_wrapper
FNDA:7018,_RNvNvXsa_NtNtCsipbLpstqwUV_8tycho_vm5instr7cellopsNtB7_7CellOpsNtB9_6Module4init30exec_slice_begins_with_wrapper
FNDA:4808,_RNvNvXsa_NtNtCsipbLpstqwUV_8tycho_vm5instr7cellopsNtB7_7CellOpsNtB9_6Module4init30exec_store_builder_rev_wrapper
FNDA:7249,_RNvNvXsa_NtNtCsipbLpstqwUV_8tycho_vm5instr7cellopsNtB7_7CellOpsNtB9_6Module4init31exec_slice_int_unary_op_wrapper
FNDA:27717,_RNvNvXsa_NtNtCsipbLpstqwUV_8tycho_vm5instr7cellopsNtB7_7CellOpsNtB9_6Module4init32exec_slice_bool_unary_op_wrapper
FNDA:2386,_RNvNvXsa_NtNtCsipbLpstqwUV_8tycho_vm5instr7cellopsNtB7_7CellOpsNtB9_6Module4init32exec_slice_full_range_op_wrapper
FNDA:19834,_RNvNvXsa_NtNtCsipbLpstqwUV_8tycho_vm5instr7cellopsNtB7_7CellOpsNtB9_6Module4init33exec_store_builder_as_ref_wrapper
FNDA:1960,_RNvNvXsa_NtNtCsipbLpstqwUV_8tycho_vm5instr7cellopsNtB7_7CellOpsNtB9_6Module4init34exec_builder_chk_bits_refs_wrapper
FNDA:5438,_RNvNvXsa_NtNtCsipbLpstqwUV_8tycho_vm5instr7cellopsNtB7_7CellOpsNtB9_6Module4init34exec_builder_rem_bits_refs_wrapper
FNDA:14142,_RNvNvXsa_NtNtCsipbLpstqwUV_8tycho_vm5instr7cellopsNtB7_7CellOpsNtB9_6Module4init34exec_load_ref_rev_to_slice_wrapper
FNDA:46909,_RNvNvXsa_NtNtCsipbLpstqwUV_8tycho_vm5instr7cellopsNtB7_7CellOpsNtB9_6Module4init34exec_preload_uint_fixed_0e_wrapper
FNDA:27455,_RNvNvXsa_NtNtCsipbLpstqwUV_8tycho_vm5instr7cellopsNtB7_7CellOpsNtB9_6Module4init36exec_builder_to_special_cell_wrapper
FNDA:76753,_RNvNvXsa_NtNtCsipbLpstqwUV_8tycho_vm5instr7cellopsNtB7_7CellOpsNtB9_6Module4init37exec_store_builder_as_ref_rev_wrapper
FNDA:6995,_RNvNvXsa_NtNtCsipbLpstqwUV_8tycho_vm5instr7cellopsNtB7_7CellOpsNtB9_6Module4init40exec_cell_to_slice_maybe_special_wrapper
FNDA:5096,_RNvNvXsa_NtNtCsipbLpstqwUV_8tycho_vm5instr7cellopsNtB7_7CellOpsNtB9_6Module4inits0_22exec_load_same_wrapper
FNDA:1069,_RNvNvXsa_NtNtCsipbLpstqwUV_8tycho_vm5instr7cellopsNtB7_7CellOpsNtB9_6Module4inits0_22exec_store_ref_wrapper
FNDA:2675,_RNvNvXsa_NtNtCsipbLpstqwUV_8tycho_vm5instr7cellopsNtB7_7CellOpsNtB9_6Module4inits0_23exec_store_same_wrapper
FNDA:2675,_RNvNvXsa_NtNtCsipbLpstqwUV_8tycho_vm5instr7cellopsNtB7_7CellOpsNtB9_6Module4inits0_24exec_check_slice_wrapper
FNDA:1602,_RNvNvXsa_NtNtCsipbLpstqwUV_8tycho_vm5instr7cellopsNtB7_7CellOpsNtB9_6Module4inits0_24exec_store_slice_wrapper
FNDA:1887,_RNvNvXsa_NtNtCsipbLpstqwUV_8tycho_vm5instr7cellopsNtB7_7CellOpsNtB9_6Module4inits0_25exec_slice_bin_op_wrapper
FNDA:1334,_RNvNvXsa_NtNtCsipbLpstqwUV_8tycho_vm5instr7cellopsNtB7_7CellOpsNtB9_6Module4inits0_27exec_slice_range_op_wrapper
FNDA:19367,_RNvNvXsa_NtNtCsipbLpstqwUV_8tycho_vm5instr7cellopsNtB7_7CellOpsNtB9_6Module4inits0_28exec_slice_bits_refs_wrapper
FNDA:4364,_RNvNvXsa_NtNtCsipbLpstqwUV_8tycho_vm5instr7cellopsNtB7_7CellOpsNtB9_6Module4inits0_31exec_slice_int_unary_op_wrapper
FNDA:1372,_RNvNvXsa_NtNtCsipbLpstqwUV_8tycho_vm5instr7cellopsNtB7_7CellOpsNtB9_6Module4inits0_32exec_slice_bool_unary_op_wrapper
FNDA:1693,_RNvNvXsa_NtNtCsipbLpstqwUV_8tycho_vm5instr7cellopsNtB7_7CellOpsNtB9_6Module4inits0_32exec_slice_full_range_op_wrapper
FNDA:865,_RNvNvXsa_NtNtCsipbLpstqwUV_8tycho_vm5instr7cellopsNtB7_7CellOpsNtB9_6Module4inits0_34exec_builder_chk_bits_refs_wrapper
FNDA:7015,_RNvNvXsa_NtNtCsipbLpstqwUV_8tycho_vm5instr7cellopsNtB7_7CellOpsNtB9_6Module4inits0_37exec_store_builder_as_ref_rev_wrapper
FNDA:3687,_RNvNvXsa_NtNtCsipbLpstqwUV_8tycho_vm5instr7cellopsNtB7_7CellOpsNtB9_6Module4inits1_24exec_check_slice_wrapper
FNDA:2366,_RNvNvXsa_NtNtCsipbLpstqwUV_8tycho_vm5instr7cellopsNtB7_7CellOpsNtB9_6Module4inits1_25exec_slice_bin_op_wrapper
FNDA:2615,_RNvNvXsa_NtNtCsipbLpstqwUV_8tycho_vm5instr7cellopsNtB7_7CellOpsNtB9_6Module4inits1_27exec_slice_range_op_wrapper
FNDA:13103,_RNvNvXsa_NtNtCsipbLpstqwUV_8tycho_vm5instr7cellopsNtB7_7CellOpsNtB9_6Module4inits1_31exec_slice_int_unary_op_wrapper
FNDA:2432,_RNvNvXsa_NtNtCsipbLpstqwUV_8tycho_vm5instr7cellopsNtB7_7CellOpsNtB9_6Module4inits1_32exec_slice_bool_unary_op_wrapper
FNDA:3353,_RNvNvXsa_NtNtCsipbLpstqwUV_8tycho_vm5instr7cellopsNtB7_7CellOpsNtB9_6Module4inits1_32exec_slice_full_range_op_wrapper
FNDA:6866,_RNvNvXsa_NtNtCsipbLpstqwUV_8tycho_vm5instr7cellopsNtB7_7CellOpsNtB9_6Module4inits1_34exec_builder_chk_bits_refs_wrapper
FNDA:2692,_RNvNvXsa_NtNtCsipbLpstqwUV_8tycho_vm5instr7cellopsNtB7_7CellOpsNtB9_6Module4inits2_24exec_check_slice_wrapper
FNDA:17223,_RNvNvXsa_NtNtCsipbLpstqwUV_8tycho_vm5instr7cellopsNtB7_7CellOpsNtB9_6Module4inits2_25exec_slice_bin_op_wrapper
FNDA:2567,_RNvNvXsa_NtNtCsipbLpstqwUV_8tycho_vm5instr7cellopsNtB7_7CellOpsNtB9_6Module4inits2_34exec_builder_chk_bits_refs_wrapper
FNDA:1752,_RNvNvXsa_NtNtCsipbLpstqwUV_8tycho_vm5instr7cellopsNtB7_7CellOpsNtB9_6Module4inits3_24exec_check_slice_wrapper
FNDA:4054,_RNvNvXsa_NtNtCsipbLpstqwUV_8tycho_vm5instr7cellopsNtB7_7CellOpsNtB9_6Module4inits3_25exec_slice_bin_op_wrapper
FNDA:11853,_RNvNvXsa_NtNtCsipbLpstqwUV_8tycho_vm5instr7cellopsNtB7_7CellOpsNtB9_6Module4inits3_34exec_builder_chk_bits_refs_wrapper
FNDA:10651,_RNvNvXsa_NtNtCsipbLpstqwUV_8tycho_vm5instr7cellopsNtB7_7CellOpsNtB9_6Module4inits4_25exec_slice_bin_op_wrapper
FNDA:2126,_RNvNvXsa_NtNtCsipbLpstqwUV_8tycho_vm5instr7cellopsNtB7_7CellOpsNtB9_6Module4inits5_25exec_slice_bin_op_wrapper
FNDA:3392,_RNvNvXsa_NtNtCsipbLpstqwUV_8tycho_vm5instr7cellopsNtB7_7CellOpsNtB9_6Module4inits6_25exec_slice_bin_op_wrapper
FNDA:7847,_RNvNvXsa_NtNtCsipbLpstqwUV_8tycho_vm5instr7cellopsNtB7_7CellOpsNtB9_6Module4inits_18exec_split_wrapper
FNDA:3155,_RNvNvXsa_NtNtCsipbLpstqwUV_8tycho_vm5instr7cellopsNtB7_7CellOpsNtB9_6Module4inits_22exec_load_same_wrapper
FNDA:29370,_RNvNvXsa_NtNtCsipbLpstqwUV_8tycho_vm5instr7cellopsNtB7_7CellOpsNtB9_6Module4inits_22exec_store_int_wrapper
FNDA:361,_RNvNvXsa_NtNtCsipbLpstqwUV_8tycho_vm5instr7cellopsNtB7_7CellOpsNtB9_6Module4inits_22exec_store_ref_wrapper
FNDA:7438,_RNvNvXsa_NtNtCsipbLpstqwUV_8tycho_vm5instr7cellopsNtB7_7CellOpsNtB9_6Module4inits_23exec_store_same_wrapper
FNDA:5410,_RNvNvXsa_NtNtCsipbLpstqwUV_8tycho_vm5instr7cellopsNtB7_7CellOpsNtB9_6Module4inits_24exec_check_slice_wrapper
FNDA:2,_RNvNvXsa_NtNtCsipbLpstqwUV_8tycho_vm5instr7cellopsNtB7_7CellOpsNtB9_6Module4inits_24exec_store_slice_wrapper
FNDA:8324,_RNvNvXsa_NtNtCsipbLpstqwUV_8tycho_vm5instr7cellopsNtB7_7CellOpsNtB9_6Module4inits_25exec_slice_bin_op_wrapper
FNDA:3951,_RNvNvXsa_NtNtCsipbLpstqwUV_8tycho_vm5instr7cellopsNtB7_7CellOpsNtB9_6Module4inits_26exec_cell_level_op_wrapper
FNDA:7414,_RNvNvXsa_NtNtCsipbLpstqwUV_8tycho_vm5instr7cellopsNtB7_7CellOpsNtB9_6Module4inits_26exec_store_builder_wrapper
FNDA:9485,_RNvNvXsa_NtNtCsipbLpstqwUV_8tycho_vm5instr7cellopsNtB7_7CellOpsNtB9_6Module4inits_26exec_store_ref_rev_wrapper
FNDA:57941,_RNvNvXsa_NtNtCsipbLpstqwUV_8tycho_vm5instr7cellopsNtB7_7CellOpsNtB9_6Module4inits_27exec_load_int_fixed_wrapper
FNDA:1020,_RNvNvXsa_NtNtCsipbLpstqwUV_8tycho_vm5instr7cellopsNtB7_7CellOpsNtB9_6Module4inits_27exec_slice_range_op_wrapper
FNDA:2667,_RNvNvXsa_NtNtCsipbLpstqwUV_8tycho_vm5instr7cellopsNtB7_7CellOpsNtB9_6Module4inits_28exec_slice_bits_refs_wrapper
FNDA:19758,_RNvNvXsa_NtNtCsipbLpstqwUV_8tycho_vm5instr7cellopsNtB7_7CellOpsNtB9_6Module4inits_28exec_store_slice_rev_wrapper
FNDA:2201,_RNvNvXsa_NtNtCsipbLpstqwUV_8tycho_vm5instr7cellopsNtB7_7CellOpsNtB9_6Module4inits_29exec_builder_chk_bits_wrapper
FNDA:498,_RNvNvXsa_NtNtCsipbLpstqwUV_8tycho_vm5instr7cellopsNtB7_7CellOpsNtB9_6Module4inits_30exec_cell_level_op_var_wrapper
FNDA:11042,_RNvNvXsa_NtNtCsipbLpstqwUV_8tycho_vm5instr7cellopsNtB7_7CellOpsNtB9_6Module4inits_30exec_load_special_cell_wrapper
FNDA:72216,_RNvNvXsa_NtNtCsipbLpstqwUV_8tycho_vm5instr7cellopsNtB7_7CellOpsNtB9_6Module4inits_30exec_slice_begins_with_wrapper
FNDA:14418,_RNvNvXsa_NtNtCsipbLpstqwUV_8tycho_vm5instr7cellopsNtB7_7CellOpsNtB9_6Module4inits_30exec_store_builder_rev_wrapper
FNDA:64006,_RNvNvXsa_NtNtCsipbLpstqwUV_8tycho_vm5instr7cellopsNtB7_7CellOpsNtB9_6Module4inits_31exec_slice_int_unary_op_wrapper
FNDA:6711,_RNvNvXsa_NtNtCsipbLpstqwUV_8tycho_vm5instr7cellopsNtB7_7CellOpsNtB9_6Module4inits_32exec_slice_bool_unary_op_wrapper
FNDA:754,_RNvNvXsa_NtNtCsipbLpstqwUV_8tycho_vm5instr7cellopsNtB7_7CellOpsNtB9_6Module4inits_32exec_slice_full_range_op_wrapper
FNDA:9216,_RNvNvXsa_NtNtCsipbLpstqwUV_8tycho_vm5instr7cellopsNtB7_7CellOpsNtB9_6Module4inits_33exec_store_builder_as_ref_wrapper
FNDA:4964,_RNvNvXsa_NtNtCsipbLpstqwUV_8tycho_vm5instr7cellopsNtB7_7CellOpsNtB9_6Module4inits_34exec_builder_chk_bits_refs_wrapper
FNDA:0,_RNvNvXsa_NtNtCsipbLpstqwUV_8tycho_vm5instr7cellopsNtB7_7CellOpsNtB9_6Module4inits_37exec_store_builder_as_ref_rev_wrapper
FNDA:0,_RNvXs2_NtNtCsipbLpstqwUV_8tycho_vm5instr7cellopsNtB5_9CheckModeNtNtCscHntIWw2aYb_4core3fmt7Display3fmt
FNDA:0,_RNvXs4_NtNtCsipbLpstqwUV_8tycho_vm5instr7cellopsNtB5_13LoadLeIntArgsNtNtCscHntIWw2aYb_4core3fmt7Display3fmt
FNDA:0,_RNvXs_NtNtCsipbLpstqwUV_8tycho_vm5instr7cellopsNtB4_14StoreLeIntArgsNtNtCscHntIWw2aYb_4core3fmt7Display3fmt
FNDA:0,_RNvMs0_NtNtCsipbLpstqwUV_8tycho_vm5instr7cellopsNtB5_12StoreIntArgs7display
FNDA:0,_RNvMs0_NtNtCsipbLpstqwUV_8tycho_vm5instr7cellopsNtB5_12StoreIntArgs9display_x
FNDA:0,_RNvMs5_NtNtCsipbLpstqwUV_8tycho_vm5instr7cellopsNtB5_11LoadIntArgs7display
FNDA:0,_RNvMs5_NtNtCsipbLpstqwUV_8tycho_vm5instr7cellopsNtB5_11LoadIntArgs9display_x
FNDA:0,_RNvMs7_NtNtCsipbLpstqwUV_8tycho_vm5instr7cellopsNtB5_13LoadSliceArgs7display
FNDA:0,_RNvMs7_NtNtCsipbLpstqwUV_8tycho_vm5instr7cellopsNtB5_13LoadSliceArgs9display_x
FNDA:0,_RNvXININtNtCsipbLpstqwUV_8tycho_vm5instr7cellopss1_0KpEINtB5_19DisplayStoreIntArgsKpENtNtCscHntIWw2aYb_4core3fmt7Display3fmtB9_
FNDA:0,_RNvXININtNtCsipbLpstqwUV_8tycho_vm5instr7cellopss6_0KpEINtB5_18DisplayLoadIntArgsKpENtNtCscHntIWw2aYb_4core3fmt7Display3fmtB9_
FNDA:0,_RNvXININtNtCsipbLpstqwUV_8tycho_vm5instr7cellopss8_0KpEINtB5_20DisplayLoadSliceArgsKpENtNtCscHntIWw2aYb_4core3fmt7Display3fmtB9_
FNF:121
FNH:106
DA:26,3888490
DA:31,441914
DA:32,441914
DA:33,441914
DA:46,185004
DA:47,185004
DA:48,185004
DA:61,327896
DA:62,327896
DA:63,327896
DA:76,2585681
DA:77,2585681
DA:78,2585681
DA:79,2585681
DA:93,59846
DA:94,59846
DA:95,59846
DA:96,59846
DA:97,59846
DA:117,81367
DA:118,81367
DA:119,81367
DA:120,81367
DA:121,81367
DA:136,121936
DA:137,121936
DA:138,121936
DA:139,121936
DA:140,121936
DA:141,121936
DA:142,121936
DA:143,121936
DA:144,121936
DA:145,108212
DA:146,108212
DA:147,108212
DA:148,108212
DA:149,108212
DA:150,108212
DA:151,108212
DA:152,108212
DA:153,108212
DA:154,108212
DA:155,108212
DA:156,108212
DA:157,108212
DA:158,121936
DA:184,4077577
DA:185,4077577
DA:186,4077577
DA:187,4077577
DA:188,4077577
DA:189,4027036
DA:190,4027036
DA:191,4027036
DA:192,4027036
DA:193,4027036
DA:194,4027036
DA:195,4027036
DA:196,4027036
DA:197,4027036
DA:198,4027036
DA:199,4027036
DA:200,4027036
DA:201,4027036
DA:202,4077577
DA:232,38232
DA:233,38232
DA:234,38232
DA:235,31008
DA:236,31008
DA:237,20810
DA:238,6706
DA:239,1331
DA:241,2161
DA:242,2161
DA:245,31008
DA:246,31008
DA:247,38232
DA:250,15752
DA:251,15752
DA:252,15752
DA:253,13191
DA:255,10836
DA:256,10836
DA:258,10836
DA:259,10836
DA:260,10836
DA:261,15752
DA:272,61035
DA:273,23466
DA:274,23466
DA:275,23466
DA:277,61035
DA:278,61035
DA:279,59727
DA:281,56054
DA:282,56054
DA:284,56054
DA:285,10998
DA:286,5055
DA:287,1877
DA:289,2360
DA:292,15661
DA:294,4032
DA:295,10626
DA:297,2075
DA:300,3370
DA:303,56054
DA:304,56054
DA:305,61035
DA:311,88722
DA:312,88722
DA:313,88722
DA:314,81070
DA:315,81070
DA:316,7236
DA:317,62407
DA:318,4354
DA:319,7073
DA:320,0
DA:321,81070
DA:322,81070
DA:323,88722
DA:328,1776405
DA:329,1776405
DA:330,1776405
DA:331,1776405
DA:334,72209
DA:335,72209
DA:336,72209
DA:337,65916
DA:338,65884
DA:339,65884
DA:340,72209
DA:344,222264
DA:345,222264
DA:346,222264
DA:347,222264
DA:352,20246
DA:353,20246
DA:354,20246
DA:355,9426
DA:357,2505
DA:358,1126
DA:359,1379
DA:360,1379
DA:361,1379
DA:363,1379
DA:364,20246
DA:369,83768
DA:370,83768
DA:371,83768
DA:372,70462
DA:374,64122
DA:375,5927
DA:376,58195
DA:378,58195
DA:379,58171
DA:381,58171
DA:382,83768
DA:387,28465
DA:388,28465
DA:389,28465
DA:390,22200
DA:392,19559
DA:393,2815
DA:394,16744
DA:395,16744
DA:396,16744
DA:397,16744
DA:399,16744
DA:400,28465
DA:403,9321
DA:404,9321
DA:405,9321
DA:406,7411
DA:407,9321
DA:414,37085
DA:415,37085
DA:416,37085
DA:420,29050
DA:421,29050
DA:422,29050
DA:423,28108
DA:425,25215
DA:426,6912
DA:427,18303
DA:429,18303
DA:430,18298
DA:432,18298
DA:433,29050
DA:437,25016
DA:438,25016
DA:439,25016
DA:440,18742
DA:442,14594
DA:443,215
DA:444,14379
DA:445,14379
DA:446,14379
DA:448,14379
DA:449,25016
DA:453,12843
DA:454,12843
DA:455,12843
DA:456,10727
DA:458,7190
DA:459,2595
DA:460,4595
DA:461,4595
DA:462,4595
DA:464,4595
DA:465,12843
DA:469,30232
DA:470,30232
DA:471,30232
DA:472,20375
DA:474,14787
DA:475,4601
DA:476,10186
DA:477,10186
DA:478,10186
DA:479,10186
DA:481,10186
DA:482,30232
DA:486,19226
DA:487,19226
DA:488,19226
DA:489,15234
DA:491,13304
DA:492,821
DA:493,12483
DA:494,12483
DA:495,12483
DA:497,12483
DA:498,19226
DA:501,9988
DA:502,9988
DA:503,9988
DA:504,9988
DA:505,7722
DA:506,7722
DA:507,7722
DA:508,7722
DA:509,7722
DA:510,7722
DA:512,4728
DA:513,4728
DA:514,764
DA:518,3964
DA:519,3964
DA:520,3964
DA:521,5254
DA:522,5254
DA:524,3964
DA:527,3964
DA:528,3964
DA:529,9988
DA:551,71090
DA:552,71090
DA:553,71090
DA:555,70241
DA:556,70241
DA:557,70241
DA:558,789
DA:561,69452
DA:568,63618
DA:569,26819
DA:570,27199
DA:571,1569
DA:572,8031
DA:574,27511
DA:575,27511
DA:576,27511
DA:577,27511
DA:578,27511
DA:582,36107
DA:583,36107
DA:584,23023
DA:585,13084
DA:586,0
DA:589,36107
DA:590,36107
DA:591,71090
DA:594,27455
DA:595,27455
DA:597,27455
DA:598,24655
DA:600,8010
DA:603,8010
DA:605,2562
DA:606,2562
DA:607,27455
DA:610,120019
DA:611,120019
DA:612,120019
DA:614,88008
DA:615,88008
DA:616,88008
DA:617,120019
DA:620,35170
DA:621,35170
DA:622,35170
DA:623,28790
DA:624,28790
DA:625,35170
DA:628,9956
DA:629,9956
DA:630,9956
DA:631,7909
DA:632,7909
DA:633,9956
DA:636,14224
DA:637,14224
DA:638,14224
DA:639,10621
DA:640,10621
DA:641,10621
DA:642,14224
DA:645,6810
DA:646,6810
DA:647,6810
DA:648,2223
DA:649,2223
DA:650,6810
DA:653,14160
DA:654,14160
DA:655,14160
DA:656,13121
DA:657,13121
DA:658,14160
DA:661,5438
DA:662,5438
DA:663,5438
DA:664,3277
DA:665,3277
DA:666,3277
DA:667,5438
DA:671,18602
DA:672,18602
DA:673,18602
DA:675,15973
DA:676,15973
DA:677,2183
DA:678,13790
DA:679,512
DA:680,13278
DA:681,15461
DA:682,18602
DA:690,29075
DA:691,29075
DA:694,29075
DA:695,8826
DA:696,7531
DA:698,12718
DA:699,12394
DA:700,12187
DA:703,25912
DA:705,13660
DA:706,13660
DA:707,7310
DA:708,6350
DA:709,1244
DA:710,5106
DA:711,12416
DA:712,29075
DA:717,21650
DA:718,21650
DA:720,21650
DA:721,18975
DA:722,2675
DA:724,20252
DA:725,13627
DA:727,11877
DA:728,11877
DA:729,1815
DA:733,10062
DA:734,10062
DA:735,5907
DA:736,4155
DA:740,10062
DA:741,10062
DA:742,21650
DA:746,16624
DA:747,16624
DA:748,16624
DA:749,16624
DA:750,16624
DA:751,16624
DA:752,16624
DA:753,16624
DA:754,16624
DA:755,16295
DA:756,16295
DA:757,16295
DA:758,16295
DA:759,16295
DA:760,16295
DA:763,16295
DA:764,16295
DA:766,16295
DA:767,16295
DA:768,16295
DA:769,16295
DA:770,14215
DA:771,12911
DA:772,12911
DA:773,16624
DA:807,65101
DA:808,65101
DA:809,65101
DA:811,17468
DA:812,17468
DA:813,17468
DA:815,17467
DA:816,17467
DA:817,65101
DA:820,25060
DA:821,25060
DA:822,13517
DA:823,13517
DA:824,13517
DA:825,2581
DA:827,10936
DA:828,25060
DA:832,73627
DA:833,73627
DA:834,73627
DA:835,73627
DA:838,7030
DA:839,7030
DA:840,7030
DA:841,1912
DA:843,543
DA:844,543
DA:845,543
DA:847,543
DA:848,543
DA:849,543
DA:850,543
DA:851,7030
DA:854,14142
DA:855,14142
DA:856,14142
DA:857,5167
DA:859,2764
DA:860,2764
DA:861,2764
DA:863,2763
DA:864,2763
DA:865,2763
DA:866,2763
DA:867,2763
DA:868,14142
DA:871,57891
DA:872,57891
DA:873,57891
DA:874,57891
DA:877,11238
DA:878,11238
DA:879,11238
DA:880,6400
DA:881,11238
DA:888,42582
DA:889,42582
DA:890,42582
DA:893,46909
DA:894,46909
DA:895,46909
DA:897,30622
DA:898,30622
DA:899,30622
DA:900,30622
DA:901,30622
DA:902,30622
DA:903,9238
DA:904,9238
DA:905,9238
DA:906,9238
DA:907,9238
DA:909,21384
DA:911,21384
DA:912,21384
DA:913,21384
DA:914,21384
DA:915,21384
DA:916,21384
DA:917,21384
DA:918,21384
DA:921,21384
DA:922,17426
DA:923,17426
DA:924,17426
DA:925,0
DA:926,0
DA:927,0
DA:928,3958
DA:931,21384
DA:933,0
DA:936,30622
DA:937,30622
DA:938,30622
DA:939,30622
DA:940,30622
DA:942,30622
DA:943,30622
DA:944,0
DA:946,30622
DA:947,46909
DA:950,12172
DA:951,12172
DA:952,12172
DA:953,9625
DA:954,12172
DA:961,82253
DA:962,82253
DA:963,82253
DA:969,18523
DA:970,18523
DA:971,18523
DA:972,17468
DA:974,14274
DA:975,14274
DA:976,14274
DA:977,530
DA:980,13744
DA:981,8840
DA:982,988
DA:983,1315
DA:984,2601
DA:986,13744
DA:987,13744
DA:989,13744
DA:990,13744
DA:991,13744
DA:992,18523
DA:995,8915
DA:996,8915
DA:997,8915
DA:998,7602
DA:999,5859
DA:1001,2927
DA:1002,2927
DA:1003,2927
DA:1004,2618
DA:1007,309
DA:1008,309
DA:1009,309
DA:1011,309
DA:1012,309
DA:1013,309
DA:1014,8915
DA:1018,79234
DA:1019,79234
DA:1020,79234
DA:1021,72408
DA:1022,72408
DA:1023,79234
DA:1027,29564
DA:1028,29564
DA:1029,29564
DA:1030,29564
DA:1031,29564
DA:1032,29564
DA:1033,28488
DA:1034,28488
DA:1035,28488
DA:1036,28488
DA:1037,28488
DA:1038,28488
DA:1041,28488
DA:1042,28488
DA:1044,28488
DA:1045,28488
DA:1046,28488
DA:1047,28488
DA:1048,28488
DA:1049,28488
DA:1050,28488
DA:1051,28488
DA:1052,29564
DA:1088,8186
DA:1089,8186
DA:1090,8186
DA:1091,6839
DA:1092,6538
DA:1094,5706
DA:1095,5706
DA:1096,5706
DA:1097,855
DA:1100,4851
DA:1101,724
DA:1102,300
DA:1103,581
DA:1104,3246
DA:1106,4851
DA:1107,4851
DA:1109,4851
DA:1110,4851
DA:1111,4851
DA:1112,8186
DA:1115,11352
DA:1116,11352
DA:1117,11352
DA:1118,9911
DA:1119,8610
DA:1120,7226
DA:1121,6920
DA:1123,3475
DA:1124,3475
DA:1125,3475
DA:1126,928
DA:1129,2547
DA:1130,2547
DA:1131,2547
DA:1133,2547
DA:1134,2547
DA:1135,2547
DA:1136,11352
DA:1140,15892
DA:1141,15892
DA:1142,15892
DA:1143,11997
DA:1144,9188
DA:1146,4233
DA:1147,4233
DA:1148,3347
DA:1149,455
DA:1150,2892
DA:1152,2892
DA:1153,2892
DA:1154,2892
DA:1155,886
DA:1156,886
DA:1157,886
DA:1158,886
DA:1159,886
DA:1161,886
DA:1163,886
DA:1164,886
DA:1166,886
DA:1167,293
DA:1168,593
DA:1169,886
DA:1170,15892
DA:1173,6995
DA:1174,6995
DA:1175,6995
DA:1176,3278
DA:1179,3278
DA:1180,3278
DA:1181,3278
DA:1183,3277
DA:1184,3277
DA:1185,3277
DA:1186,6995
DA:1190,18889
DA:1191,18889
DA:1192,0
DA:1193,0
DA:1194,0
DA:1196,0
DA:1198,0
DA:1200,18889
DA:1201,18889
DA:1203,13519
DA:1205,13521
DA:1206,0
DA:1207,13521
DA:1208,13521
DA:1209,13521
DA:1210,13521
DA:1212,13519
DA:1213,13519
DA:1214,13519
DA:1215,13519
DA:1216,13519
DA:1217,0
DA:1218,0
DA:1219,0
DA:1220,0
DA:1221,0
DA:1222,0
DA:1223,0
DA:1224,0
DA:1225,0
DA:1228,0
DA:1229,0
DA:1230,0
DA:1232,0
DA:1233,0
DA:1235,0
DA:1236,0
DA:1238,0
DA:1242,13519
DA:1243,13519
DA:1244,9927
DA:1245,3592
DA:1246,13519
DA:1247,18889
DA:1255,25309
DA:1256,25309
DA:1258,25309
DA:1259,12780
DA:1260,8102
DA:1262,4427
DA:1263,3367
DA:1264,2115
DA:1267,20312
DA:1269,16996
DA:1270,16996
DA:1271,6425
DA:1272,10571
DA:1273,3140
DA:1274,7431
DA:1275,13856
DA:1276,25309
DA:1279,14994
DA:1280,14994
DA:1281,14994
DA:1282,13959
DA:1284,4655
DA:1285,4655
DA:1286,1706
DA:1287,1706
DA:1288,14994
DA:1293,27300
DA:1294,27300
DA:1295,27300
DA:1297,14494
DA:1298,14494
DA:1299,11878
DA:1300,2616
DA:1301,14494
DA:1302,10189
DA:1303,4305
DA:1304,14494
DA:1305,27300
DA:1308,10821
DA:1309,10821
DA:1310,10821
DA:1312,6081
DA:1313,6081
DA:1314,3154
DA:1315,3154
DA:1316,10821
DA:1319,154816
DA:1320,154816
DA:1321,154816
DA:1323,133799
DA:1324,133799
DA:1325,35381
DA:1326,2147
DA:1327,33234
DA:1328,33234
DA:1329,33234
DA:1330,23737
DA:1331,9497
DA:1333,33234
DA:1334,33234
DA:1335,98418
DA:1337,98418
DA:1338,98418
DA:1340,98418
DA:1341,25958
DA:1342,13170
DA:1343,35508
DA:1344,23782
DA:1346,98418
DA:1348,98418
DA:1349,98418
DA:1350,98418
DA:1351,98418
DA:1352,55576
DA:1353,55576
DA:1354,42842
DA:1356,98418
DA:1357,30675
DA:1358,67743
DA:1359,98418
DA:1360,154816
DA:1365,26754
DA:1366,26754
DA:1367,26754
DA:1368,21658
DA:1369,5096
DA:1371,26390
DA:1373,22160
DA:1374,22160
DA:1375,19035
DA:1376,3125
DA:1378,22160
DA:1379,22160
DA:1380,22160
DA:1381,22160
DA:1382,22160
DA:1383,22160
DA:1385,22160
DA:1387,22160
DA:1388,22160
DA:1389,22160
DA:1390,22160
DA:1391,22160
DA:1392,22160
DA:1393,26754
DA:1396,15676
DA:1397,15676
DA:1398,15676
DA:1399,11950
DA:1400,11950
DA:1401,11950
DA:1402,11950
DA:1403,11950
DA:1404,15676
DA:1407,35922
DA:1408,35922
DA:1410,34496
DA:1411,35922
DA:1412,34842
DA:1413,29608
DA:1415,5234
DA:1419,34496
DA:1420,4888
DA:1421,4888
DA:1422,4888
DA:1424,29608
DA:1426,34496
DA:1427,35922
DA:1430,10888
DA:1431,10888
DA:1432,10888
DA:1433,3291
DA:1434,3291
DA:1435,3291
DA:1436,10888
DA:1439,7436
DA:1440,7436
DA:1441,7436
DA:1442,2104
DA:1443,2104
DA:1444,2104
DA:1445,7436
DA:1449,5252
DA:1450,5252
DA:1451,5252
DA:1455,3811
DA:1456,3811
DA:1457,3811
DA:1458,1710
DA:1459,3811
DA:1489,954814
DA:1490,954814
DA:1491,954814
DA:1492,954814
DA:1493,954814
DA:1494,954814
DA:1495,954814
DA:1496,954814
DA:1497,942726
DA:1498,942726
DA:1500,942726
DA:1501,0
DA:1503,942726
DA:1504,942726
DA:1506,942726
DA:1507,942726
DA:1508,942726
DA:1509,942726
DA:1510,432209
DA:1512,184944
DA:1513,184637
DA:1516,325573
DA:1517,325268
DA:1518,325268
DA:1521,942114
DA:1522,954814
DA:1524,2726894
DA:1525,2726894
DA:1526,2726894
DA:1527,2726894
DA:1528,2726894
DA:1529,2726894
DA:1530,2710531
DA:1531,2710531
DA:1532,2710531
DA:1533,2710531
DA:1534,2710531
DA:1535,2710531
DA:1539,2710531
DA:1540,2710531
DA:1541,2710531
DA:1542,2710531
DA:1543,2710531
DA:1544,2710531
DA:1545,2710531
DA:1547,2710531
DA:1548,2710531
DA:1549,2726894
DA:1608,266760
DA:1609,7211
DA:1610,7211
DA:1611,7211
DA:1612,7211
DA:1613,7211
DA:1614,7211
DA:1615,7211
DA:1616,7211
DA:1617,5426
DA:1618,5426
DA:1620,1785
DA:1621,1785
DA:1623,7211
DA:1624,7211
DA:1625,7211
DA:1629,266760
DA:1630,229063
DA:1631,206015
DA:1633,37697
DA:1634,36195
DA:1637,220262
DA:1638,3307
DA:1639,3065
DA:1641,242
DA:1643,216955
DA:1644,216955
DA:1645,216955
DA:1646,216955
DA:1647,6481
DA:1648,4146
DA:1650,2335
DA:1651,2335
DA:1652,2335
DA:1653,2335
DA:1654,2335
DA:1656,210474
DA:1657,210474
DA:1658,210474
DA:1659,210474
DA:1660,210474
DA:1661,93797
DA:1663,116677
DA:1664,110585
DA:1665,110585
DA:1667,6092
DA:1670,116677
DA:1672,116677
DA:1673,94710
DA:1674,94710
DA:1675,94710
DA:1676,94710
DA:1677,94710
DA:1678,94710
DA:1679,94710
DA:1680,94710
DA:1682,21967
DA:1684,116677
DA:1685,116677
DA:1686,116677
DA:1687,116677
DA:1692,210474
DA:1693,266760
DA:1695,25012
DA:1696,25012
DA:1697,25012
DA:1698,25012
DA:1699,25012
DA:1700,25012
DA:1701,25012
DA:1702,25012
DA:1703,25012
DA:1704,25012
DA:1705,25012
DA:1706,17831
DA:1707,17831
DA:1708,17831
DA:1709,17831
DA:1711,7181
DA:1713,25012
DA:1715,346709
DA:1716,346709
DA:1717,346709
DA:1718,346709
DA:1719,346709
DA:1720,346709
DA:1721,346709
DA:1722,52604
DA:1723,294105
DA:1724,346709
DA:1725,346709
DA:1731,63618
DA:1732,63618
DA:1733,63618
DA:1735,0
DA:1736,0
DA:1737,0
DA:1739,133859
DA:1740,133859
DA:1741,133859
DA:1745,0
DA:1746,0
DA:1747,0
DA:1748,0
DA:1749,0
DA:1756,222264
DA:1757,222264
DA:1758,222264
DA:1760,342953
DA:1761,342953
DA:1762,342953
DA:1764,342953
DA:1765,342953
DA:1766,342953
DA:1768,273971
DA:1769,273971
DA:1770,273971
DA:1772,220262
DA:1773,220262
DA:1774,220262
DA:1776,0
DA:1777,0
DA:1778,0
DA:1780,0
DA:1781,0
DA:1782,0
DA:1788,0
DA:1789,0
DA:1791,0
DA:1792,0
DA:1793,0
DA:1794,0
DA:1796,0
DA:1797,0
DA:1808,0
DA:1809,0
DA:1810,0
DA:1811,0
DA:1812,0
DA:1814,0
DA:1817,122609
DA:1818,122609
DA:1820,92960
DA:1821,29971
DA:1822,981
DA:1823,28990
DA:1824,28990
DA:1825,28990
DA:1826,232
DA:1827,28758
DA:1829,28990
DA:1830,28990
DA:1831,62989
DA:1833,62989
DA:1834,62989
DA:1835,62989
DA:1837,62989
DA:1839,62989
DA:1840,62989
DA:1841,62989
DA:1842,62989
DA:1843,48204
DA:1844,48204
DA:1845,14785
DA:1847,62989
DA:1848,13279
DA:1849,49710
DA:1850,62989
DA:1851,122609
DA:1857,98418
DA:1858,98418
DA:1859,98418
DA:1861,0
DA:1862,0
DA:1863,0
DA:1865,232217
DA:1866,232217
DA:1867,232217
DA:1869,131652
DA:1870,131652
DA:1871,131652
DA:1873,133799
DA:1874,133799
DA:1875,133799
DA:1879,0
DA:1880,0
DA:1881,0
DA:1882,0
DA:1883,0
DA:1884,0
DA:1885,0
DA:1892,73627
DA:1893,73627
DA:1894,73627
DA:1896,74227
DA:1897,74227
DA:1898,74227
DA:1900,74227
DA:1901,74227
DA:1902,74227
DA:1904,91979
DA:1905,91979
DA:1906,91979
DA:1908,92960
DA:1909,92960
DA:1910,92960
DA:1912,0
DA:1913,0
DA:1914,0
DA:1916,0
DA:1917,0
DA:1918,0
DA:1924,0
DA:1925,0
DA:1927,0
DA:1928,0
DA:1929,0
DA:1930,0
DA:1932,0
DA:1933,0
DA:1936,149769
DA:1937,149769
DA:1939,143198
DA:1940,32199
DA:1941,521
DA:1942,31678
DA:1943,31678
DA:1944,31678
DA:1945,9968
DA:1946,21710
DA:1948,31678
DA:1949,31678
DA:1950,110999
DA:1952,110999
DA:1953,110999
DA:1954,110999
DA:1955,110999
DA:1957,110999
DA:1958,110999
DA:1960,110999
DA:1961,110999
DA:1962,110999
DA:1963,110999
DA:1964,85583
DA:1965,85583
DA:1966,25416
DA:1968,110999
DA:1969,37886
DA:1970,73113
DA:1971,110999
DA:1972,149769
DA:1978,142677
DA:1979,142677
DA:1980,142677
DA:1982,143198
DA:1983,143198
DA:1984,143198
DA:1986,0
DA:1987,0
DA:1988,0
DA:1990,0
DA:1991,0
DA:1992,0
DA:1998,0
DA:1999,0
DA:2001,0
DA:2002,0
DA:2003,0
DA:2005,0
DA:2006,0
DA:2017,100896
DA:2018,100896
DA:2019,100896
DA:2020,100896
DA:2021,100896
DA:2022,100896
DA:2024,66482
DA:2025,98152
DA:2026,98152
DA:2027,31670
DA:2028,3036
DA:2029,28634
DA:2030,28634
DA:2031,28634
DA:2032,28634
DA:2034,66482
DA:2035,66482
DA:2036,66482
DA:2037,66482
DA:2038,66482
DA:2040,66482
DA:2041,59559
DA:2042,6923
DA:2043,66482
DA:2044,100896
DA:2047,104846
DA:2048,104846
DA:2049,118098
DA:2050,13252
DA:2051,13252
DA:2052,104846
DA:2053,104846
DA:2061,6962
DA:2062,6962
DA:2063,3729
DA:2064,954
DA:2065,954
DA:2066,954
DA:2067,954
DA:2068,2775
DA:2070,3729
DA:2071,6962
BRF:0
BRH:0
LF:1216
LH:1119
end_of_record
SF:/home/odm3n/dev/work/everscale-vm/vm/src/instr/cmpops.rs
FN:84,_RNvNtNtCsipbLpstqwUV_8tycho_vm5instr6cmpops11exec_is_nan
FN:92,_RNvNtNtCsipbLpstqwUV_8tycho_vm5instr6cmpops12exec_chk_nan
FN:70,_RNvNtNtCsipbLpstqwUV_8tycho_vm5instr6cmpops12exec_cmp_int
FN:101,_RNvNtNtCsipbLpstqwUV_8tycho_vm5instr6cmpops16as_truncated_i64
FN:46,_RNvNtNtCsipbLpstqwUV_8tycho_vm5instr6cmpops8exec_cmp
FN:17,_RNvNtNtCsipbLpstqwUV_8tycho_vm5instr6cmpops8exec_sgn
FN:114,_RNvNtNtCsipbLpstqwUV_8tycho_vm5instr6cmpops9check_cmp
FN:13,_RNvNvXs_NtNtCsipbLpstqwUV_8tycho_vm5instr6cmpopsNtB6_6CmpOpsNtB8_6Module4init16exec_cmp_wrapper
FN:13,_RNvNvXs_NtNtCsipbLpstqwUV_8tycho_vm5instr6cmpopsNtB6_6CmpOpsNtB8_6Module4init16exec_sgn_wrapper
FN:13,_RNvNvXs_NtNtCsipbLpstqwUV_8tycho_vm5instr6cmpopsNtB6_6CmpOpsNtB8_6Module4init19exec_is_nan_wrapper
FN:13,_RNvNvXs_NtNtCsipbLpstqwUV_8tycho_vm5instr6cmpopsNtB6_6CmpOpsNtB8_6Module4init20exec_chk_nan_wrapper
FN:13,_RNvNvXs_NtNtCsipbLpstqwUV_8tycho_vm5instr6cmpopsNtB6_6CmpOpsNtB8_6Module4init20exec_cmp_int_wrapper
FN:13,_RNvNvXs_NtNtCsipbLpstqwUV_8tycho_vm5instr6cmpopsNtB6_6CmpOpsNtB8_6Module4inits0_16exec_cmp_wrapper
FN:13,_RNvNvXs_NtNtCsipbLpstqwUV_8tycho_vm5instr6cmpopsNtB6_6CmpOpsNtB8_6Module4inits0_20exec_cmp_int_wrapper
FN:13,_RNvNvXs_NtNtCsipbLpstqwUV_8tycho_vm5instr6cmpopsNtB6_6CmpOpsNtB8_6Module4inits1_16exec_cmp_wrapper
FN:13,_RNvNvXs_NtNtCsipbLpstqwUV_8tycho_vm5instr6cmpopsNtB6_6CmpOpsNtB8_6Module4inits1_20exec_cmp_int_wrapper
FN:13,_RNvNvXs_NtNtCsipbLpstqwUV_8tycho_vm5instr6cmpopsNtB6_6CmpOpsNtB8_6Module4inits2_16exec_cmp_wrapper
FN:13,_RNvNvXs_NtNtCsipbLpstqwUV_8tycho_vm5instr6cmpopsNtB6_6CmpOpsNtB8_6Module4inits2_20exec_cmp_int_wrapper
FN:13,_RNvNvXs_NtNtCsipbLpstqwUV_8tycho_vm5instr6cmpopsNtB6_6CmpOpsNtB8_6Module4inits3_16exec_cmp_wrapper
FN:13,_RNvNvXs_NtNtCsipbLpstqwUV_8tycho_vm5instr6cmpopsNtB6_6CmpOpsNtB8_6Module4inits3_20exec_cmp_int_wrapper
FN:13,_RNvNvXs_NtNtCsipbLpstqwUV_8tycho_vm5instr6cmpopsNtB6_6CmpOpsNtB8_6Module4inits4_16exec_cmp_wrapper
FN:13,_RNvNvXs_NtNtCsipbLpstqwUV_8tycho_vm5instr6cmpopsNtB6_6CmpOpsNtB8_6Module4inits4_20exec_cmp_int_wrapper
FN:13,_RNvNvXs_NtNtCsipbLpstqwUV_8tycho_vm5instr6cmpopsNtB6_6CmpOpsNtB8_6Module4inits5_16exec_cmp_wrapper
FN:13,_RNvNvXs_NtNtCsipbLpstqwUV_8tycho_vm5instr6cmpopsNtB6_6CmpOpsNtB8_6Module4inits5_20exec_cmp_int_wrapper
FN:13,_RNvNvXs_NtNtCsipbLpstqwUV_8tycho_vm5instr6cmpopsNtB6_6CmpOpsNtB8_6Module4inits6_16exec_cmp_wrapper
FN:13,_RNvNvXs_NtNtCsipbLpstqwUV_8tycho_vm5instr6cmpopsNtB6_6CmpOpsNtB8_6Module4inits7_16exec_cmp_wrapper
FN:13,_RNvNvXs_NtNtCsipbLpstqwUV_8tycho_vm5instr6cmpopsNtB6_6CmpOpsNtB8_6Module4inits8_16exec_cmp_wrapper
FN:13,_RNvNvXs_NtNtCsipbLpstqwUV_8tycho_vm5instr6cmpopsNtB6_6CmpOpsNtB8_6Module4inits9_16exec_cmp_wrapper
FN:13,_RNvNvXs_NtNtCsipbLpstqwUV_8tycho_vm5instr6cmpopsNtB6_6CmpOpsNtB8_6Module4inits_16exec_cmp_wrapper
FN:13,_RNvNvXs_NtNtCsipbLpstqwUV_8tycho_vm5instr6cmpopsNtB6_6CmpOpsNtB8_6Module4inits_16exec_sgn_wrapper
FN:13,_RNvNvXs_NtNtCsipbLpstqwUV_8tycho_vm5instr6cmpopsNtB6_6CmpOpsNtB8_6Module4inits_20exec_cmp_int_wrapper
FN:13,_RNvNvXs_NtNtCsipbLpstqwUV_8tycho_vm5instr6cmpopsNtB6_6CmpOpsNtB8_6Module4initsa_16exec_cmp_wrapper
FN:13,_RNvNvXs_NtNtCsipbLpstqwUV_8tycho_vm5instr6cmpopsNtB6_6CmpOpsNtB8_6Module4initsb_16exec_cmp_wrapper
FNDA:597166,_RNvNtNtCsipbLpstqwUV_8tycho_vm5instr6cmpops11exec_is_nan
FNDA:434184,_RNvNtNtCsipbLpstqwUV_8tycho_vm5instr6cmpops12exec_chk_nan
FNDA:599150,_RNvNtNtCsipbLpstqwUV_8tycho_vm5instr6cmpops12exec_cmp_int
FNDA:593925,_RNvNtNtCsipbLpstqwUV_8tycho_vm5instr6cmpops16as_truncated_i64
FNDA:860361,_RNvNtNtCsipbLpstqwUV_8tycho_vm5instr6cmpops8exec_cmp
FNDA:381829,_RNvNtNtCsipbLpstqwUV_8tycho_vm5instr6cmpops8exec_sgn
FNDA:1398912,_RNvNtNtCsipbLpstqwUV_8tycho_vm5instr6cmpops9check_cmp
FNDA:121654,_RNvNvXs_NtNtCsipbLpstqwUV_8tycho_vm5instr6cmpopsNtB6_6CmpOpsNtB8_6Module4init16exec_cmp_wrapper
FNDA:363200,_RNvNvXs_NtNtCsipbLpstqwUV_8tycho_vm5instr6cmpopsNtB6_6CmpOpsNtB8_6Module4init16exec_sgn_wrapper
FNDA:597166,_RNvNvXs_NtNtCsipbLpstqwUV_8tycho_vm5instr6cmpopsNtB6_6CmpOpsNtB8_6Module4init19exec_is_nan_wrapper
FNDA:434184,_RNvNvXs_NtNtCsipbLpstqwUV_8tycho_vm5instr6cmpopsNtB6_6CmpOpsNtB8_6Module4init20exec_chk_nan_wrapper
FNDA:198821,_RNvNvXs_NtNtCsipbLpstqwUV_8tycho_vm5instr6cmpopsNtB6_6CmpOpsNtB8_6Module4init20exec_cmp_int_wrapper
FNDA:97422,_RNvNvXs_NtNtCsipbLpstqwUV_8tycho_vm5instr6cmpopsNtB6_6CmpOpsNtB8_6Module4inits0_16exec_cmp_wrapper
FNDA:87449,_RNvNvXs_NtNtCsipbLpstqwUV_8tycho_vm5instr6cmpopsNtB6_6CmpOpsNtB8_6Module4inits0_20exec_cmp_int_wrapper
FNDA:76421,_RNvNvXs_NtNtCsipbLpstqwUV_8tycho_vm5instr6cmpopsNtB6_6CmpOpsNtB8_6Module4inits1_16exec_cmp_wrapper
FNDA:161060,_RNvNvXs_NtNtCsipbLpstqwUV_8tycho_vm5instr6cmpopsNtB6_6CmpOpsNtB8_6Module4inits1_20exec_cmp_int_wrapper
FNDA:59066,_RNvNvXs_NtNtCsipbLpstqwUV_8tycho_vm5instr6cmpopsNtB6_6CmpOpsNtB8_6Module4inits2_16exec_cmp_wrapper
FNDA:20257,_RNvNvXs_NtNtCsipbLpstqwUV_8tycho_vm5instr6cmpopsNtB6_6CmpOpsNtB8_6Module4inits2_20exec_cmp_int_wrapper
FNDA:59979,_RNvNvXs_NtNtCsipbLpstqwUV_8tycho_vm5instr6cmpopsNtB6_6CmpOpsNtB8_6Module4inits3_16exec_cmp_wrapper
FNDA:2896,_RNvNvXs_NtNtCsipbLpstqwUV_8tycho_vm5instr6cmpopsNtB6_6CmpOpsNtB8_6Module4inits3_20exec_cmp_int_wrapper
FNDA:163288,_RNvNvXs_NtNtCsipbLpstqwUV_8tycho_vm5instr6cmpopsNtB6_6CmpOpsNtB8_6Module4inits4_16exec_cmp_wrapper
FNDA:1668,_RNvNvXs_NtNtCsipbLpstqwUV_8tycho_vm5instr6cmpopsNtB6_6CmpOpsNtB8_6Module4inits4_20exec_cmp_int_wrapper
FNDA:7270,_RNvNvXs_NtNtCsipbLpstqwUV_8tycho_vm5instr6cmpopsNtB6_6CmpOpsNtB8_6Module4inits5_16exec_cmp_wrapper
FNDA:8016,_RNvNvXs_NtNtCsipbLpstqwUV_8tycho_vm5instr6cmpopsNtB6_6CmpOpsNtB8_6Module4inits5_20exec_cmp_int_wrapper
FNDA:28511,_RNvNvXs_NtNtCsipbLpstqwUV_8tycho_vm5instr6cmpopsNtB6_6CmpOpsNtB8_6Module4inits6_16exec_cmp_wrapper
FNDA:3625,_RNvNvXs_NtNtCsipbLpstqwUV_8tycho_vm5instr6cmpopsNtB6_6CmpOpsNtB8_6Module4inits7_16exec_cmp_wrapper
FNDA:13688,_RNvNvXs_NtNtCsipbLpstqwUV_8tycho_vm5instr6cmpopsNtB6_6CmpOpsNtB8_6Module4inits8_16exec_cmp_wrapper
FNDA:28779,_RNvNvXs_NtNtCsipbLpstqwUV_8tycho_vm5instr6cmpopsNtB6_6CmpOpsNtB8_6Module4inits9_16exec_cmp_wrapper
FNDA:130589,_RNvNvXs_NtNtCsipbLpstqwUV_8tycho_vm5instr6cmpopsNtB6_6CmpOpsNtB8_6Module4inits_16exec_cmp_wrapper
FNDA:18629,_RNvNvXs_NtNtCsipbLpstqwUV_8tycho_vm5instr6cmpopsNtB6_6CmpOpsNtB8_6Module4inits_16exec_sgn_wrapper
FNDA:118983,_RNvNvXs_NtNtCsipbLpstqwUV_8tycho_vm5instr6cmpopsNtB6_6CmpOpsNtB8_6Module4inits_20exec_cmp_int_wrapper
FNDA:45691,_RNvNvXs_NtNtCsipbLpstqwUV_8tycho_vm5instr6cmpopsNtB6_6CmpOpsNtB8_6Module4initsa_16exec_cmp_wrapper
FNDA:24378,_RNvNvXs_NtNtCsipbLpstqwUV_8tycho_vm5instr6cmpopsNtB6_6CmpOpsNtB8_6Module4initsb_16exec_cmp_wrapper
FNF:8
FNH:8
DA:13,2872690
DA:17,381829
DA:18,381829
DA:19,381829
DA:20,11164
DA:21,7990
DA:22,7990
DA:24,370356
DA:25,112064
DA:26,80809
DA:27,177483
DA:29,370356
DA:30,381829
DA:46,860361
DA:47,860361
DA:48,860361
DA:49,848753
DA:51,839181
DA:52,804987
DA:53,804987
DA:55,30222
DA:56,3972
DA:59,835209
DA:60,860361
DA:70,599150
DA:71,599150
DA:72,599150
DA:73,593925
DA:74,593925
DA:76,3279
DA:77,630
DA:80,597204
DA:81,599150
DA:84,597166
DA:85,597166
DA:86,597166
DA:87,596615
DA:88,596615
DA:89,597166
DA:92,434184
DA:93,434184
DA:94,434184
DA:95,432865
DA:96,432865
DA:97,434184
DA:101,593925
DA:102,593925
DA:103,576294
DA:104,17631
DA:105,7822
DA:106,0
DA:107,9809
DA:110,593925
DA:114,1398912
DA:115,1398912
DA:116,1398912
BRF:0
BRH:0
LF:56
LH:55
end_of_record
SF:/home/odm3n/dev/work/everscale-vm/vm/src/instr/configops.rs
FN:401,_RNCNvNtNtCsipbLpstqwUV_8tycho_vm5instr9configops18get_and_push_param0B7_
FN:152,_RNCNvNtNtCsipbLpstqwUV_8tycho_vm5instr9configops20exec_get_storage_fee0B7_
FN:278,_RNCNvNtNtCsipbLpstqwUV_8tycho_vm5instr9configops31exec_get_extra_currency_balance0B7_
FN:24,_RNvNtNtCsipbLpstqwUV_8tycho_vm5instr9configops14exec_get_param
FN:308,_RNvNtNtCsipbLpstqwUV_8tycho_vm5instr9configops15exec_get_global
FN:321,_RNvNtNtCsipbLpstqwUV_8tycho_vm5instr9configops15exec_set_global
FN:125,_RNvNtNtCsipbLpstqwUV_8tycho_vm5instr9configops16exec_get_gas_fee
FN:351,_RNvNtNtCsipbLpstqwUV_8tycho_vm5instr9configops17get_global_common
FN:406,_RNvNtNtCsipbLpstqwUV_8tycho_vm5instr9configops17get_parsed_config
FN:359,_RNvNtNtCsipbLpstqwUV_8tycho_vm5instr9configops17set_global_common
FN:91,_RNvNtNtCsipbLpstqwUV_8tycho_vm5instr9configops18exec_get_global_id
FN:400,_RNvNtNtCsipbLpstqwUV_8tycho_vm5instr9configops18get_and_push_param
FN:301,_RNvNtNtCsipbLpstqwUV_8tycho_vm5instr9configops19exec_get_global_var
FN:314,_RNvNtNtCsipbLpstqwUV_8tycho_vm5instr9configops19exec_set_global_var
FN:31,_RNvNtNtCsipbLpstqwUV_8tycho_vm5instr9configops20exec_get_config_dict
FN:168,_RNvNtNtCsipbLpstqwUV_8tycho_vm5instr9configops20exec_get_forward_fee
FN:142,_RNvNtNtCsipbLpstqwUV_8tycho_vm5instr9configops20exec_get_storage_fee
FN:44,_RNvNtNtCsipbLpstqwUV_8tycho_vm5instr9configops21exec_get_config_param
FN:232,_RNvNtNtCsipbLpstqwUV_8tycho_vm5instr9configops23exec_get_gas_fee_simple
FN:189,_RNvNtNtCsipbLpstqwUV_8tycho_vm5instr9configops24exec_get_precompiled_gas
FN:202,_RNvNtNtCsipbLpstqwUV_8tycho_vm5instr9configops25exec_get_original_fwd_fee
FN:81,_RNvNtNtCsipbLpstqwUV_8tycho_vm5instr9configops25exec_get_prev_blocks_info
FN:249,_RNvNtNtCsipbLpstqwUV_8tycho_vm5instr9configops27exec_get_forward_fee_simple
FN:270,_RNvNtNtCsipbLpstqwUV_8tycho_vm5instr9configops31exec_get_extra_currency_balance
FN:21,_RNvNvXs0_NtNtCsipbLpstqwUV_8tycho_vm5instr9configopsNtB7_9ConfigOpsNtB9_6Module4init22exec_get_param_wrapper
FN:21,_RNvNvXs0_NtNtCsipbLpstqwUV_8tycho_vm5instr9configopsNtB7_9ConfigOpsNtB9_6Module4init23exec_get_global_wrapper
FN:21,_RNvNvXs0_NtNtCsipbLpstqwUV_8tycho_vm5instr9configopsNtB7_9ConfigOpsNtB9_6Module4init23exec_set_global_wrapper
FN:21,_RNvNvXs0_NtNtCsipbLpstqwUV_8tycho_vm5instr9configopsNtB7_9ConfigOpsNtB9_6Module4init24exec_get_gas_fee_wrapper
FN:21,_RNvNvXs0_NtNtCsipbLpstqwUV_8tycho_vm5instr9configopsNtB7_9ConfigOpsNtB9_6Module4init26exec_get_global_id_wrapper
FN:21,_RNvNvXs0_NtNtCsipbLpstqwUV_8tycho_vm5instr9configopsNtB7_9ConfigOpsNtB9_6Module4init27exec_get_global_var_wrapper
FN:21,_RNvNvXs0_NtNtCsipbLpstqwUV_8tycho_vm5instr9configopsNtB7_9ConfigOpsNtB9_6Module4init27exec_set_global_var_wrapper
FN:21,_RNvNvXs0_NtNtCsipbLpstqwUV_8tycho_vm5instr9configopsNtB7_9ConfigOpsNtB9_6Module4init28exec_get_config_dict_wrapper
FN:21,_RNvNvXs0_NtNtCsipbLpstqwUV_8tycho_vm5instr9configopsNtB7_9ConfigOpsNtB9_6Module4init28exec_get_forward_fee_wrapper
FN:21,_RNvNvXs0_NtNtCsipbLpstqwUV_8tycho_vm5instr9configopsNtB7_9ConfigOpsNtB9_6Module4init28exec_get_storage_fee_wrapper
FN:21,_RNvNvXs0_NtNtCsipbLpstqwUV_8tycho_vm5instr9configopsNtB7_9ConfigOpsNtB9_6Module4init29exec_get_config_param_wrapper
FN:21,_RNvNvXs0_NtNtCsipbLpstqwUV_8tycho_vm5instr9configopsNtB7_9ConfigOpsNtB9_6Module4init31exec_get_gas_fee_simple_wrapper
FN:21,_RNvNvXs0_NtNtCsipbLpstqwUV_8tycho_vm5instr9configopsNtB7_9ConfigOpsNtB9_6Module4init32exec_get_precompiled_gas_wrapper
FN:21,_RNvNvXs0_NtNtCsipbLpstqwUV_8tycho_vm5instr9configopsNtB7_9ConfigOpsNtB9_6Module4init33exec_get_original_fwd_fee_wrapper
FN:21,_RNvNvXs0_NtNtCsipbLpstqwUV_8tycho_vm5instr9configopsNtB7_9ConfigOpsNtB9_6Module4init33exec_get_prev_blocks_info_wrapper
FN:21,_RNvNvXs0_NtNtCsipbLpstqwUV_8tycho_vm5instr9configopsNtB7_9ConfigOpsNtB9_6Module4init35exec_get_forward_fee_simple_wrapper
FN:21,_RNvNvXs0_NtNtCsipbLpstqwUV_8tycho_vm5instr9configopsNtB7_9ConfigOpsNtB9_6Module4init39exec_get_extra_currency_balance_wrapper
FN:21,_RNvNvXs0_NtNtCsipbLpstqwUV_8tycho_vm5instr9configopsNtB7_9ConfigOpsNtB9_6Module4inits_29exec_get_config_param_wrapper
FN:21,_RNvNvXs0_NtNtCsipbLpstqwUV_8tycho_vm5instr9configopsNtB7_9ConfigOpsNtB9_6Module4inits_33exec_get_prev_blocks_info_wrapper
FN:330,_RNvXNtNtCsipbLpstqwUV_8tycho_vm5instr9configopsNtB2_20DisplayConfigOpsArgsNtNtCscHntIWw2aYb_4core3fmt7Display3fmt
FNDA:40050,_RNCNvNtNtCsipbLpstqwUV_8tycho_vm5instr9configops18get_and_push_param0B7_
FNDA:195,_RNCNvNtNtCsipbLpstqwUV_8tycho_vm5instr9configops20exec_get_storage_fee0B7_
FNDA:35282,_RNCNvNtNtCsipbLpstqwUV_8tycho_vm5instr9configops31exec_get_extra_currency_balance0B7_
FNDA:6878,_RNvNtNtCsipbLpstqwUV_8tycho_vm5instr9configops14exec_get_param
FNDA:96644,_RNvNtNtCsipbLpstqwUV_8tycho_vm5instr9configops15exec_get_global
FNDA:89624,_RNvNtNtCsipbLpstqwUV_8tycho_vm5instr9configops15exec_set_global
FNDA:29963,_RNvNtNtCsipbLpstqwUV_8tycho_vm5instr9configops16exec_get_gas_fee
FNDA:100386,_RNvNtNtCsipbLpstqwUV_8tycho_vm5instr9configops17get_global_common
FNDA:54903,_RNvNtNtCsipbLpstqwUV_8tycho_vm5instr9configops17get_parsed_config
FNDA:425896,_RNvNtNtCsipbLpstqwUV_8tycho_vm5instr9configops17set_global_common
FNDA:7077,_RNvNtNtCsipbLpstqwUV_8tycho_vm5instr9configops18exec_get_global_id
FNDA:52348,_RNvNtNtCsipbLpstqwUV_8tycho_vm5instr9configops18get_and_push_param
FNDA:4068,_RNvNtNtCsipbLpstqwUV_8tycho_vm5instr9configops19exec_get_global_var
FNDA:339300,_RNvNtNtCsipbLpstqwUV_8tycho_vm5instr9configops19exec_set_global_var
FNDA:5063,_RNvNtNtCsipbLpstqwUV_8tycho_vm5instr9configops20exec_get_config_dict
FNDA:8594,_RNvNtNtCsipbLpstqwUV_8tycho_vm5instr9configops20exec_get_forward_fee
FNDA:9611,_RNvNtNtCsipbLpstqwUV_8tycho_vm5instr9configops20exec_get_storage_fee
FNDA:50033,_RNvNtNtCsipbLpstqwUV_8tycho_vm5instr9configops21exec_get_config_param
FNDA:22845,_RNvNtNtCsipbLpstqwUV_8tycho_vm5instr9configops23exec_get_gas_fee_simple
FNDA:926,_RNvNtNtCsipbLpstqwUV_8tycho_vm5instr9configops24exec_get_precompiled_gas
FNDA:12373,_RNvNtNtCsipbLpstqwUV_8tycho_vm5instr9configops25exec_get_original_fwd_fee
FNDA:20336,_RNvNtNtCsipbLpstqwUV_8tycho_vm5instr9configops25exec_get_prev_blocks_info
FNDA:6066,_RNvNtNtCsipbLpstqwUV_8tycho_vm5instr9configops27exec_get_forward_fee_simple
FNDA:63262,_RNvNtNtCsipbLpstqwUV_8tycho_vm5instr9configops31exec_get_extra_currency_balance
FNDA:6878,_RNvNvXs0_NtNtCsipbLpstqwUV_8tycho_vm5instr9configopsNtB7_9ConfigOpsNtB9_6Module4init22exec_get_param_wrapper
FNDA:96644,_RNvNvXs0_NtNtCsipbLpstqwUV_8tycho_vm5instr9configopsNtB7_9ConfigOpsNtB9_6Module4init23exec_get_global_wrapper
FNDA:89624,_RNvNvXs0_NtNtCsipbLpstqwUV_8tycho_vm5instr9configopsNtB7_9ConfigOpsNtB9_6Module4init23exec_set_global_wrapper
FNDA:29963,_RNvNvXs0_NtNtCsipbLpstqwUV_8tycho_vm5instr9configopsNtB7_9ConfigOpsNtB9_6Module4init24exec_get_gas_fee_wrapper
FNDA:7077,_RNvNvXs0_NtNtCsipbLpstqwUV_8tycho_vm5instr9configopsNtB7_9ConfigOpsNtB9_6Module4init26exec_get_global_id_wrapper
FNDA:4068,_RNvNvXs0_NtNtCsipbLpstqwUV_8tycho_vm5instr9configopsNtB7_9ConfigOpsNtB9_6Module4init27exec_get_global_var_wrapper
FNDA:339300,_RNvNvXs0_NtNtCsipbLpstqwUV_8tycho_vm5instr9configopsNtB7_9ConfigOpsNtB9_6Module4init27exec_set_global_var_wrapper
FNDA:5063,_RNvNvXs0_NtNtCsipbLpstqwUV_8tycho_vm5instr9configopsNtB7_9ConfigOpsNtB9_6Module4init28exec_get_config_dict_wrapper
FNDA:8594,_RNvNvXs0_NtNtCsipbLpstqwUV_8tycho_vm5instr9configopsNtB7_9ConfigOpsNtB9_6Module4init28exec_get_forward_fee_wrapper
FNDA:9611,_RNvNvXs0_NtNtCsipbLpstqwUV_8tycho_vm5instr9configopsNtB7_9ConfigOpsNtB9_6Module4init28exec_get_storage_fee_wrapper
FNDA:25542,_RNvNvXs0_NtNtCsipbLpstqwUV_8tycho_vm5instr9configopsNtB7_9ConfigOpsNtB9_6Module4init29exec_get_config_param_wrapper
FNDA:22845,_RNvNvXs0_NtNtCsipbLpstqwUV_8tycho_vm5instr9configopsNtB7_9ConfigOpsNtB9_6Module4init31exec_get_gas_fee_simple_wrapper
FNDA:926,_RNvNvXs0_NtNtCsipbLpstqwUV_8tycho_vm5instr9configopsNtB7_9ConfigOpsNtB9_6Module4init32exec_get_precompiled_gas_wrapper
FNDA:12373,_RNvNvXs0_NtNtCsipbLpstqwUV_8tycho_vm5instr9configopsNtB7_9ConfigOpsNtB9_6Module4init33exec_get_original_fwd_fee_wrapper
FNDA:13691,_RNvNvXs0_NtNtCsipbLpstqwUV_8tycho_vm5instr9configopsNtB7_9ConfigOpsNtB9_6Module4init33exec_get_prev_blocks_info_wrapper
FNDA:6066,_RNvNvXs0_NtNtCsipbLpstqwUV_8tycho_vm5instr9configopsNtB7_9ConfigOpsNtB9_6Module4init35exec_get_forward_fee_simple_wrapper
FNDA:63262,_RNvNvXs0_NtNtCsipbLpstqwUV_8tycho_vm5instr9configopsNtB7_9ConfigOpsNtB9_6Module4init39exec_get_extra_currency_balance_wrapper
FNDA:24491,_RNvNvXs0_NtNtCsipbLpstqwUV_8tycho_vm5instr9configopsNtB7_9ConfigOpsNtB9_6Module4inits_29exec_get_config_param_wrapper
FNDA:6645,_RNvNvXs0_NtNtCsipbLpstqwUV_8tycho_vm5instr9configopsNtB7_9ConfigOpsNtB9_6Module4inits_33exec_get_prev_blocks_info_wrapper
FNDA:0,_RNvXNtNtCsipbLpstqwUV_8tycho_vm5instr9configopsNtB2_20DisplayConfigOpsArgsNtNtCscHntIWw2aYb_4core3fmt7Display3fmt
FNF:26
FNH:25
DA:21,772663
DA:24,6878
DA:25,6878
DA:26,6878
DA:27,226
DA:28,6878
DA:31,5063
DA:32,5063
DA:33,5063
DA:34,5063
DA:35,5063
DA:36,5063
DA:37,5063
DA:38,4623
DA:39,4623
DA:40,5063
DA:44,50033
DA:45,50033
DA:46,50033
DA:48,39481
DA:49,39481
DA:50,39481
DA:51,39481
DA:52,39481
DA:53,25929
DA:55,19806
DA:56,19806
DA:57,13640
DA:59,13640
DA:60,11279
DA:61,3293
DA:62,7986
DA:65,10170
DA:66,3691
DA:68,6479
DA:69,1092
DA:70,1092
DA:71,1092
DA:73,5387
DA:76,10170
DA:77,50033
DA:81,20336
DA:82,20336
DA:83,20336
DA:84,18973
DA:85,12775
DA:86,5086
DA:87,5086
DA:88,20336
DA:91,7077
DA:92,7077
DA:94,7077
DA:95,0
DA:96,7077
DA:97,7077
DA:98,6321
DA:99,0
DA:100,0
DA:102,0
DA:103,0
DA:105,0
DA:106,0
DA:107,0
DA:109,0
DA:111,0
DA:114,0
DA:115,0
DA:116,0
DA:117,0
DA:120,0
DA:121,0
DA:122,7077
DA:125,29963
DA:126,29963
DA:128,29963
DA:129,29963
DA:130,22065
DA:132,20567
DA:133,12629
DA:134,0
DA:136,0
DA:137,0
DA:138,0
DA:139,29963
DA:142,9611
DA:143,9611
DA:145,9611
DA:146,9611
DA:147,5216
DA:148,4043
DA:149,3818
DA:151,2866
DA:152,389
DA:154,389
DA:155,0
DA:156,0
DA:157,0
DA:158,0
DA:159,0
DA:160,0
DA:161,0
DA:164,389
DA:165,9611
DA:168,8594
DA:169,8594
DA:171,8594
DA:172,8594
DA:173,5682
DA:174,3363
DA:176,1006
DA:177,392
DA:178,0
DA:180,0
DA:181,0
DA:182,0
DA:183,0
DA:184,0
DA:185,0
DA:186,8594
DA:189,926
DA:190,926
DA:192,926
DA:193,926
DA:194,926
DA:195,926
DA:196,926
DA:197,926
DA:198,194
DA:199,926
DA:202,12373
DA:203,12373
DA:205,12373
DA:206,12373
DA:207,10588
DA:208,8245
DA:209,4153
DA:210,4153
DA:211,4153
DA:214,4092
DA:215,388
DA:216,0
DA:218,0
DA:219,0
DA:220,0
DA:221,0
DA:222,0
DA:223,0
DA:224,0
DA:225,0
DA:227,0
DA:228,0
DA:229,12373
DA:232,22845
DA:233,22845
DA:235,22845
DA:236,22845
DA:237,19400
DA:239,15780
DA:240,12726
DA:241,0
DA:243,0
DA:244,0
DA:245,0
DA:246,22845
DA:249,6066
DA:250,6066
DA:252,6066
DA:253,6066
DA:254,4105
DA:255,3850
DA:257,3515
DA:258,453
DA:259,0
DA:261,0
DA:262,0
DA:263,0
DA:264,0
DA:265,0
DA:266,0
DA:267,6066
DA:270,63262
DA:271,63262
DA:273,63262
DA:274,63262
DA:276,62949
DA:277,55449
DA:278,48081
DA:279,48081
DA:280,48081
DA:281,48081
DA:282,48081
DA:283,48081
DA:284,48081
DA:285,48081
DA:286,315
DA:287,47766
DA:290,48081
DA:291,41915
DA:292,10175
DA:293,3201
DA:295,31740
DA:297,34941
DA:298,63262
DA:301,4068
DA:302,4068
DA:303,4068
DA:304,3742
DA:305,4068
DA:308,96644
DA:309,96644
DA:310,96644
DA:311,96644
DA:314,339300
DA:315,339300
DA:316,339300
DA:317,336272
DA:318,339300
DA:321,89624
DA:322,89624
DA:323,89624
DA:324,89624
DA:330,0
DA:331,0
DA:332,0
DA:333,0
DA:334,0
DA:335,0
DA:336,0
DA:337,0
DA:338,0
DA:339,0
DA:340,0
DA:341,0
DA:342,0
DA:343,0
DA:344,0
DA:345,0
DA:347,0
DA:348,0
DA:351,100386
DA:352,100386
DA:353,0
DA:354,100386
DA:356,100386
DA:357,100386
DA:359,425896
DA:360,425896
DA:361,425896
DA:362,425896
DA:363,425896
DA:364,425896
DA:365,425896
DA:366,422436
DA:369,0
DA:373,0
DA:374,0
DA:375,0
DA:377,0
DA:378,0
DA:379,0
DA:380,0
DA:381,0
DA:382,0
DA:384,422436
DA:386,420644
DA:387,420644
DA:388,420644
DA:389,2757
DA:390,417887
DA:391,420644
DA:392,420644
DA:396,422436
DA:397,422099
DA:398,425896
DA:400,52348
DA:401,52348
DA:402,30972
DA:403,30972
DA:404,52348
DA:406,54903
DA:407,54903
DA:408,54903
BRF:0
BRH:0
LF:285
LH:200
end_of_record
SF:/home/odm3n/dev/work/everscale-vm/vm/src/instr/contops.rs
FN:1400,_RNvMNtNtCsipbLpstqwUV_8tycho_vm5instr7contopsNtB2_12ThrowAnyArgs10throw_cond
FN:1396,_RNvMNtNtCsipbLpstqwUV_8tycho_vm5instr7contopsNtB2_12ThrowAnyArgs8has_cond
FN:1392,_RNvMNtNtCsipbLpstqwUV_8tycho_vm5instr7contopsNtB2_12ThrowAnyArgs9has_param
FN:1462,_RNvMs0_NtNtCsipbLpstqwUV_8tycho_vm5instr7contopsNtB5_9RunVmArgs11isolate_gas
FN:1457,_RNvMs0_NtNtCsipbLpstqwUV_8tycho_vm5instr7contopsNtB5_9RunVmArgs19load_hard_gas_limit
FN:1468,_RNvMs0_NtNtCsipbLpstqwUV_8tycho_vm5instr7contopsNtB5_9RunVmArgs5ret_n
FN:1432,_RNvMs0_NtNtCsipbLpstqwUV_8tycho_vm5instr7contopsNtB5_9RunVmArgs6push_0
FN:1437,_RNvMs0_NtNtCsipbLpstqwUV_8tycho_vm5instr7contopsNtB5_9RunVmArgs7load_c4
FN:1447,_RNvMs0_NtNtCsipbLpstqwUV_8tycho_vm5instr7contopsNtB5_9RunVmArgs7load_c7
FN:1427,_RNvMs0_NtNtCsipbLpstqwUV_8tycho_vm5instr7contopsNtB5_9RunVmArgs7same_c3
FN:1442,_RNvMs0_NtNtCsipbLpstqwUV_8tycho_vm5instr7contopsNtB5_9RunVmArgs8load_gas
FN:1452,_RNvMs0_NtNtCsipbLpstqwUV_8tycho_vm5instr7contopsNtB5_9RunVmArgs9return_c5
FN:659,_RNvNtNtCsipbLpstqwUV_8tycho_vm5instr7contops10exec_again
FN:716,_RNvNtNtCsipbLpstqwUV_8tycho_vm5instr7contops10exec_bless
FN:236,_RNvNtNtCsipbLpstqwUV_8tycho_vm5instr7contops10exec_ifnot
FN:283,_RNvNtNtCsipbLpstqwUV_8tycho_vm5instr7contops10exec_ifref
FN:207,_RNvNtNtCsipbLpstqwUV_8tycho_vm5instr7contops10exec_ifret
FN:194,_RNvNtNtCsipbLpstqwUV_8tycho_vm5instr7contops10exec_runvm
FN:615,_RNvNtNtCsipbLpstqwUV_8tycho_vm5instr7contops10exec_until
FN:635,_RNvNtNtCsipbLpstqwUV_8tycho_vm5instr7contops10exec_while
FN:956,_RNvNtNtCsipbLpstqwUV_8tycho_vm5instr7contops11exec_atexit
FN:77,_RNvNtNtCsipbLpstqwUV_8tycho_vm5instr7contops11exec_callcc
FN:938,_RNvNtNtCsipbLpstqwUV_8tycho_vm5instr7contops11exec_compos
FN:247,_RNvNtNtCsipbLpstqwUV_8tycho_vm5instr7contops11exec_if_jmp
FN:1000,_RNvNtNtCsipbLpstqwUV_8tycho_vm5instr7contops11exec_invert
FN:155,_RNvNtNtCsipbLpstqwUV_8tycho_vm5instr7contops11exec_jmpref
FN:585,_RNvNtNtCsipbLpstqwUV_8tycho_vm5instr7contops11exec_repeat
FN:199,_RNvNtNtCsipbLpstqwUV_8tycho_vm5instr7contops11exec_runvmx
FN:1161,_RNvNtNtCsipbLpstqwUV_8tycho_vm5instr7contops11exec_set_cp
FN:1357,_RNvNtNtCsipbLpstqwUV_8tycho_vm5instr7contops11force_cdata
FN:139,_RNvNtNtCsipbLpstqwUV_8tycho_vm5instr7contops12exec_callref
FN:367,_RNvNtNtCsipbLpstqwUV_8tycho_vm5instr7contops12exec_condsel
FN:23,_RNvNtNtCsipbLpstqwUV_8tycho_vm5instr7contops12exec_execute
FN:269,_RNvNtNtCsipbLpstqwUV_8tycho_vm5instr7contops12exec_if_else
FN:1056,_RNvNtNtCsipbLpstqwUV_8tycho_vm5instr7contops12exec_jmpdict
FN:741,_RNvNtNtCsipbLpstqwUV_8tycho_vm5instr7contops12exec_pop_ctr
FN:779,_RNvNtNtCsipbLpstqwUV_8tycho_vm5instr7contops12exec_popsave
FN:63,_RNvNtNtCsipbLpstqwUV_8tycho_vm5instr7contops12exec_ret_alt
FN:1021,_RNvNtNtCsipbLpstqwUV_8tycho_vm5instr7contops12exec_samealt
FN:811,_RNvNtNtCsipbLpstqwUV_8tycho_vm5instr7contops12exec_savectr
FN:982,_RNvNtNtCsipbLpstqwUV_8tycho_vm5instr7contops12exec_thenret
FN:1146,_RNvNtNtCsipbLpstqwUV_8tycho_vm5instr7contops12exec_tryargs
FN:1006,_RNvNtNtCsipbLpstqwUV_8tycho_vm5instr7contops13exec_booleval
FN:325,_RNvNtNtCsipbLpstqwUV_8tycho_vm5instr7contops13exec_ifjmpref
FN:304,_RNvNtNtCsipbLpstqwUV_8tycho_vm5instr7contops13exec_ifnotref
FN:216,_RNvNtNtCsipbLpstqwUV_8tycho_vm5instr7contops13exec_ifnotret
FN:397,_RNvNtNtCsipbLpstqwUV_8tycho_vm5instr7contops13exec_ifretalt
FN:734,_RNvNtNtCsipbLpstqwUV_8tycho_vm5instr7contops13exec_push_ctr
FN:53,_RNvNtNtCsipbLpstqwUV_8tycho_vm5instr7contops13exec_ret_args
FN:68,_RNvNtNtCsipbLpstqwUV_8tycho_vm5instr7contops13exec_ret_bool
FN:188,_RNvNtNtCsipbLpstqwUV_8tycho_vm5instr7contops13exec_ret_data
FN:670,_RNvNtNtCsipbLpstqwUV_8tycho_vm5instr7contops14exec_again_end
FN:430,_RNvNtNtCsipbLpstqwUV_8tycho_vm5instr7contops14exec_ifelseref
FN:258,_RNvNtNtCsipbLpstqwUV_8tycho_vm5instr7contops14exec_ifnot_jmp
FN:415,_RNvNtNtCsipbLpstqwUV_8tycho_vm5instr7contops14exec_ifrefelse
FN:47,_RNvNtNtCsipbLpstqwUV_8tycho_vm5instr7contops14exec_jmpx_args
FN:85,_RNvNtNtCsipbLpstqwUV_8tycho_vm5instr7contops14exec_jmpx_data
FN:1116,_RNvNtNtCsipbLpstqwUV_8tycho_vm5instr7contops14exec_throw_any
FN:624,_RNvNtNtCsipbLpstqwUV_8tycho_vm5instr7contops14exec_until_end
FN:647,_RNvNtNtCsipbLpstqwUV_8tycho_vm5instr7contops14exec_while_end
FN:964,_RNvNtNtCsipbLpstqwUV_8tycho_vm5instr7contops15exec_atexit_alt
FN:1035,_RNvNtNtCsipbLpstqwUV_8tycho_vm5instr7contops15exec_bless_args
FN:35,_RNvNtNtCsipbLpstqwUV_8tycho_vm5instr7contops15exec_callx_args
FN:505,_RNvNtNtCsipbLpstqwUV_8tycho_vm5instr7contops15exec_if_bit_jmp
FN:1167,_RNvNtNtCsipbLpstqwUV_8tycho_vm5instr7contops15exec_ref_prefix
FN:600,_RNvNtNtCsipbLpstqwUV_8tycho_vm5instr7contops15exec_repeat_end
FN:1152,_RNvNtNtCsipbLpstqwUV_8tycho_vm5instr7contops15exec_set_cp_any
FN:769,_RNvNtNtCsipbLpstqwUV_8tycho_vm5instr7contops15exec_setalt_ctr
FN:760,_RNvNtNtCsipbLpstqwUV_8tycho_vm5instr7contops15exec_setret_ctr
FN:1337,_RNvNtNtCsipbLpstqwUV_8tycho_vm5instr7contops15exec_try_common
FN:93,_RNvNtNtCsipbLpstqwUV_8tycho_vm5instr7contops16exec_callcc_args
FN:1200,_RNvNtNtCsipbLpstqwUV_8tycho_vm5instr7contops16exec_cell_prefix
FN:380,_RNvNtNtCsipbLpstqwUV_8tycho_vm5instr7contops16exec_condsel_chk
FN:346,_RNvNtNtCsipbLpstqwUV_8tycho_vm5instr7contops16exec_ifnotjmpref
FN:406,_RNvNtNtCsipbLpstqwUV_8tycho_vm5instr7contops16exec_ifnotretalt
FN:171,_RNvNtNtCsipbLpstqwUV_8tycho_vm5instr7contops16exec_jmpref_data
FN:875,_RNvNtNtCsipbLpstqwUV_8tycho_vm5instr7contops16exec_pop_ctr_var
FN:1068,_RNvNtNtCsipbLpstqwUV_8tycho_vm5instr7contops16exec_preparedict
FN:110,_RNvNtNtCsipbLpstqwUV_8tycho_vm5instr7contops16exec_ret_varargs
FN:687,_RNvNtNtCsipbLpstqwUV_8tycho_vm5instr7contops16exec_return_args
FN:827,_RNvNtNtCsipbLpstqwUV_8tycho_vm5instr7contops16exec_savealt_ctr
FN:749,_RNvNtNtCsipbLpstqwUV_8tycho_vm5instr7contops16exec_setcont_ctr
FN:681,_RNvNtNtCsipbLpstqwUV_8tycho_vm5instr7contops16exec_setcontargs
FN:972,_RNvNtNtCsipbLpstqwUV_8tycho_vm5instr7contops16exec_setexit_alt
FN:991,_RNvNtNtCsipbLpstqwUV_8tycho_vm5instr7contops16exec_thenret_alt
FN:1088,_RNvNtNtCsipbLpstqwUV_8tycho_vm5instr7contops16exec_throw_fixed
FN:41,_RNvNtNtCsipbLpstqwUV_8tycho_vm5instr7contops17exec_callx_args_p
FN:116,_RNvNtNtCsipbLpstqwUV_8tycho_vm5instr7contops17exec_jmpx_varargs
FN:864,_RNvNtNtCsipbLpstqwUV_8tycho_vm5instr7contops17exec_push_ctr_var
FN:1473,_RNvNtNtCsipbLpstqwUV_8tycho_vm5instr7contops17exec_runvm_common
FN:844,_RNvNtNtCsipbLpstqwUV_8tycho_vm5instr7contops17exec_saveboth_ctr
FN:725,_RNvNtNtCsipbLpstqwUV_8tycho_vm5instr7contops18exec_bless_varargs
FN:101,_RNvNtNtCsipbLpstqwUV_8tycho_vm5instr7contops18exec_callx_varargs
FN:523,_RNvNtNtCsipbLpstqwUV_8tycho_vm5instr7contops18exec_if_bit_jmpref
FN:445,_RNvNtNtCsipbLpstqwUV_8tycho_vm5instr7contops18exec_ifref_elseref
FN:124,_RNvNtNtCsipbLpstqwUV_8tycho_vm5instr7contops19exec_callcc_varargs
FN:1044,_RNvNtNtCsipbLpstqwUV_8tycho_vm5instr7contops19exec_calldict_short
FN:693,_RNvNtNtCsipbLpstqwUV_8tycho_vm5instr7contops19exec_return_varargs
FN:709,_RNvNtNtCsipbLpstqwUV_8tycho_vm5instr7contops19exec_setnum_varargs
FN:1216,_RNvNtNtCsipbLpstqwUV_8tycho_vm5instr7contops20exec_ifelse_ref_impl
FN:889,_RNvNtNtCsipbLpstqwUV_8tycho_vm5instr7contops20exec_setcont_ctr_var
FN:700,_RNvNtNtCsipbLpstqwUV_8tycho_vm5instr7contops20exec_setcont_varargs
FN:1101,_RNvNtNtCsipbLpstqwUV_8tycho_vm5instr7contops20exec_throw_arg_fixed
FN:905,_RNvNtNtCsipbLpstqwUV_8tycho_vm5instr7contops21exec_setcont_ctr_many
FN:1319,_RNvNtNtCsipbLpstqwUV_8tycho_vm5instr7contops22exec_bless_args_common
FN:1285,_RNvNtNtCsipbLpstqwUV_8tycho_vm5instr7contops23exec_return_args_common
FN:1248,_RNvNtNtCsipbLpstqwUV_8tycho_vm5instr7contops23exec_setcontargs_common
FN:225,_RNvNtNtCsipbLpstqwUV_8tycho_vm5instr7contops7exec_if
FN:58,_RNvNtNtCsipbLpstqwUV_8tycho_vm5instr7contops8exec_ret
FN:1141,_RNvNtNtCsipbLpstqwUV_8tycho_vm5instr7contops8exec_try
FN:29,_RNvNtNtCsipbLpstqwUV_8tycho_vm5instr7contops9exec_jmpx
FN:18,_RNvNvXs2_NtNtCsipbLpstqwUV_8tycho_vm5instr7contopsNtB7_7ContOpsNtB9_6Module4init15exec_if_wrapper
FN:18,_RNvNvXs2_NtNtCsipbLpstqwUV_8tycho_vm5instr7contopsNtB7_7ContOpsNtB9_6Module4init16exec_ret_wrapper
FN:18,_RNvNvXs2_NtNtCsipbLpstqwUV_8tycho_vm5instr7contopsNtB7_7ContOpsNtB9_6Module4init16exec_try_wrapper
FN:18,_RNvNvXs2_NtNtCsipbLpstqwUV_8tycho_vm5instr7contopsNtB7_7ContOpsNtB9_6Module4init17exec_jmpx_wrapper
FN:18,_RNvNvXs2_NtNtCsipbLpstqwUV_8tycho_vm5instr7contopsNtB7_7ContOpsNtB9_6Module4init18exec_again_wrapper
FN:18,_RNvNvXs2_NtNtCsipbLpstqwUV_8tycho_vm5instr7contopsNtB7_7ContOpsNtB9_6Module4init18exec_bless_wrapper
FN:18,_RNvNvXs2_NtNtCsipbLpstqwUV_8tycho_vm5instr7contopsNtB7_7ContOpsNtB9_6Module4init18exec_ifnot_wrapper
FN:18,_RNvNvXs2_NtNtCsipbLpstqwUV_8tycho_vm5instr7contopsNtB7_7ContOpsNtB9_6Module4init18exec_ifret_wrapper
FN:18,_RNvNvXs2_NtNtCsipbLpstqwUV_8tycho_vm5instr7contopsNtB7_7ContOpsNtB9_6Module4init18exec_runvm_wrapper
FN:18,_RNvNvXs2_NtNtCsipbLpstqwUV_8tycho_vm5instr7contopsNtB7_7ContOpsNtB9_6Module4init18exec_until_wrapper
FN:18,_RNvNvXs2_NtNtCsipbLpstqwUV_8tycho_vm5instr7contopsNtB7_7ContOpsNtB9_6Module4init18exec_while_wrapper
FN:18,_RNvNvXs2_NtNtCsipbLpstqwUV_8tycho_vm5instr7contopsNtB7_7ContOpsNtB9_6Module4init19exec_atexit_wrapper
FN:18,_RNvNvXs2_NtNtCsipbLpstqwUV_8tycho_vm5instr7contopsNtB7_7ContOpsNtB9_6Module4init19exec_callcc_wrapper
FN:18,_RNvNvXs2_NtNtCsipbLpstqwUV_8tycho_vm5instr7contopsNtB7_7ContOpsNtB9_6Module4init19exec_compos_wrapper
FN:18,_RNvNvXs2_NtNtCsipbLpstqwUV_8tycho_vm5instr7contopsNtB7_7ContOpsNtB9_6Module4init19exec_if_jmp_wrapper
FN:18,_RNvNvXs2_NtNtCsipbLpstqwUV_8tycho_vm5instr7contopsNtB7_7ContOpsNtB9_6Module4init19exec_invert_wrapper
FN:18,_RNvNvXs2_NtNtCsipbLpstqwUV_8tycho_vm5instr7contopsNtB7_7ContOpsNtB9_6Module4init19exec_repeat_wrapper
FN:18,_RNvNvXs2_NtNtCsipbLpstqwUV_8tycho_vm5instr7contopsNtB7_7ContOpsNtB9_6Module4init19exec_runvmx_wrapper
FN:18,_RNvNvXs2_NtNtCsipbLpstqwUV_8tycho_vm5instr7contopsNtB7_7ContOpsNtB9_6Module4init19exec_set_cp_wrapper
FN:18,_RNvNvXs2_NtNtCsipbLpstqwUV_8tycho_vm5instr7contopsNtB7_7ContOpsNtB9_6Module4init20exec_condsel_wrapper
FN:18,_RNvNvXs2_NtNtCsipbLpstqwUV_8tycho_vm5instr7contopsNtB7_7ContOpsNtB9_6Module4init20exec_execute_wrapper
FN:18,_RNvNvXs2_NtNtCsipbLpstqwUV_8tycho_vm5instr7contopsNtB7_7ContOpsNtB9_6Module4init20exec_if_else_wrapper
FN:18,_RNvNvXs2_NtNtCsipbLpstqwUV_8tycho_vm5instr7contopsNtB7_7ContOpsNtB9_6Module4init20exec_jmpdict_wrapper
FN:18,_RNvNvXs2_NtNtCsipbLpstqwUV_8tycho_vm5instr7contopsNtB7_7ContOpsNtB9_6Module4init20exec_pop_ctr_wrapper
FN:18,_RNvNvXs2_NtNtCsipbLpstqwUV_8tycho_vm5instr7contopsNtB7_7ContOpsNtB9_6Module4init20exec_popsave_wrapper
FN:18,_RNvNvXs2_NtNtCsipbLpstqwUV_8tycho_vm5instr7contopsNtB7_7ContOpsNtB9_6Module4init20exec_ret_alt_wrapper
FN:18,_RNvNvXs2_NtNtCsipbLpstqwUV_8tycho_vm5instr7contopsNtB7_7ContOpsNtB9_6Module4init20exec_samealt_wrapper
FN:18,_RNvNvXs2_NtNtCsipbLpstqwUV_8tycho_vm5instr7contopsNtB7_7ContOpsNtB9_6Module4init20exec_savectr_wrapper
FN:18,_RNvNvXs2_NtNtCsipbLpstqwUV_8tycho_vm5instr7contopsNtB7_7ContOpsNtB9_6Module4init20exec_thenret_wrapper
FN:18,_RNvNvXs2_NtNtCsipbLpstqwUV_8tycho_vm5instr7contopsNtB7_7ContOpsNtB9_6Module4init20exec_tryargs_wrapper
FN:18,_RNvNvXs2_NtNtCsipbLpstqwUV_8tycho_vm5instr7contopsNtB7_7ContOpsNtB9_6Module4init21exec_booleval_wrapper
FN:18,_RNvNvXs2_NtNtCsipbLpstqwUV_8tycho_vm5instr7contopsNtB7_7ContOpsNtB9_6Module4init21exec_ifnotret_wrapper
FN:18,_RNvNvXs2_NtNtCsipbLpstqwUV_8tycho_vm5instr7contopsNtB7_7ContOpsNtB9_6Module4init21exec_ifretalt_wrapper
FN:18,_RNvNvXs2_NtNtCsipbLpstqwUV_8tycho_vm5instr7contopsNtB7_7ContOpsNtB9_6Module4init21exec_push_ctr_wrapper
FN:18,_RNvNvXs2_NtNtCsipbLpstqwUV_8tycho_vm5instr7contopsNtB7_7ContOpsNtB9_6Module4init21exec_ret_args_wrapper
FN:18,_RNvNvXs2_NtNtCsipbLpstqwUV_8tycho_vm5instr7contopsNtB7_7ContOpsNtB9_6Module4init21exec_ret_bool_wrapper
FN:18,_RNvNvXs2_NtNtCsipbLpstqwUV_8tycho_vm5instr7contopsNtB7_7ContOpsNtB9_6Module4init21exec_ret_data_wrapper
FN:18,_RNvNvXs2_NtNtCsipbLpstqwUV_8tycho_vm5instr7contopsNtB7_7ContOpsNtB9_6Module4init22exec_again_end_wrapper
FN:18,_RNvNvXs2_NtNtCsipbLpstqwUV_8tycho_vm5instr7contopsNtB7_7ContOpsNtB9_6Module4init22exec_ifnot_jmp_wrapper
FN:18,_RNvNvXs2_NtNtCsipbLpstqwUV_8tycho_vm5instr7contopsNtB7_7ContOpsNtB9_6Module4init22exec_jmpx_args_wrapper
FN:18,_RNvNvXs2_NtNtCsipbLpstqwUV_8tycho_vm5instr7contopsNtB7_7ContOpsNtB9_6Module4init22exec_jmpx_data_wrapper
FN:18,_RNvNvXs2_NtNtCsipbLpstqwUV_8tycho_vm5instr7contopsNtB7_7ContOpsNtB9_6Module4init22exec_throw_any_wrapper
FN:18,_RNvNvXs2_NtNtCsipbLpstqwUV_8tycho_vm5instr7contopsNtB7_7ContOpsNtB9_6Module4init22exec_until_end_wrapper
FN:18,_RNvNvXs2_NtNtCsipbLpstqwUV_8tycho_vm5instr7contopsNtB7_7ContOpsNtB9_6Module4init22exec_while_end_wrapper
FN:18,_RNvNvXs2_NtNtCsipbLpstqwUV_8tycho_vm5instr7contopsNtB7_7ContOpsNtB9_6Module4init23exec_atexit_alt_wrapper
FN:18,_RNvNvXs2_NtNtCsipbLpstqwUV_8tycho_vm5instr7contopsNtB7_7ContOpsNtB9_6Module4init23exec_bless_args_wrapper
FN:18,_RNvNvXs2_NtNtCsipbLpstqwUV_8tycho_vm5instr7contopsNtB7_7ContOpsNtB9_6Module4init23exec_callx_args_wrapper
FN:18,_RNvNvXs2_NtNtCsipbLpstqwUV_8tycho_vm5instr7contopsNtB7_7ContOpsNtB9_6Module4init23exec_if_bit_jmp_wrapper
FN:18,_RNvNvXs2_NtNtCsipbLpstqwUV_8tycho_vm5instr7contopsNtB7_7ContOpsNtB9_6Module4init23exec_repeat_end_wrapper
FN:18,_RNvNvXs2_NtNtCsipbLpstqwUV_8tycho_vm5instr7contopsNtB7_7ContOpsNtB9_6Module4init23exec_set_cp_any_wrapper
FN:18,_RNvNvXs2_NtNtCsipbLpstqwUV_8tycho_vm5instr7contopsNtB7_7ContOpsNtB9_6Module4init23exec_setalt_ctr_wrapper
FN:18,_RNvNvXs2_NtNtCsipbLpstqwUV_8tycho_vm5instr7contopsNtB7_7ContOpsNtB9_6Module4init23exec_setret_ctr_wrapper
FN:18,_RNvNvXs2_NtNtCsipbLpstqwUV_8tycho_vm5instr7contopsNtB7_7ContOpsNtB9_6Module4init24exec_callcc_args_wrapper
FN:18,_RNvNvXs2_NtNtCsipbLpstqwUV_8tycho_vm5instr7contopsNtB7_7ContOpsNtB9_6Module4init24exec_condsel_chk_wrapper
FN:18,_RNvNvXs2_NtNtCsipbLpstqwUV_8tycho_vm5instr7contopsNtB7_7ContOpsNtB9_6Module4init24exec_ifnotretalt_wrapper
FN:18,_RNvNvXs2_NtNtCsipbLpstqwUV_8tycho_vm5instr7contopsNtB7_7ContOpsNtB9_6Module4init24exec_pop_ctr_var_wrapper
FN:18,_RNvNvXs2_NtNtCsipbLpstqwUV_8tycho_vm5instr7contopsNtB7_7ContOpsNtB9_6Module4init24exec_preparedict_wrapper
FN:18,_RNvNvXs2_NtNtCsipbLpstqwUV_8tycho_vm5instr7contopsNtB7_7ContOpsNtB9_6Module4init24exec_ret_varargs_wrapper
FN:18,_RNvNvXs2_NtNtCsipbLpstqwUV_8tycho_vm5instr7contopsNtB7_7ContOpsNtB9_6Module4init24exec_return_args_wrapper
FN:18,_RNvNvXs2_NtNtCsipbLpstqwUV_8tycho_vm5instr7contopsNtB7_7ContOpsNtB9_6Module4init24exec_savealt_ctr_wrapper
FN:18,_RNvNvXs2_NtNtCsipbLpstqwUV_8tycho_vm5instr7contopsNtB7_7ContOpsNtB9_6Module4init24exec_setcont_ctr_wrapper
FN:18,_RNvNvXs2_NtNtCsipbLpstqwUV_8tycho_vm5instr7contopsNtB7_7ContOpsNtB9_6Module4init24exec_setcontargs_wrapper
FN:18,_RNvNvXs2_NtNtCsipbLpstqwUV_8tycho_vm5instr7contopsNtB7_7ContOpsNtB9_6Module4init24exec_setexit_alt_wrapper
FN:18,_RNvNvXs2_NtNtCsipbLpstqwUV_8tycho_vm5instr7contopsNtB7_7ContOpsNtB9_6Module4init24exec_thenret_alt_wrapper
FN:18,_RNvNvXs2_NtNtCsipbLpstqwUV_8tycho_vm5instr7contopsNtB7_7ContOpsNtB9_6Module4init24exec_throw_fixed_wrapper
FN:18,_RNvNvXs2_NtNtCsipbLpstqwUV_8tycho_vm5instr7contopsNtB7_7ContOpsNtB9_6Module4init25exec_callx_args_p_wrapper
FN:18,_RNvNvXs2_NtNtCsipbLpstqwUV_8tycho_vm5instr7contopsNtB7_7ContOpsNtB9_6Module4init25exec_jmpx_varargs_wrapper
FN:18,_RNvNvXs2_NtNtCsipbLpstqwUV_8tycho_vm5instr7contopsNtB7_7ContOpsNtB9_6Module4init25exec_push_ctr_var_wrapper
FN:18,_RNvNvXs2_NtNtCsipbLpstqwUV_8tycho_vm5instr7contopsNtB7_7ContOpsNtB9_6Module4init25exec_saveboth_ctr_wrapper
FN:18,_RNvNvXs2_NtNtCsipbLpstqwUV_8tycho_vm5instr7contopsNtB7_7ContOpsNtB9_6Module4init26exec_bless_varargs_wrapper
FN:18,_RNvNvXs2_NtNtCsipbLpstqwUV_8tycho_vm5instr7contopsNtB7_7ContOpsNtB9_6Module4init26exec_callx_varargs_wrapper
FN:18,_RNvNvXs2_NtNtCsipbLpstqwUV_8tycho_vm5instr7contopsNtB7_7ContOpsNtB9_6Module4init27exec_callcc_varargs_wrapper
FN:18,_RNvNvXs2_NtNtCsipbLpstqwUV_8tycho_vm5instr7contopsNtB7_7ContOpsNtB9_6Module4init27exec_calldict_short_wrapper
FN:18,_RNvNvXs2_NtNtCsipbLpstqwUV_8tycho_vm5instr7contopsNtB7_7ContOpsNtB9_6Module4init27exec_return_varargs_wrapper
FN:18,_RNvNvXs2_NtNtCsipbLpstqwUV_8tycho_vm5instr7contopsNtB7_7ContOpsNtB9_6Module4init27exec_setnum_varargs_wrapper
FN:18,_RNvNvXs2_NtNtCsipbLpstqwUV_8tycho_vm5instr7contopsNtB7_7ContOpsNtB9_6Module4init28exec_setcont_ctr_var_wrapper
FN:18,_RNvNvXs2_NtNtCsipbLpstqwUV_8tycho_vm5instr7contopsNtB7_7ContOpsNtB9_6Module4init28exec_setcont_varargs_wrapper
FN:18,_RNvNvXs2_NtNtCsipbLpstqwUV_8tycho_vm5instr7contopsNtB7_7ContOpsNtB9_6Module4init28exec_throw_arg_fixed_wrapper
FN:18,_RNvNvXs2_NtNtCsipbLpstqwUV_8tycho_vm5instr7contopsNtB7_7ContOpsNtB9_6Module4init29exec_setcont_ctr_many_wrapper
FN:18,_RNvNvXs2_NtNtCsipbLpstqwUV_8tycho_vm5instr7contopsNtB7_7ContOpsNtB9_6Module4inits0_19exec_compos_wrapper
FN:18,_RNvNvXs2_NtNtCsipbLpstqwUV_8tycho_vm5instr7contopsNtB7_7ContOpsNtB9_6Module4inits0_19exec_set_cp_wrapper
FN:18,_RNvNvXs2_NtNtCsipbLpstqwUV_8tycho_vm5instr7contopsNtB7_7ContOpsNtB9_6Module4inits0_24exec_throw_fixed_wrapper
FN:18,_RNvNvXs2_NtNtCsipbLpstqwUV_8tycho_vm5instr7contopsNtB7_7ContOpsNtB9_6Module4inits0_28exec_throw_arg_fixed_wrapper
FN:18,_RNvNvXs2_NtNtCsipbLpstqwUV_8tycho_vm5instr7contopsNtB7_7ContOpsNtB9_6Module4inits1_24exec_throw_fixed_wrapper
FN:18,_RNvNvXs2_NtNtCsipbLpstqwUV_8tycho_vm5instr7contopsNtB7_7ContOpsNtB9_6Module4inits2_24exec_throw_fixed_wrapper
FN:18,_RNvNvXs2_NtNtCsipbLpstqwUV_8tycho_vm5instr7contopsNtB7_7ContOpsNtB9_6Module4inits3_24exec_throw_fixed_wrapper
FN:18,_RNvNvXs2_NtNtCsipbLpstqwUV_8tycho_vm5instr7contopsNtB7_7ContOpsNtB9_6Module4inits_18exec_again_wrapper
FN:18,_RNvNvXs2_NtNtCsipbLpstqwUV_8tycho_vm5instr7contopsNtB7_7ContOpsNtB9_6Module4inits_18exec_until_wrapper
FN:18,_RNvNvXs2_NtNtCsipbLpstqwUV_8tycho_vm5instr7contopsNtB7_7ContOpsNtB9_6Module4inits_18exec_while_wrapper
FN:18,_RNvNvXs2_NtNtCsipbLpstqwUV_8tycho_vm5instr7contopsNtB7_7ContOpsNtB9_6Module4inits_19exec_compos_wrapper
FN:18,_RNvNvXs2_NtNtCsipbLpstqwUV_8tycho_vm5instr7contopsNtB7_7ContOpsNtB9_6Module4inits_19exec_repeat_wrapper
FN:18,_RNvNvXs2_NtNtCsipbLpstqwUV_8tycho_vm5instr7contopsNtB7_7ContOpsNtB9_6Module4inits_19exec_set_cp_wrapper
FN:18,_RNvNvXs2_NtNtCsipbLpstqwUV_8tycho_vm5instr7contopsNtB7_7ContOpsNtB9_6Module4inits_20exec_samealt_wrapper
FN:18,_RNvNvXs2_NtNtCsipbLpstqwUV_8tycho_vm5instr7contopsNtB7_7ContOpsNtB9_6Module4inits_22exec_again_end_wrapper
FN:18,_RNvNvXs2_NtNtCsipbLpstqwUV_8tycho_vm5instr7contopsNtB7_7ContOpsNtB9_6Module4inits_22exec_until_end_wrapper
FN:18,_RNvNvXs2_NtNtCsipbLpstqwUV_8tycho_vm5instr7contopsNtB7_7ContOpsNtB9_6Module4inits_22exec_while_end_wrapper
FN:18,_RNvNvXs2_NtNtCsipbLpstqwUV_8tycho_vm5instr7contopsNtB7_7ContOpsNtB9_6Module4inits_23exec_repeat_end_wrapper
FN:18,_RNvNvXs2_NtNtCsipbLpstqwUV_8tycho_vm5instr7contopsNtB7_7ContOpsNtB9_6Module4inits_24exec_throw_fixed_wrapper
FN:18,_RNvNvXs2_NtNtCsipbLpstqwUV_8tycho_vm5instr7contopsNtB7_7ContOpsNtB9_6Module4inits_27exec_calldict_short_wrapper
FN:18,_RNvNvXs2_NtNtCsipbLpstqwUV_8tycho_vm5instr7contopsNtB7_7ContOpsNtB9_6Module4inits_28exec_throw_arg_fixed_wrapper
FN:18,_RNvNvXs2_NtNtCsipbLpstqwUV_8tycho_vm5instr7contopsNtB7_7ContOpsNtB9_6Module4inits_29exec_setcont_ctr_many_wrapper
FN:1406,_RNvXs_NtNtCsipbLpstqwUV_8tycho_vm5instr7contopsNtB4_12ThrowAnyArgsNtNtCscHntIWw2aYb_4core3fmt7Display3fmt
FNDA:77936,_RNvMNtNtCsipbLpstqwUV_8tycho_vm5instr7contopsNtB2_12ThrowAnyArgs10throw_cond
FNDA:78835,_RNvMNtNtCsipbLpstqwUV_8tycho_vm5instr7contopsNtB2_12ThrowAnyArgs8has_cond
FNDA:75519,_RNvMNtNtCsipbLpstqwUV_8tycho_vm5instr7contopsNtB2_12ThrowAnyArgs9has_param
FNDA:768364,_RNvMs0_NtNtCsipbLpstqwUV_8tycho_vm5instr7contopsNtB5_9RunVmArgs11isolate_gas
FNDA:1613745,_RNvMs0_NtNtCsipbLpstqwUV_8tycho_vm5instr7contopsNtB5_9RunVmArgs19load_hard_gas_limit
FNDA:790347,_RNvMs0_NtNtCsipbLpstqwUV_8tycho_vm5instr7contopsNtB5_9RunVmArgs5ret_n
FNDA:336647,_RNvMs0_NtNtCsipbLpstqwUV_8tycho_vm5instr7contopsNtB5_9RunVmArgs6push_0
FNDA:1562281,_RNvMs0_NtNtCsipbLpstqwUV_8tycho_vm5instr7contopsNtB5_9RunVmArgs7load_c4
FNDA:806506,_RNvMs0_NtNtCsipbLpstqwUV_8tycho_vm5instr7contopsNtB5_9RunVmArgs7load_c7
FNDA:768362,_RNvMs0_NtNtCsipbLpstqwUV_8tycho_vm5instr7contopsNtB5_9RunVmArgs7same_c3
FNDA:1575361,_RNvMs0_NtNtCsipbLpstqwUV_8tycho_vm5instr7contopsNtB5_9RunVmArgs8load_gas
FNDA:768362,_RNvMs0_NtNtCsipbLpstqwUV_8tycho_vm5instr7contopsNtB5_9RunVmArgs9return_c5
FNDA:159997,_RNvNtNtCsipbLpstqwUV_8tycho_vm5instr7contops10exec_again
FNDA:6874,_RNvNtNtCsipbLpstqwUV_8tycho_vm5instr7contops10exec_bless
FNDA:64493,_RNvNtNtCsipbLpstqwUV_8tycho_vm5instr7contops10exec_ifnot
FNDA:21466,_RNvNtNtCsipbLpstqwUV_8tycho_vm5instr7contops10exec_ifref
FNDA:323889,_RNvNtNtCsipbLpstqwUV_8tycho_vm5instr7contops10exec_ifret
FNDA:805089,_RNvNtNtCsipbLpstqwUV_8tycho_vm5instr7contops10exec_runvm
FNDA:190674,_RNvNtNtCsipbLpstqwUV_8tycho_vm5instr7contops10exec_until
FNDA:111847,_RNvNtNtCsipbLpstqwUV_8tycho_vm5instr7contops10exec_while
FNDA:25522,_RNvNtNtCsipbLpstqwUV_8tycho_vm5instr7contops11exec_atexit
FNDA:29912,_RNvNtNtCsipbLpstqwUV_8tycho_vm5instr7contops11exec_callcc
FNDA:134487,_RNvNtNtCsipbLpstqwUV_8tycho_vm5instr7contops11exec_compos
FNDA:81844,_RNvNtNtCsipbLpstqwUV_8tycho_vm5instr7contops11exec_if_jmp
FNDA:6123,_RNvNtNtCsipbLpstqwUV_8tycho_vm5instr7contops11exec_invert
FNDA:2396,_RNvNtNtCsipbLpstqwUV_8tycho_vm5instr7contops11exec_jmpref
FNDA:66607,_RNvNtNtCsipbLpstqwUV_8tycho_vm5instr7contops11exec_repeat
FNDA:9882,_RNvNtNtCsipbLpstqwUV_8tycho_vm5instr7contops11exec_runvmx
FNDA:354424,_RNvNtNtCsipbLpstqwUV_8tycho_vm5instr7contops11exec_set_cp
FNDA:2876125,_RNvNtNtCsipbLpstqwUV_8tycho_vm5instr7contops11force_cdata
FNDA:1823,_RNvNtNtCsipbLpstqwUV_8tycho_vm5instr7contops12exec_callref
FNDA:56615,_RNvNtNtCsipbLpstqwUV_8tycho_vm5instr7contops12exec_condsel
FNDA:155864,_RNvNtNtCsipbLpstqwUV_8tycho_vm5instr7contops12exec_execute
FNDA:48151,_RNvNtNtCsipbLpstqwUV_8tycho_vm5instr7contops12exec_if_else
FNDA:64668,_RNvNtNtCsipbLpstqwUV_8tycho_vm5instr7contops12exec_jmpdict
FNDA:868092,_RNvNtNtCsipbLpstqwUV_8tycho_vm5instr7contops12exec_pop_ctr
FNDA:364500,_RNvNtNtCsipbLpstqwUV_8tycho_vm5instr7contops12exec_popsave
FNDA:2196,_RNvNtNtCsipbLpstqwUV_8tycho_vm5instr7contops12exec_ret_alt
FNDA:74578,_RNvNtNtCsipbLpstqwUV_8tycho_vm5instr7contops12exec_samealt
FNDA:180238,_RNvNtNtCsipbLpstqwUV_8tycho_vm5instr7contops12exec_savectr
FNDA:27933,_RNvNtNtCsipbLpstqwUV_8tycho_vm5instr7contops12exec_thenret
FNDA:625121,_RNvNtNtCsipbLpstqwUV_8tycho_vm5instr7contops12exec_tryargs
FNDA:173829,_RNvNtNtCsipbLpstqwUV_8tycho_vm5instr7contops13exec_booleval
FNDA:9713,_RNvNtNtCsipbLpstqwUV_8tycho_vm5instr7contops13exec_ifjmpref
FNDA:14007,_RNvNtNtCsipbLpstqwUV_8tycho_vm5instr7contops13exec_ifnotref
FNDA:325181,_RNvNtNtCsipbLpstqwUV_8tycho_vm5instr7contops13exec_ifnotret
FNDA:24231,_RNvNtNtCsipbLpstqwUV_8tycho_vm5instr7contops13exec_ifretalt
FNDA:2647404,_RNvNtNtCsipbLpstqwUV_8tycho_vm5instr7contops13exec_push_ctr
FNDA:122101,_RNvNtNtCsipbLpstqwUV_8tycho_vm5instr7contops13exec_ret_args
FNDA:38381,_RNvNtNtCsipbLpstqwUV_8tycho_vm5instr7contops13exec_ret_bool
FNDA:110510,_RNvNtNtCsipbLpstqwUV_8tycho_vm5instr7contops13exec_ret_data
FNDA:92250,_RNvNtNtCsipbLpstqwUV_8tycho_vm5instr7contops14exec_again_end
FNDA:3951,_RNvNtNtCsipbLpstqwUV_8tycho_vm5instr7contops14exec_ifelseref
FNDA:31252,_RNvNtNtCsipbLpstqwUV_8tycho_vm5instr7contops14exec_ifnot_jmp
FNDA:17816,_RNvNtNtCsipbLpstqwUV_8tycho_vm5instr7contops14exec_ifrefelse
FNDA:36412,_RNvNtNtCsipbLpstqwUV_8tycho_vm5instr7contops14exec_jmpx_args
FNDA:47566,_RNvNtNtCsipbLpstqwUV_8tycho_vm5instr7contops14exec_jmpx_data
FNDA:78835,_RNvNtNtCsipbLpstqwUV_8tycho_vm5instr7contops14exec_throw_any
FNDA:896818,_RNvNtNtCsipbLpstqwUV_8tycho_vm5instr7contops14exec_until_end
FNDA:312007,_RNvNtNtCsipbLpstqwUV_8tycho_vm5instr7contops14exec_while_end
FNDA:15639,_RNvNtNtCsipbLpstqwUV_8tycho_vm5instr7contops15exec_atexit_alt
FNDA:58193,_RNvNtNtCsipbLpstqwUV_8tycho_vm5instr7contops15exec_bless_args
FNDA:71335,_RNvNtNtCsipbLpstqwUV_8tycho_vm5instr7contops15exec_callx_args
FNDA:77675,_RNvNtNtCsipbLpstqwUV_8tycho_vm5instr7contops15exec_if_bit_jmp
FNDA:6754,_RNvNtNtCsipbLpstqwUV_8tycho_vm5instr7contops15exec_ref_prefix
FNDA:2444772,_RNvNtNtCsipbLpstqwUV_8tycho_vm5instr7contops15exec_repeat_end
FNDA:6092,_RNvNtNtCsipbLpstqwUV_8tycho_vm5instr7contops15exec_set_cp_any
FNDA:33601,_RNvNtNtCsipbLpstqwUV_8tycho_vm5instr7contops15exec_setalt_ctr
FNDA:171570,_RNvNtNtCsipbLpstqwUV_8tycho_vm5instr7contops15exec_setret_ctr
FNDA:706337,_RNvNtNtCsipbLpstqwUV_8tycho_vm5instr7contops15exec_try_common
FNDA:28951,_RNvNtNtCsipbLpstqwUV_8tycho_vm5instr7contops16exec_callcc_args
FNDA:109222,_RNvNtNtCsipbLpstqwUV_8tycho_vm5instr7contops16exec_cell_prefix
FNDA:94601,_RNvNtNtCsipbLpstqwUV_8tycho_vm5instr7contops16exec_condsel_chk
FNDA:64036,_RNvNtNtCsipbLpstqwUV_8tycho_vm5instr7contops16exec_ifnotjmpref
FNDA:27928,_RNvNtNtCsipbLpstqwUV_8tycho_vm5instr7contops16exec_ifnotretalt
FNDA:2535,_RNvNtNtCsipbLpstqwUV_8tycho_vm5instr7contops16exec_jmpref_data
FNDA:23269,_RNvNtNtCsipbLpstqwUV_8tycho_vm5instr7contops16exec_pop_ctr_var
FNDA:146218,_RNvNtNtCsipbLpstqwUV_8tycho_vm5instr7contops16exec_preparedict
FNDA:26526,_RNvNtNtCsipbLpstqwUV_8tycho_vm5instr7contops16exec_ret_varargs
FNDA:242102,_RNvNtNtCsipbLpstqwUV_8tycho_vm5instr7contops16exec_return_args
FNDA:34073,_RNvNtNtCsipbLpstqwUV_8tycho_vm5instr7contops16exec_savealt_ctr
FNDA:53377,_RNvNtNtCsipbLpstqwUV_8tycho_vm5instr7contops16exec_setcont_ctr
FNDA:293762,_RNvNtNtCsipbLpstqwUV_8tycho_vm5instr7contops16exec_setcontargs
FNDA:27783,_RNvNtNtCsipbLpstqwUV_8tycho_vm5instr7contops16exec_setexit_alt
FNDA:17292,_RNvNtNtCsipbLpstqwUV_8tycho_vm5instr7contops16exec_thenret_alt
FNDA:121402,_RNvNtNtCsipbLpstqwUV_8tycho_vm5instr7contops16exec_throw_fixed
FNDA:47278,_RNvNtNtCsipbLpstqwUV_8tycho_vm5instr7contops17exec_callx_args_p
FNDA:30953,_RNvNtNtCsipbLpstqwUV_8tycho_vm5instr7contops17exec_jmpx_varargs
FNDA:14336,_RNvNtNtCsipbLpstqwUV_8tycho_vm5instr7contops17exec_push_ctr_var
FNDA:808875,_RNvNtNtCsipbLpstqwUV_8tycho_vm5instr7contops17exec_runvm_common
FNDA:224076,_RNvNtNtCsipbLpstqwUV_8tycho_vm5instr7contops17exec_saveboth_ctr
FNDA:12347,_RNvNtNtCsipbLpstqwUV_8tycho_vm5instr7contops18exec_bless_varargs
FNDA:27964,_RNvNtNtCsipbLpstqwUV_8tycho_vm5instr7contops18exec_callx_varargs
FNDA:63508,_RNvNtNtCsipbLpstqwUV_8tycho_vm5instr7contops18exec_if_bit_jmpref
FNDA:12164,_RNvNtNtCsipbLpstqwUV_8tycho_vm5instr7contops18exec_ifref_elseref
FNDA:19742,_RNvNtNtCsipbLpstqwUV_8tycho_vm5instr7contops19exec_callcc_varargs
FNDA:429832,_RNvNtNtCsipbLpstqwUV_8tycho_vm5instr7contops19exec_calldict_short
FNDA:11464,_RNvNtNtCsipbLpstqwUV_8tycho_vm5instr7contops19exec_return_varargs
FNDA:5829,_RNvNtNtCsipbLpstqwUV_8tycho_vm5instr7contops19exec_setnum_varargs
FNDA:21767,_RNvNtNtCsipbLpstqwUV_8tycho_vm5instr7contops20exec_ifelse_ref_impl
FNDA:22645,_RNvNtNtCsipbLpstqwUV_8tycho_vm5instr7contops20exec_setcont_ctr_var
FNDA:5497,_RNvNtNtCsipbLpstqwUV_8tycho_vm5instr7contops20exec_setcont_varargs
FNDA:62707,_RNvNtNtCsipbLpstqwUV_8tycho_vm5instr7contops20exec_throw_arg_fixed
FNDA:115923,_RNvNtNtCsipbLpstqwUV_8tycho_vm5instr7contops21exec_setcont_ctr_many
FNDA:70006,_RNvNtNtCsipbLpstqwUV_8tycho_vm5instr7contops22exec_bless_args_common
FNDA:253291,_RNvNtNtCsipbLpstqwUV_8tycho_vm5instr7contops23exec_return_args_common
FNDA:299787,_RNvNtNtCsipbLpstqwUV_8tycho_vm5instr7contops23exec_setcontargs_common
FNDA:59298,_RNvNtNtCsipbLpstqwUV_8tycho_vm5instr7contops7exec_if
FNDA:55761,_RNvNtNtCsipbLpstqwUV_8tycho_vm5instr7contops8exec_ret
FNDA:81216,_RNvNtNtCsipbLpstqwUV_8tycho_vm5instr7contops8exec_try
FNDA:138635,_RNvNtNtCsipbLpstqwUV_8tycho_vm5instr7contops9exec_jmpx
FNDA:59298,_RNvNvXs2_NtNtCsipbLpstqwUV_8tycho_vm5instr7contopsNtB7_7ContOpsNtB9_6Module4init15exec_if_wrapper
FNDA:55761,_RNvNvXs2_NtNtCsipbLpstqwUV_8tycho_vm5instr7contopsNtB7_7ContOpsNtB9_6Module4init16exec_ret_wrapper
FNDA:81216,_RNvNvXs2_NtNtCsipbLpstqwUV_8tycho_vm5instr7contopsNtB7_7ContOpsNtB9_6Module4init16exec_try_wrapper
FNDA:138635,_RNvNvXs2_NtNtCsipbLpstqwUV_8tycho_vm5instr7contopsNtB7_7ContOpsNtB9_6Module4init17exec_jmpx_wrapper
FNDA:143829,_RNvNvXs2_NtNtCsipbLpstqwUV_8tycho_vm5instr7contopsNtB7_7ContOpsNtB9_6Module4init18exec_again_wrapper
FNDA:6874,_RNvNvXs2_NtNtCsipbLpstqwUV_8tycho_vm5instr7contopsNtB7_7ContOpsNtB9_6Module4init18exec_bless_wrapper
FNDA:64493,_RNvNvXs2_NtNtCsipbLpstqwUV_8tycho_vm5instr7contopsNtB7_7ContOpsNtB9_6Module4init18exec_ifnot_wrapper
FNDA:323889,_RNvNvXs2_NtNtCsipbLpstqwUV_8tycho_vm5instr7contopsNtB7_7ContOpsNtB9_6Module4init18exec_ifret_wrapper
FNDA:805089,_RNvNvXs2_NtNtCsipbLpstqwUV_8tycho_vm5instr7contopsNtB7_7ContOpsNtB9_6Module4init18exec_runvm_wrapper
FNDA:179946,_RNvNvXs2_NtNtCsipbLpstqwUV_8tycho_vm5instr7contopsNtB7_7ContOpsNtB9_6Module4init18exec_until_wrapper
FNDA:111522,_RNvNvXs2_NtNtCsipbLpstqwUV_8tycho_vm5instr7contopsNtB7_7ContOpsNtB9_6Module4init18exec_while_wrapper
FNDA:25522,_RNvNvXs2_NtNtCsipbLpstqwUV_8tycho_vm5instr7contopsNtB7_7ContOpsNtB9_6Module4init19exec_atexit_wrapper
FNDA:29912,_RNvNvXs2_NtNtCsipbLpstqwUV_8tycho_vm5instr7contopsNtB7_7ContOpsNtB9_6Module4init19exec_callcc_wrapper
FNDA:24990,_RNvNvXs2_NtNtCsipbLpstqwUV_8tycho_vm5instr7contopsNtB7_7ContOpsNtB9_6Module4init19exec_compos_wrapper
FNDA:81844,_RNvNvXs2_NtNtCsipbLpstqwUV_8tycho_vm5instr7contopsNtB7_7ContOpsNtB9_6Module4init19exec_if_jmp_wrapper
FNDA:6123,_RNvNvXs2_NtNtCsipbLpstqwUV_8tycho_vm5instr7contopsNtB7_7ContOpsNtB9_6Module4init19exec_invert_wrapper
FNDA:61963,_RNvNvXs2_NtNtCsipbLpstqwUV_8tycho_vm5instr7contopsNtB7_7ContOpsNtB9_6Module4init19exec_repeat_wrapper
FNDA:9882,_RNvNvXs2_NtNtCsipbLpstqwUV_8tycho_vm5instr7contopsNtB7_7ContOpsNtB9_6Module4init19exec_runvmx_wrapper
FNDA:275365,_RNvNvXs2_NtNtCsipbLpstqwUV_8tycho_vm5instr7contopsNtB7_7ContOpsNtB9_6Module4init19exec_set_cp_wrapper
FNDA:56615,_RNvNvXs2_NtNtCsipbLpstqwUV_8tycho_vm5instr7contopsNtB7_7ContOpsNtB9_6Module4init20exec_condsel_wrapper
FNDA:155864,_RNvNvXs2_NtNtCsipbLpstqwUV_8tycho_vm5instr7contopsNtB7_7ContOpsNtB9_6Module4init20exec_execute_wrapper
FNDA:48151,_RNvNvXs2_NtNtCsipbLpstqwUV_8tycho_vm5instr7contopsNtB7_7ContOpsNtB9_6Module4init20exec_if_else_wrapper
FNDA:64668,_RNvNvXs2_NtNtCsipbLpstqwUV_8tycho_vm5instr7contopsNtB7_7ContOpsNtB9_6Module4init20exec_jmpdict_wrapper
FNDA:868092,_RNvNvXs2_NtNtCsipbLpstqwUV_8tycho_vm5instr7contopsNtB7_7ContOpsNtB9_6Module4init20exec_pop_ctr_wrapper
FNDA:364500,_RNvNvXs2_NtNtCsipbLpstqwUV_8tycho_vm5instr7contopsNtB7_7ContOpsNtB9_6Module4init20exec_popsave_wrapper
FNDA:2196,_RNvNvXs2_NtNtCsipbLpstqwUV_8tycho_vm5instr7contopsNtB7_7ContOpsNtB9_6Module4init20exec_ret_alt_wrapper
FNDA:6762,_RNvNvXs2_NtNtCsipbLpstqwUV_8tycho_vm5instr7contopsNtB7_7ContOpsNtB9_6Module4init20exec_samealt_wrapper
FNDA:180238,_RNvNvXs2_NtNtCsipbLpstqwUV_8tycho_vm5instr7contopsNtB7_7ContOpsNtB9_6Module4init20exec_savectr_wrapper
FNDA:27933,_RNvNvXs2_NtNtCsipbLpstqwUV_8tycho_vm5instr7contopsNtB7_7ContOpsNtB9_6Module4init20exec_thenret_wrapper
FNDA:625121,_RNvNvXs2_NtNtCsipbLpstqwUV_8tycho_vm5instr7contopsNtB7_7ContOpsNtB9_6Module4init20exec_tryargs_wrapper
FNDA:173829,_RNvNvXs2_NtNtCsipbLpstqwUV_8tycho_vm5instr7contopsNtB7_7ContOpsNtB9_6Module4init21exec_booleval_wrapper
FNDA:325181,_RNvNvXs2_NtNtCsipbLpstqwUV_8tycho_vm5instr7contopsNtB7_7ContOpsNtB9_6Module4init21exec_ifnotret_wrapper
FNDA:24231,_RNvNvXs2_NtNtCsipbLpstqwUV_8tycho_vm5instr7contopsNtB7_7ContOpsNtB9_6Module4init21exec_ifretalt_wrapper
FNDA:2647404,_RNvNvXs2_NtNtCsipbLpstqwUV_8tycho_vm5instr7contopsNtB7_7ContOpsNtB9_6Module4init21exec_push_ctr_wrapper
FNDA:122101,_RNvNvXs2_NtNtCsipbLpstqwUV_8tycho_vm5instr7contopsNtB7_7ContOpsNtB9_6Module4init21exec_ret_args_wrapper
FNDA:38381,_RNvNvXs2_NtNtCsipbLpstqwUV_8tycho_vm5instr7contopsNtB7_7ContOpsNtB9_6Module4init21exec_ret_bool_wrapper
FNDA:110510,_RNvNvXs2_NtNtCsipbLpstqwUV_8tycho_vm5instr7contopsNtB7_7ContOpsNtB9_6Module4init21exec_ret_data_wrapper
FNDA:72751,_RNvNvXs2_NtNtCsipbLpstqwUV_8tycho_vm5instr7contopsNtB7_7ContOpsNtB9_6Module4init22exec_again_end_wrapper
FNDA:31252,_RNvNvXs2_NtNtCsipbLpstqwUV_8tycho_vm5instr7contopsNtB7_7ContOpsNtB9_6Module4init22exec_ifnot_jmp_wrapper
FNDA:36412,_RNvNvXs2_NtNtCsipbLpstqwUV_8tycho_vm5instr7contopsNtB7_7ContOpsNtB9_6Module4init22exec_jmpx_args_wrapper
FNDA:47566,_RNvNvXs2_NtNtCsipbLpstqwUV_8tycho_vm5instr7contopsNtB7_7ContOpsNtB9_6Module4init22exec_jmpx_data_wrapper
FNDA:78835,_RNvNvXs2_NtNtCsipbLpstqwUV_8tycho_vm5instr7contopsNtB7_7ContOpsNtB9_6Module4init22exec_throw_any_wrapper
FNDA:873114,_RNvNvXs2_NtNtCsipbLpstqwUV_8tycho_vm5instr7contopsNtB7_7ContOpsNtB9_6Module4init22exec_until_end_wrapper
FNDA:280883,_RNvNvXs2_NtNtCsipbLpstqwUV_8tycho_vm5instr7contopsNtB7_7ContOpsNtB9_6Module4init22exec_while_end_wrapper
FNDA:15639,_RNvNvXs2_NtNtCsipbLpstqwUV_8tycho_vm5instr7contopsNtB7_7ContOpsNtB9_6Module4init23exec_atexit_alt_wrapper
FNDA:58193,_RNvNvXs2_NtNtCsipbLpstqwUV_8tycho_vm5instr7contopsNtB7_7ContOpsNtB9_6Module4init23exec_bless_args_wrapper
FNDA:71335,_RNvNvXs2_NtNtCsipbLpstqwUV_8tycho_vm5instr7contopsNtB7_7ContOpsNtB9_6Module4init23exec_callx_args_wrapper
FNDA:77675,_RNvNvXs2_NtNtCsipbLpstqwUV_8tycho_vm5instr7contopsNtB7_7ContOpsNtB9_6Module4init23exec_if_bit_jmp_wrapper
FNDA:2396878,_RNvNvXs2_NtNtCsipbLpstqwUV_8tycho_vm5instr7contopsNtB7_7ContOpsNtB9_6Module4init23exec_repeat_end_wrapper
FNDA:6092,_RNvNvXs2_NtNtCsipbLpstqwUV_8tycho_vm5instr7contopsNtB7_7ContOpsNtB9_6Module4init23exec_set_cp_any_wrapper
FNDA:33601,_RNvNvXs2_NtNtCsipbLpstqwUV_8tycho_vm5instr7contopsNtB7_7ContOpsNtB9_6Module4init23exec_setalt_ctr_wrapper
FNDA:171570,_RNvNvXs2_NtNtCsipbLpstqwUV_8tycho_vm5instr7contopsNtB7_7ContOpsNtB9_6Module4init23exec_setret_ctr_wrapper
FNDA:28951,_RNvNvXs2_NtNtCsipbLpstqwUV_8tycho_vm5instr7contopsNtB7_7ContOpsNtB9_6Module4init24exec_callcc_args_wrapper
FNDA:94601,_RNvNvXs2_NtNtCsipbLpstqwUV_8tycho_vm5instr7contopsNtB7_7ContOpsNtB9_6Module4init24exec_condsel_chk_wrapper
FNDA:27928,_RNvNvXs2_NtNtCsipbLpstqwUV_8tycho_vm5instr7contopsNtB7_7ContOpsNtB9_6Module4init24exec_ifnotretalt_wrapper
FNDA:23269,_RNvNvXs2_NtNtCsipbLpstqwUV_8tycho_vm5instr7contopsNtB7_7ContOpsNtB9_6Module4init24exec_pop_ctr_var_wrapper
FNDA:146218,_RNvNvXs2_NtNtCsipbLpstqwUV_8tycho_vm5instr7contopsNtB7_7ContOpsNtB9_6Module4init24exec_preparedict_wrapper
FNDA:26526,_RNvNvXs2_NtNtCsipbLpstqwUV_8tycho_vm5instr7contopsNtB7_7ContOpsNtB9_6Module4init24exec_ret_varargs_wrapper
FNDA:242102,_RNvNvXs2_NtNtCsipbLpstqwUV_8tycho_vm5instr7contopsNtB7_7ContOpsNtB9_6Module4init24exec_return_args_wrapper
FNDA:34073,_RNvNvXs2_NtNtCsipbLpstqwUV_8tycho_vm5instr7contopsNtB7_7ContOpsNtB9_6Module4init24exec_savealt_ctr_wrapper
FNDA:53377,_RNvNvXs2_NtNtCsipbLpstqwUV_8tycho_vm5instr7contopsNtB7_7ContOpsNtB9_6Module4init24exec_setcont_ctr_wrapper
FNDA:293762,_RNvNvXs2_NtNtCsipbLpstqwUV_8tycho_vm5instr7contopsNtB7_7ContOpsNtB9_6Module4init24exec_setcontargs_wrapper
FNDA:27783,_RNvNvXs2_NtNtCsipbLpstqwUV_8tycho_vm5instr7contopsNtB7_7ContOpsNtB9_6Module4init24exec_setexit_alt_wrapper
FNDA:17292,_RNvNvXs2_NtNtCsipbLpstqwUV_8tycho_vm5instr7contopsNtB7_7ContOpsNtB9_6Module4init24exec_thenret_alt_wrapper
FNDA:6322,_RNvNvXs2_NtNtCsipbLpstqwUV_8tycho_vm5instr7contopsNtB7_7ContOpsNtB9_6Module4init24exec_throw_fixed_wrapper
FNDA:47278,_RNvNvXs2_NtNtCsipbLpstqwUV_8tycho_vm5instr7contopsNtB7_7ContOpsNtB9_6Module4init25exec_callx_args_p_wrapper
FNDA:30953,_RNvNvXs2_NtNtCsipbLpstqwUV_8tycho_vm5instr7contopsNtB7_7ContOpsNtB9_6Module4init25exec_jmpx_varargs_wrapper
FNDA:14336,_RNvNvXs2_NtNtCsipbLpstqwUV_8tycho_vm5instr7contopsNtB7_7ContOpsNtB9_6Module4init25exec_push_ctr_var_wrapper
FNDA:224076,_RNvNvXs2_NtNtCsipbLpstqwUV_8tycho_vm5instr7contopsNtB7_7ContOpsNtB9_6Module4init25exec_saveboth_ctr_wrapper
FNDA:12347,_RNvNvXs2_NtNtCsipbLpstqwUV_8tycho_vm5instr7contopsNtB7_7ContOpsNtB9_6Module4init26exec_bless_varargs_wrapper
FNDA:27964,_RNvNvXs2_NtNtCsipbLpstqwUV_8tycho_vm5instr7contopsNtB7_7ContOpsNtB9_6Module4init26exec_callx_varargs_wrapper
FNDA:19742,_RNvNvXs2_NtNtCsipbLpstqwUV_8tycho_vm5instr7contopsNtB7_7ContOpsNtB9_6Module4init27exec_callcc_varargs_wrapper
FNDA:426864,_RNvNvXs2_NtNtCsipbLpstqwUV_8tycho_vm5instr7contopsNtB7_7ContOpsNtB9_6Module4init27exec_calldict_short_wrapper
FNDA:11464,_RNvNvXs2_NtNtCsipbLpstqwUV_8tycho_vm5instr7contopsNtB7_7ContOpsNtB9_6Module4init27exec_return_varargs_wrapper
FNDA:5829,_RNvNvXs2_NtNtCsipbLpstqwUV_8tycho_vm5instr7contopsNtB7_7ContOpsNtB9_6Module4init27exec_setnum_varargs_wrapper
FNDA:22645,_RNvNvXs2_NtNtCsipbLpstqwUV_8tycho_vm5instr7contopsNtB7_7ContOpsNtB9_6Module4init28exec_setcont_ctr_var_wrapper
FNDA:5497,_RNvNvXs2_NtNtCsipbLpstqwUV_8tycho_vm5instr7contopsNtB7_7ContOpsNtB9_6Module4init28exec_setcont_varargs_wrapper
FNDA:4209,_RNvNvXs2_NtNtCsipbLpstqwUV_8tycho_vm5instr7contopsNtB7_7ContOpsNtB9_6Module4init28exec_throw_arg_fixed_wrapper
FNDA:109059,_RNvNvXs2_NtNtCsipbLpstqwUV_8tycho_vm5instr7contopsNtB7_7ContOpsNtB9_6Module4init29exec_setcont_ctr_many_wrapper
FNDA:78140,_RNvNvXs2_NtNtCsipbLpstqwUV_8tycho_vm5instr7contopsNtB7_7ContOpsNtB9_6Module4inits0_19exec_compos_wrapper
FNDA:56286,_RNvNvXs2_NtNtCsipbLpstqwUV_8tycho_vm5instr7contopsNtB7_7ContOpsNtB9_6Module4inits0_19exec_set_cp_wrapper
FNDA:47184,_RNvNvXs2_NtNtCsipbLpstqwUV_8tycho_vm5instr7contopsNtB7_7ContOpsNtB9_6Module4inits0_24exec_throw_fixed_wrapper
FNDA:46021,_RNvNvXs2_NtNtCsipbLpstqwUV_8tycho_vm5instr7contopsNtB7_7ContOpsNtB9_6Module4inits0_28exec_throw_arg_fixed_wrapper
FNDA:3886,_RNvNvXs2_NtNtCsipbLpstqwUV_8tycho_vm5instr7contopsNtB7_7ContOpsNtB9_6Module4inits1_24exec_throw_fixed_wrapper
FNDA:10895,_RNvNvXs2_NtNtCsipbLpstqwUV_8tycho_vm5instr7contopsNtB7_7ContOpsNtB9_6Module4inits2_24exec_throw_fixed_wrapper
FNDA:26115,_RNvNvXs2_NtNtCsipbLpstqwUV_8tycho_vm5instr7contopsNtB7_7ContOpsNtB9_6Module4inits3_24exec_throw_fixed_wrapper
FNDA:16168,_RNvNvXs2_NtNtCsipbLpstqwUV_8tycho_vm5instr7contopsNtB7_7ContOpsNtB9_6Module4inits_18exec_again_wrapper
FNDA:10728,_RNvNvXs2_NtNtCsipbLpstqwUV_8tycho_vm5instr7contopsNtB7_7ContOpsNtB9_6Module4inits_18exec_until_wrapper
FNDA:325,_RNvNvXs2_NtNtCsipbLpstqwUV_8tycho_vm5instr7contopsNtB7_7ContOpsNtB9_6Module4inits_18exec_while_wrapper
FNDA:31357,_RNvNvXs2_NtNtCsipbLpstqwUV_8tycho_vm5instr7contopsNtB7_7ContOpsNtB9_6Module4inits_19exec_compos_wrapper
FNDA:4644,_RNvNvXs2_NtNtCsipbLpstqwUV_8tycho_vm5instr7contopsNtB7_7ContOpsNtB9_6Module4inits_19exec_repeat_wrapper
FNDA:22773,_RNvNvXs2_NtNtCsipbLpstqwUV_8tycho_vm5instr7contopsNtB7_7ContOpsNtB9_6Module4inits_19exec_set_cp_wrapper
FNDA:67816,_RNvNvXs2_NtNtCsipbLpstqwUV_8tycho_vm5instr7contopsNtB7_7ContOpsNtB9_6Module4inits_20exec_samealt_wrapper
FNDA:19499,_RNvNvXs2_NtNtCsipbLpstqwUV_8tycho_vm5instr7contopsNtB7_7ContOpsNtB9_6Module4inits_22exec_again_end_wrapper
FNDA:23704,_RNvNvXs2_NtNtCsipbLpstqwUV_8tycho_vm5instr7contopsNtB7_7ContOpsNtB9_6Module4inits_22exec_until_end_wrapper
FNDA:31124,_RNvNvXs2_NtNtCsipbLpstqwUV_8tycho_vm5instr7contopsNtB7_7ContOpsNtB9_6Module4inits_22exec_while_end_wrapper
FNDA:47894,_RNvNvXs2_NtNtCsipbLpstqwUV_8tycho_vm5instr7contopsNtB7_7ContOpsNtB9_6Module4inits_23exec_repeat_end_wrapper
FNDA:27000,_RNvNvXs2_NtNtCsipbLpstqwUV_8tycho_vm5instr7contopsNtB7_7ContOpsNtB9_6Module4inits_24exec_throw_fixed_wrapper
FNDA:2968,_RNvNvXs2_NtNtCsipbLpstqwUV_8tycho_vm5instr7contopsNtB7_7ContOpsNtB9_6Module4inits_27exec_calldict_short_wrapper
FNDA:12477,_RNvNvXs2_NtNtCsipbLpstqwUV_8tycho_vm5instr7contopsNtB7_7ContOpsNtB9_6Module4inits_28exec_throw_arg_fixed_wrapper
FNDA:6864,_RNvNvXs2_NtNtCsipbLpstqwUV_8tycho_vm5instr7contopsNtB7_7ContOpsNtB9_6Module4inits_29exec_setcont_ctr_many_wrapper
FNDA:0,_RNvXs_NtNtCsipbLpstqwUV_8tycho_vm5instr7contopsNtB4_12ThrowAnyArgsNtNtCscHntIWw2aYb_4core3fmt7Display3fmt
FNF:113
FNH:112
DA:18,15158061
DA:23,155864
DA:24,155864
DA:25,143289
DA:26,155864
DA:29,138635
DA:30,138635
DA:31,127818
DA:32,138635
DA:35,71335
DA:36,71335
DA:37,67066
DA:38,71335
DA:41,47278
DA:42,47278
DA:43,33836
DA:44,47278
DA:47,36412
DA:48,36412
DA:49,33646
DA:50,36412
DA:53,122101
DA:54,122101
DA:55,122101
DA:58,55761
DA:59,55761
DA:60,55761
DA:63,2196
DA:64,2196
DA:65,2196
DA:68,38381
DA:69,38381
DA:70,26287
DA:72,5974
DA:74,38381
DA:77,29912
DA:78,29912
DA:79,26834
DA:80,26834
DA:81,26834
DA:82,29912
DA:85,47566
DA:86,47566
DA:87,47566
DA:88,45025
DA:89,45025
DA:90,47566
DA:93,28951
DA:94,28951
DA:95,27337
DA:96,16817
DA:97,16817
DA:98,28951
DA:101,27964
DA:102,27964
DA:103,27964
DA:104,27559
DA:105,16852
DA:106,4280
DA:107,27964
DA:110,26526
DA:111,26526
DA:112,25650
DA:113,26526
DA:116,30953
DA:117,30953
DA:118,30953
DA:119,20006
DA:120,9843
DA:121,30953
DA:124,19742
DA:125,19742
DA:126,19742
DA:127,19430
DA:128,19184
DA:129,4790
DA:130,4790
DA:131,4790
DA:132,4790
DA:133,4790
DA:134,1650
DA:135,1650
DA:136,19742
DA:139,1823
DA:140,1823
DA:141,1524
DA:142,1823
DA:155,2396
DA:156,2396
DA:157,888
DA:158,2396
DA:171,2535
DA:172,2535
DA:173,502
DA:174,502
DA:175,2535
DA:188,110510
DA:189,110510
DA:190,110510
DA:191,110510
DA:194,805089
DA:195,805089
DA:196,805089
DA:199,9882
DA:200,9882
DA:201,3786
DA:202,9882
DA:207,323889
DA:208,323889
DA:209,256201
DA:211,67000
DA:213,323889
DA:216,325181
DA:217,325181
DA:218,212702
DA:220,93215
DA:222,325181
DA:225,59298
DA:226,59298
DA:227,59298
DA:228,56290
DA:229,49440
DA:231,4213
DA:233,59298
DA:236,64493
DA:237,64493
DA:238,64493
DA:239,30974
DA:240,22072
DA:242,277
DA:244,64493
DA:247,81844
DA:248,81844
DA:249,81844
DA:250,64644
DA:251,56326
DA:253,1753
DA:255,81844
DA:258,31252
DA:259,31252
DA:260,31252
DA:261,27010
DA:262,18528
DA:264,285
DA:266,31252
DA:269,48151
DA:270,48151
DA:271,23283
DA:272,48151
DA:273,45882
DA:274,38856
DA:275,4748
DA:276,18535
DA:279,23283
DA:280,48151
DA:283,21466
DA:284,21466
DA:285,21107
DA:286,13436
DA:287,13426
DA:289,6076
DA:291,21466
DA:304,14007
DA:305,14007
DA:306,13514
DA:307,6456
DA:309,5757
DA:310,5756
DA:312,14007
DA:325,9713
DA:326,9713
DA:327,9275
DA:328,6021
DA:329,6020
DA:331,781
DA:333,9713
DA:346,64036
DA:347,64036
DA:348,63662
DA:349,3240
DA:351,40910
DA:352,40908
DA:354,64036
DA:367,56615
DA:368,56615
DA:369,56615
DA:370,56281
DA:371,54690
DA:372,49207
DA:373,20193
DA:374,29014
DA:376,49207
DA:377,56615
DA:380,94601
DA:381,94601
DA:382,94601
DA:383,93786
DA:384,72484
DA:385,594
DA:386,594
DA:388,71890
DA:389,58374
DA:390,25602
DA:391,32772
DA:393,58374
DA:394,94601
DA:397,24231
DA:398,24231
DA:399,12039
DA:401,9275
DA:403,24231
DA:406,27928
DA:407,27928
DA:408,15890
DA:410,9962
DA:412,27928
DA:415,17816
DA:416,17816
DA:417,17816
DA:430,3951
DA:431,3951
DA:432,3951
DA:445,12164
DA:446,10105
DA:447,12164
DA:448,12164
DA:449,11876
DA:450,11876
DA:452,11876
DA:453,0
DA:455,11876
DA:456,11876
DA:458,11876
DA:459,0
DA:461,11876
DA:462,11876
DA:464,11876
DA:465,11876
DA:466,11876
DA:467,11876
DA:468,11876
DA:470,11876
DA:471,2360
DA:472,7745
DA:475,10105
DA:476,10104
DA:477,12164
DA:505,77675
DA:506,72432
DA:507,77675
DA:508,77675
DA:509,74708
DA:510,72432
DA:511,72432
DA:512,72432
DA:513,72432
DA:514,72432
DA:515,72432
DA:516,19180
DA:518,53252
DA:520,77675
DA:523,63508
DA:524,63508
DA:525,63508
DA:526,63272
DA:527,63272
DA:529,63272
DA:530,0
DA:532,63272
DA:533,63272
DA:535,63272
DA:536,63272
DA:537,63272
DA:538,63272
DA:539,63272
DA:540,63272
DA:541,63272
DA:543,60313
DA:544,63272
DA:545,63272
DA:546,60313
DA:547,60313
DA:548,60313
DA:549,60313
DA:550,60313
DA:551,60313
DA:552,54642
DA:553,54640
DA:555,5671
DA:557,63508
DA:585,66607
DA:586,66607
DA:587,66607
DA:588,62016
DA:589,61679
DA:590,5144
DA:591,56535
DA:593,56535
DA:594,56535
DA:595,56535
DA:596,66607
DA:600,2444772
DA:601,2444772
DA:602,2300736
DA:603,891082
DA:604,1409654
DA:605,1409654
DA:606,1409654
DA:607,0
DA:609,1409654
DA:610,1409654
DA:611,2444772
DA:615,190674
DA:616,190674
DA:617,178184
DA:618,178184
DA:619,178184
DA:620,190674
DA:624,896818
DA:625,896818
DA:626,896818
DA:627,0
DA:629,896818
DA:630,896818
DA:631,896818
DA:635,111847
DA:636,111847
DA:637,111847
DA:638,108078
DA:640,107519
DA:641,107519
DA:642,107519
DA:643,111847
DA:647,312007
DA:648,312007
DA:649,303520
DA:650,303520
DA:651,0
DA:653,303520
DA:654,303520
DA:655,312007
DA:659,159997
DA:660,159997
DA:661,16168
DA:662,16168
DA:663,143829
DA:664,159997
DA:665,147495
DA:666,159997
DA:670,92250
DA:671,92250
DA:672,19499
DA:673,72751
DA:674,92250
DA:675,92250
DA:676,92250
DA:681,293762
DA:682,293762
DA:683,283897
DA:684,293762
DA:687,242102
DA:688,242102
DA:689,221569
DA:690,242102
DA:693,11464
DA:694,11464
DA:695,11189
DA:696,525
DA:697,11464
DA:700,5497
DA:701,5497
DA:702,5497
DA:703,3163
DA:704,1144
DA:705,369
DA:706,5497
DA:709,5829
DA:710,5829
DA:711,4881
DA:712,4098
DA:713,5829
DA:716,6874
DA:717,6874
DA:718,6874
DA:719,578
DA:720,578
DA:721,578
DA:722,6874
DA:725,12347
DA:726,12347
DA:727,12347
DA:728,12049
DA:729,11813
DA:730,475
DA:731,12347
DA:734,2647404
DA:735,2647404
DA:736,2640263
DA:737,2640263
DA:738,2647404
DA:741,868092
DA:742,868092
DA:743,845983
DA:744,844617
DA:745,799123
DA:746,868092
DA:749,53377
DA:750,53377
DA:751,38984
DA:752,38984
DA:753,12896
DA:754,12592
DA:755,10649
DA:756,10649
DA:757,53377
DA:760,171570
DA:761,171570
DA:762,165464
DA:763,165464
DA:764,159366
DA:765,127508
DA:766,171570
DA:769,33601
DA:770,33601
DA:772,24585
DA:773,24585
DA:774,23751
DA:775,2447
DA:776,33601
DA:779,364500
DA:780,364500
DA:781,362191
DA:782,362191
DA:783,353488
DA:785,353488
DA:786,5700
DA:787,5700
DA:790,347788
DA:791,347788
DA:792,347788
DA:793,347788
DA:794,347788
DA:795,347788
DA:796,347788
DA:797,347788
DA:798,347788
DA:799,347788
DA:800,6292
DA:801,6292
DA:803,341496
DA:804,294640
DA:807,300932
DA:808,364500
DA:811,180238
DA:812,180238
DA:814,179996
DA:815,179996
DA:816,179996
DA:817,179996
DA:818,179996
DA:819,179996
DA:821,179996
DA:822,172076
DA:823,172076
DA:824,180238
DA:827,34073
DA:828,34073
DA:831,33827
DA:832,33827
DA:833,33827
DA:834,33827
DA:835,33827
DA:836,33827
DA:838,33827
DA:839,23463
DA:840,23463
DA:841,34073
DA:844,224076
DA:845,224076
DA:847,223517
DA:848,223517
DA:849,223517
DA:850,223517
DA:851,223517
DA:852,223517
DA:853,223517
DA:854,223517
DA:855,223517
DA:856,223517
DA:857,223517
DA:858,223517
DA:859,223517
DA:860,223517
DA:861,224076
DA:864,14336
DA:865,14336
DA:866,14336
DA:867,11018
DA:868,3412
DA:870,7606
DA:871,7606
DA:872,14336
DA:875,23269
DA:876,23269
DA:877,23269
DA:878,22757
DA:879,22757
DA:880,379
DA:883,22378
DA:884,16637
DA:885,521
DA:886,23269
DA:889,22645
DA:890,22645
DA:891,22645
DA:892,19266
DA:893,19266
DA:894,1257
DA:896,18009
DA:897,5937
DA:898,5660
DA:899,2153
DA:900,2153
DA:901,22645
DA:905,115923
DA:906,115923
DA:908,115923
DA:909,115923
DA:910,109059
DA:911,6864
DA:913,115724
DA:915,113327
DA:917,956644
DA:918,853182
DA:919,587430
DA:920,265752
DA:922,265752
DA:923,0
DA:924,0
DA:925,0
DA:926,0
DA:928,265752
DA:931,103462
DA:932,103462
DA:933,115923
DA:938,134487
DA:939,134487
DA:940,134487
DA:941,125994
DA:942,123109
DA:943,123109
DA:944,24954
DA:945,22251
DA:946,75904
DA:947,75904
DA:948,75904
DA:949,75904
DA:951,123109
DA:952,123109
DA:953,134487
DA:956,25522
DA:957,25522
DA:958,6878
DA:959,6878
DA:960,6878
DA:961,25522
DA:964,15639
DA:965,15639
DA:966,6109
DA:967,6109
DA:968,6109
DA:969,15639
DA:972,27783
DA:973,27783
DA:974,23292
DA:975,23292
DA:976,23292
DA:977,23292
DA:978,23292
DA:979,27783
DA:982,27933
DA:983,27933
DA:984,27933
DA:985,17616
DA:986,17616
DA:987,17616
DA:988,27933
DA:991,17292
DA:992,17292
DA:993,17292
DA:994,14443
DA:995,14443
DA:996,14443
DA:997,17292
DA:1000,6123
DA:1001,6123
DA:1002,6123
DA:1003,6123
DA:1006,173829
DA:1007,173829
DA:1009,157365
DA:1010,157365
DA:1011,157365
DA:1012,157365
DA:1013,157365
DA:1014,157365
DA:1015,157365
DA:1016,157365
DA:1017,173829
DA:1021,74578
DA:1022,74578
DA:1023,74578
DA:1024,74578
DA:1025,74578
DA:1026,74578
DA:1027,67816
DA:1028,67816
DA:1030,74578
DA:1031,74578
DA:1032,74578
DA:1035,58193
DA:1036,58193
DA:1037,20735
DA:1038,58193
DA:1044,429832
DA:1045,429832
DA:1046,429832
DA:1047,0
DA:1048,0
DA:1049,0
DA:1050,0
DA:1052,429832
DA:1053,429832
DA:1056,64668
DA:1057,64668
DA:1058,64668
DA:1059,0
DA:1060,0
DA:1061,0
DA:1062,0
DA:1064,64668
DA:1065,64668
DA:1068,146218
DA:1069,146218
DA:1070,146218
DA:1072,146218
DA:1073,146218
DA:1074,0
DA:1076,146218
DA:1077,146218
DA:1078,146218
DA:1088,121402
DA:1089,121402
DA:1090,111194
DA:1091,85339
DA:1092,5864
DA:1093,10208
DA:1095,16072
DA:1096,121402
DA:1101,62707
DA:1102,62707
DA:1104,62707
DA:1105,58498
DA:1106,49167
DA:1107,48838
DA:1108,7601
DA:1109,4209
DA:1111,11810
DA:1112,8885
DA:1113,62707
DA:1116,78835
DA:1117,78835
DA:1118,78835
DA:1119,78835
DA:1120,78835
DA:1121,76418
DA:1123,2417
DA:1126,77973
DA:1127,75519
DA:1128,71143
DA:1129,13775
DA:1130,57368
DA:1131,70853
DA:1132,4376
DA:1133,2691
DA:1134,2157
DA:1136,1685
DA:1138,78835
DA:1141,81216
DA:1142,81216
DA:1143,81216
DA:1146,625121
DA:1147,625121
DA:1148,625121
DA:1152,6092
DA:1153,6092
DA:1154,3981
DA:1155,261
DA:1156,6092
DA:1161,354424
DA:1162,354424
DA:1163,275365
DA:1164,354424
DA:1167,6754
DA:1168,6754
DA:1169,6754
DA:1170,2914
DA:1171,2914
DA:1173,2914
DA:1174,0
DA:1176,2914
DA:1177,2914
DA:1179,2914
DA:1180,2914
DA:1181,6754
DA:1200,109222
DA:1201,109222
DA:1202,109222
DA:1203,107558
DA:1204,107558
DA:1206,107558
DA:1207,0
DA:1209,107558
DA:1210,107558
DA:1212,107558
DA:1213,107558
DA:1214,109222
DA:1216,21767
DA:1217,19140
DA:1218,21767
DA:1219,21767
DA:1220,21441
DA:1221,21441
DA:1223,21441
DA:1224,0
DA:1226,21441
DA:1227,21441
DA:1229,21441
DA:1230,17491
DA:1231,3950
DA:1234,21441
DA:1235,21441
DA:1236,21441
DA:1237,21441
DA:1239,20192
DA:1240,13598
DA:1242,5546
DA:1245,19140
DA:1246,21767
DA:1248,299787
DA:1249,299787
DA:1250,299787
DA:1251,293573
DA:1252,286643
DA:1253,286643
DA:1254,286643
DA:1255,188692
DA:1256,184365
DA:1257,10340
DA:1259,174025
DA:1262,183486
DA:1264,183483
DA:1265,6324
DA:1266,177159
DA:1267,97951
DA:1269,281434
DA:1270,267046
DA:1271,45974
DA:1272,45974
DA:1273,4774
DA:1274,41200
DA:1276,221072
DA:1278,14388
DA:1279,6930
DA:1281,288364
DA:1282,288364
DA:1283,299787
DA:1285,253291
DA:1286,186866
DA:1287,253291
DA:1288,253291
DA:1289,253291
DA:1290,253291
DA:1291,186866
DA:1292,44307
DA:1293,22118
DA:1295,186866
DA:1297,186866
DA:1298,186866
DA:1299,186866
DA:1300,186866
DA:1301,186866
DA:1302,186866
DA:1304,177850
DA:1305,29321
DA:1306,29321
DA:1307,148529
DA:1308,148529
DA:1309,148529
DA:1311,177850
DA:1313,177787
DA:1314,9406
DA:1315,168381
DA:1316,177787
DA:1317,253291
DA:1319,70006
DA:1320,70006
DA:1321,70006
DA:1322,23349
DA:1323,21210
DA:1324,21210
DA:1325,21210
DA:1326,21210
DA:1327,21210
DA:1328,21210
DA:1329,21210
DA:1330,21210
DA:1331,21210
DA:1332,21210
DA:1333,21210
DA:1334,21210
DA:1335,70006
DA:1337,706337
DA:1338,706337
DA:1339,706337
DA:1340,681560
DA:1341,673505
DA:1342,673505
DA:1343,673505
DA:1344,673505
DA:1346,667587
DA:1347,667587
DA:1348,667587
DA:1349,613936
DA:1350,613936
DA:1352,667587
DA:1353,667587
DA:1354,667587
DA:1355,706337
DA:1357,2876125
DA:1358,2876125
DA:1359,1831515
DA:1360,1831515
DA:1361,1831515
DA:1362,1044610
DA:1363,1044610
DA:1364,1044610
DA:1365,1044610
DA:1366,1044610
DA:1367,1044610
DA:1368,1044610
DA:1369,1044610
DA:1370,1044610
DA:1371,1044610
DA:1372,1044610
DA:1373,2876125
DA:1392,75519
DA:1393,75519
DA:1394,75519
DA:1396,78835
DA:1397,78835
DA:1398,78835
DA:1400,77936
DA:1401,77936
DA:1402,77936
DA:1406,0
DA:1407,0
DA:1408,0
DA:1409,0
DA:1410,0
DA:1412,0
DA:1415,0
DA:1418,0
DA:1419,0
DA:1427,768362
DA:1428,768362
DA:1429,768362
DA:1432,336647
DA:1433,336647
DA:1434,336647
DA:1437,1562281
DA:1438,1562281
DA:1439,1562281
DA:1442,1575361
DA:1443,1575361
DA:1444,1575361
DA:1447,806506
DA:1448,806506
DA:1449,806506
DA:1452,768362
DA:1453,768362
DA:1454,768362
DA:1457,1613745
DA:1458,1613745
DA:1459,1613745
DA:1462,768364
DA:1463,768364
DA:1464,768364
DA:1468,790347
DA:1469,790347
DA:1470,790347
DA:1473,808875
DA:1474,808875
DA:1475,808875
DA:1478,1329
DA:1482,807546
DA:1485,807239
DA:1487,807239
DA:1488,16762
DA:1490,790477
DA:1492,806999
DA:1493,49006
DA:1495,757993
DA:1498,806506
DA:1499,16258
DA:1500,790248
DA:1501,790248
DA:1502,790248
DA:1504,806506
DA:1505,13392
DA:1507,793114
DA:1510,793919
DA:1511,10029
DA:1513,783890
DA:1516,790347
DA:1517,18601
DA:1519,771746
DA:1522,789274
DA:1523,781295
DA:1524,768365
DA:1525,768365
DA:1529,768364
DA:1530,768364
DA:1531,768364
DA:1532,768364
DA:1533,768364
DA:1537,768362
DA:1538,768362
DA:1539,768362
DA:1540,768362
DA:1541,336647
DA:1542,19381
DA:1543,19381
DA:1544,19381
DA:1545,19381
DA:1546,317266
DA:1547,336647
DA:1549,431715
DA:1552,768362
DA:1553,768362
DA:1554,768362
DA:1555,768362
DA:1556,768362
DA:1557,768362
DA:1558,768362
DA:1559,768362
DA:1560,768362
DA:1561,768362
DA:1562,768362
DA:1563,768362
DA:1564,768362
DA:1565,768362
DA:1566,768362
DA:1567,768362
DA:1568,768362
DA:1569,768362
DA:1570,768362
DA:1571,768362
DA:1572,768362
DA:1573,768362
DA:1574,768362
DA:1575,768362
DA:1576,768362
DA:1577,768362
DA:1578,768362
DA:1579,768362
DA:1580,768362
DA:1581,808875
BRF:0
BRH:0
LF:978
LH:947
end_of_record
SF:/home/odm3n/dev/work/everscale-vm/vm/src/instr/cryptops.rs
FN:196,_RINvXNtNtCsipbLpstqwUV_8tycho_vm5instr8cryptopsNtB3_6ToSignNtNtCsGpAq9gRg8y_8tl_proto6traits7TlWrite8write_toINtNtBZ_6hasher12DigestWriterINtNtNtCs9HfeyNGOFIs_6digest8core_api7wrapper11CoreWrapperINtNtB2h_11ct_variable21CtVariableCoreWrapperNtNtCsk121Mznl5ov_4sha28core_api13Sha512VarCoreINtNtCs4NRa5Z1cUgc_7typenum4uint4UIntIB4D_IB4D_IB4D_IB4D_IB4D_IB4D_NtB4F_5UTermNtNtB4H_3bit2B1ENtB5V_2B0EB69_EB69_EB69_EB69_EB69_ENtB3V_9OidSha512EEEEB7_
FN:170,_RNCNvNtNtCsipbLpstqwUV_8tycho_vm5instr8cryptops28exec_ed25519_check_signature0B7_
FN:313,_RNvMs_NtNtCsipbLpstqwUV_8tycho_vm5instr8cryptopsNtB4_15HashInputReader10load_bytes
FN:271,_RNvMs_NtNtCsipbLpstqwUV_8tycho_vm5instr8cryptopsNtB4_15HashInputReader12chunk_buffer
FN:360,_RNvMs_NtNtCsipbLpstqwUV_8tycho_vm5instr8cryptopsNtB4_15HashInputReader14get_data_slice
FN:276,_RNvMs_NtNtCsipbLpstqwUV_8tycho_vm5instr8cryptopsNtB4_15HashInputReader9load_next
FN:56,_RNvNtNtCsipbLpstqwUV_8tycho_vm5instr8cryptops13exec_hash_ext
FN:209,_RNvNtNtCsipbLpstqwUV_8tycho_vm5instr8cryptops16compute_hash_ext
FN:22,_RNvNtNtCsipbLpstqwUV_8tycho_vm5instr8cryptops17exec_compute_hash
FN:40,_RNvNtNtCsipbLpstqwUV_8tycho_vm5instr8cryptops19exec_compute_sha256
FN:239,_RNvNtNtCsipbLpstqwUV_8tycho_vm5instr8cryptops23compute_hash_ext_sha256
FN:239,_RNvNtNtCsipbLpstqwUV_8tycho_vm5instr8cryptops23compute_hash_ext_sha512
FN:239,_RNvNtNtCsipbLpstqwUV_8tycho_vm5instr8cryptops27compute_hash_ext_blake2b512
FN:112,_RNvNtNtCsipbLpstqwUV_8tycho_vm5instr8cryptops28exec_ed25519_check_signature
FN:18,_RNvNvXs2_NtNtCsipbLpstqwUV_8tycho_vm5instr8cryptopsNtB7_8CryptOpsNtB9_6Module4init21exec_hash_ext_wrapper
FN:18,_RNvNvXs2_NtNtCsipbLpstqwUV_8tycho_vm5instr8cryptopsNtB7_8CryptOpsNtB9_6Module4init25exec_compute_hash_wrapper
FN:18,_RNvNvXs2_NtNtCsipbLpstqwUV_8tycho_vm5instr8cryptopsNtB7_8CryptOpsNtB9_6Module4init27exec_compute_sha256_wrapper
FN:18,_RNvNvXs2_NtNtCsipbLpstqwUV_8tycho_vm5instr8cryptopsNtB7_8CryptOpsNtB9_6Module4init36exec_ed25519_check_signature_wrapper
FN:18,_RNvNvXs2_NtNtCsipbLpstqwUV_8tycho_vm5instr8cryptopsNtB7_8CryptOpsNtB9_6Module4inits0_36exec_ed25519_check_signature_wrapper
FN:18,_RNvNvXs2_NtNtCsipbLpstqwUV_8tycho_vm5instr8cryptopsNtB7_8CryptOpsNtB9_6Module4inits1_36exec_ed25519_check_signature_wrapper
FN:18,_RNvNvXs2_NtNtCsipbLpstqwUV_8tycho_vm5instr8cryptopsNtB7_8CryptOpsNtB9_6Module4inits_25exec_compute_hash_wrapper
FN:18,_RNvNvXs2_NtNtCsipbLpstqwUV_8tycho_vm5instr8cryptopsNtB7_8CryptOpsNtB9_6Module4inits_36exec_ed25519_check_signature_wrapper
FN:388,_RNvXs0_NtNtCsipbLpstqwUV_8tycho_vm5instr8cryptopsNtB5_18DisplayHashArgsExtNtNtCscHntIWw2aYb_4core3fmt7Display3fmt
FN:191,_RNvXNtNtCsipbLpstqwUV_8tycho_vm5instr8cryptopsNtB2_6ToSignNtNtCsGpAq9gRg8y_8tl_proto6traits7TlWrite13max_size_hint
FNDA:6052,_RINvXNtNtCsipbLpstqwUV_8tycho_vm5instr8cryptopsNtB3_6ToSignNtNtCsGpAq9gRg8y_8tl_proto6traits7TlWrite8write_toINtNtBZ_6hasher12DigestWriterINtNtNtCs9HfeyNGOFIs_6digest8core_api7wrapper11CoreWrapperINtNtB2h_11ct_variable21CtVariableCoreWrapperNtNtCsk121Mznl5ov_4sha28core_api13Sha512VarCoreINtNtCs4NRa5Z1cUgc_7typenum4uint4UIntIB4D_IB4D_IB4D_IB4D_IB4D_IB4D_NtB4F_5UTermNtNtB4H_3bit2B1ENtB5V_2B0EB69_EB69_EB69_EB69_EB69_ENtB3V_9OidSha512EEEEB7_
FNDA:0,_RNCNvNtNtCsipbLpstqwUV_8tycho_vm5instr8cryptops28exec_ed25519_check_signature0B7_
FNDA:193422,_RNvMs_NtNtCsipbLpstqwUV_8tycho_vm5instr8cryptopsNtB4_15HashInputReader10load_bytes
FNDA:96749,_RNvMs_NtNtCsipbLpstqwUV_8tycho_vm5instr8cryptopsNtB4_15HashInputReader12chunk_buffer
FNDA:193422,_RNvMs_NtNtCsipbLpstqwUV_8tycho_vm5instr8cryptopsNtB4_15HashInputReader14get_data_slice
FNDA:170089,_RNvMs_NtNtCsipbLpstqwUV_8tycho_vm5instr8cryptopsNtB4_15HashInputReader9load_next
FNDA:99225,_RNvNtNtCsipbLpstqwUV_8tycho_vm5instr8cryptops13exec_hash_ext
FNDA:97343,_RNvNtNtCsipbLpstqwUV_8tycho_vm5instr8cryptops16compute_hash_ext
FNDA:53342,_RNvNtNtCsipbLpstqwUV_8tycho_vm5instr8cryptops17exec_compute_hash
FNDA:30289,_RNvNtNtCsipbLpstqwUV_8tycho_vm5instr8cryptops19exec_compute_sha256
FNDA:36472,_RNvNtNtCsipbLpstqwUV_8tycho_vm5instr8cryptops23compute_hash_ext_sha256
FNDA:43264,_RNvNtNtCsipbLpstqwUV_8tycho_vm5instr8cryptops23compute_hash_ext_sha512
FNDA:17013,_RNvNtNtCsipbLpstqwUV_8tycho_vm5instr8cryptops27compute_hash_ext_blake2b512
FNDA:38126,_RNvNtNtCsipbLpstqwUV_8tycho_vm5instr8cryptops28exec_ed25519_check_signature
FNDA:99225,_RNvNvXs2_NtNtCsipbLpstqwUV_8tycho_vm5instr8cryptopsNtB7_8CryptOpsNtB9_6Module4init21exec_hash_ext_wrapper
FNDA:38528,_RNvNvXs2_NtNtCsipbLpstqwUV_8tycho_vm5instr8cryptopsNtB7_8CryptOpsNtB9_6Module4init25exec_compute_hash_wrapper
FNDA:30289,_RNvNvXs2_NtNtCsipbLpstqwUV_8tycho_vm5instr8cryptopsNtB7_8CryptOpsNtB9_6Module4init27exec_compute_sha256_wrapper
FNDA:8870,_RNvNvXs2_NtNtCsipbLpstqwUV_8tycho_vm5instr8cryptopsNtB7_8CryptOpsNtB9_6Module4init36exec_ed25519_check_signature_wrapper
FNDA:11902,_RNvNvXs2_NtNtCsipbLpstqwUV_8tycho_vm5instr8cryptopsNtB7_8CryptOpsNtB9_6Module4inits0_36exec_ed25519_check_signature_wrapper
FNDA:9896,_RNvNvXs2_NtNtCsipbLpstqwUV_8tycho_vm5instr8cryptopsNtB7_8CryptOpsNtB9_6Module4inits1_36exec_ed25519_check_signature_wrapper
FNDA:14814,_RNvNvXs2_NtNtCsipbLpstqwUV_8tycho_vm5instr8cryptopsNtB7_8CryptOpsNtB9_6Module4inits_25exec_compute_hash_wrapper
FNDA:7458,_RNvNvXs2_NtNtCsipbLpstqwUV_8tycho_vm5instr8cryptopsNtB7_8CryptOpsNtB9_6Module4inits_36exec_ed25519_check_signature_wrapper
FNDA:0,_RNvXs0_NtNtCsipbLpstqwUV_8tycho_vm5instr8cryptopsNtB5_18DisplayHashArgsExtNtNtCscHntIWw2aYb_4core3fmt7Display3fmt
FNDA:0,_RNvXNtNtCsipbLpstqwUV_8tycho_vm5instr8cryptopsNtB2_6ToSignNtNtCsGpAq9gRg8y_8tl_proto6traits7TlWrite13max_size_hint
FNF:15
FNH:12
DA:18,220982
DA:22,53342
DA:23,53342
DA:25,53342
DA:26,38528
DA:28,14814
DA:29,10971
DA:30,10963
DA:34,24427
DA:35,24427
DA:36,24427
DA:37,53342
DA:40,30289
DA:41,30289
DA:42,30289
DA:43,27756
DA:44,27756
DA:45,27756
DA:47,23916
DA:48,23916
DA:50,23916
DA:51,23916
DA:52,23916
DA:53,30289
DA:56,99225
DA:57,99225
DA:59,99225
DA:60,99225
DA:61,18009
DA:62,81216
DA:63,98889
DA:64,98889
DA:67,97343
DA:68,87069
DA:70,87069
DA:72,46079
DA:73,44166
DA:74,43411
DA:75,40990
DA:77,18635
DA:78,18635
DA:81,22355
DA:82,44710
DA:83,44710
DA:84,44710
DA:85,44710
DA:86,22355
DA:89,84401
DA:90,99225
DA:112,38126
DA:113,38126
DA:114,38126
DA:115,38126
DA:116,38126
DA:117,38126
DA:118,38126
DA:119,35786
DA:121,25861
DA:122,25861
DA:123,9274
DA:124,5011
DA:125,5011
DA:126,5011
DA:127,5011
DA:128,2375
DA:130,2375
DA:132,16587
DA:133,16172
DA:136,1366
DA:139,14806
DA:140,14806
DA:141,14806
DA:142,14806
DA:143,14806
DA:144,14806
DA:147,17181
DA:148,17181
DA:150,11496
DA:153,233
DA:155,11263
DA:156,11263
DA:157,11263
DA:158,11263
DA:159,11263
DA:161,11234
DA:162,8393
DA:163,11234
DA:165,2841
DA:168,8393
DA:169,8393
DA:170,8393
DA:171,8393
DA:172,8393
DA:173,8393
DA:174,8393
DA:177,11234
DA:178,11234
DA:179,38126
DA:191,0
DA:192,0
DA:193,0
DA:196,6052
DA:197,6052
DA:198,6052
DA:199,6052
DA:200,6052
DA:201,0
DA:202,6052
DA:203,6052
DA:204,6052
DA:209,97343
DA:210,97343
DA:211,97343
DA:212,97343
DA:213,97343
DA:214,97343
DA:215,97343
DA:216,97343
DA:217,97343
DA:218,97343
DA:219,97343
DA:220,97343
DA:221,97343
DA:222,97343
DA:223,97343
DA:224,97343
DA:225,97343
DA:226,97343
DA:228,97343
DA:229,36472
DA:230,594
DA:231,594
DA:232,594
DA:233,594
DA:234,594
DA:236,87069
DA:237,97343
DA:239,96749
DA:240,96749
DA:241,96749
DA:242,96749
DA:243,170089
DA:244,83020
DA:247,87069
DA:248,96749
DA:271,96749
DA:272,96749
DA:273,96749
DA:274,96749
DA:276,170089
DA:277,170089
DA:278,170089
DA:279,170089
DA:280,170089
DA:281,280862
DA:283,193422
DA:284,184114
DA:285,9308
DA:289,184114
DA:290,184114
DA:291,184114
DA:292,1
DA:293,184113
DA:294,184113
DA:295,184113
DA:296,184113
DA:297,184113
DA:298,184113
DA:299,184113
DA:300,184113
DA:301,73340
DA:302,110773
DA:306,87440
DA:307,371
DA:308,87069
DA:309,87069
DA:310,87069
DA:311,170089
DA:313,193422
DA:314,193422
DA:315,184114
DA:316,184114
DA:317,184114
DA:318,184114
DA:319,184114
DA:320,184114
DA:321,24850
DA:322,24850
DA:323,24850
DA:325,1746
DA:326,1746
DA:327,1746
DA:328,1746
DA:329,23104
DA:332,23104
DA:333,23104
DA:334,159264
DA:336,804
DA:337,804
DA:338,804
DA:339,804
DA:340,158460
DA:343,181564
DA:344,181564
DA:346,181564
DA:347,181564
DA:348,181564
DA:349,181564
DA:350,181564
DA:351,158204
DA:353,23360
DA:357,181564
DA:358,193422
DA:360,193422
DA:361,193422
DA:362,35151
DA:363,158271
DA:365,193422
DA:366,193422
DA:367,31930
DA:368,161492
DA:369,152184
DA:371,9308
DA:372,9308
DA:373,9308
DA:374,9308
DA:376,193422
DA:388,0
DA:389,0
DA:390,0
DA:391,0
DA:392,0
DA:393,0
BRF:0
BRH:0
LF:234
LH:223
end_of_record
SF:/home/odm3n/dev/work/everscale-vm/vm/src/instr/currencyops.rs
FN:315,_RINvNvMNtNtCsipbLpstqwUV_8tycho_vm5instr11currencyopsNtB5_9AddrParts10into_tuple12opt_to_valueNtNtB9_4util14OwnedCellSliceEB9_
FN:114,_RNCNvNtNtCsipbLpstqwUV_8tycho_vm5instr11currencyops25exec_rewrite_message_addr0B7_
FN:314,_RNvMNtNtCsipbLpstqwUV_8tycho_vm5instr11currencyopsNtB2_9AddrParts10into_tuple
FN:398,_RNvNtNtCsipbLpstqwUV_8tycho_vm5instr11currencyops12store_varint
FN:193,_RNvNtNtCsipbLpstqwUV_8tycho_vm5instr11currencyops16rewrite_addr_std
FN:167,_RNvNtNtCsipbLpstqwUV_8tycho_vm5instr11currencyops16rewrite_addr_var
FN:349,_RNvNtNtCsipbLpstqwUV_8tycho_vm5instr11currencyops17skip_message_addr
FN:216,_RNvNtNtCsipbLpstqwUV_8tycho_vm5instr11currencyops18parse_message_addr
FN:384,_RNvNtNtCsipbLpstqwUV_8tycho_vm5instr11currencyops18skip_maybe_anycast
FN:275,_RNvNtNtCsipbLpstqwUV_8tycho_vm5instr11currencyops19parse_maybe_anycast
FN:26,_RNvNtNtCsipbLpstqwUV_8tycho_vm5instr11currencyops21exec_load_var_integer
FN:60,_RNvNtNtCsipbLpstqwUV_8tycho_vm5instr11currencyops22exec_load_message_addr
FN:47,_RNvNtNtCsipbLpstqwUV_8tycho_vm5instr11currencyops22exec_store_var_integer
FN:91,_RNvNtNtCsipbLpstqwUV_8tycho_vm5instr11currencyops23exec_parse_message_addr
FN:113,_RNvNtNtCsipbLpstqwUV_8tycho_vm5instr11currencyops25exec_rewrite_message_addr
FN:20,_RNvNvXs0_NtNtCsipbLpstqwUV_8tycho_vm5instr11currencyopsNtB7_11CurrencyOpsNtB9_6Module4init29exec_load_var_integer_wrapper
FN:20,_RNvNvXs0_NtNtCsipbLpstqwUV_8tycho_vm5instr11currencyopsNtB7_11CurrencyOpsNtB9_6Module4init30exec_load_message_addr_wrapper
FN:20,_RNvNvXs0_NtNtCsipbLpstqwUV_8tycho_vm5instr11currencyopsNtB7_11CurrencyOpsNtB9_6Module4init30exec_store_var_integer_wrapper
FN:20,_RNvNvXs0_NtNtCsipbLpstqwUV_8tycho_vm5instr11currencyopsNtB7_11CurrencyOpsNtB9_6Module4init31exec_parse_message_addr_wrapper
FN:20,_RNvNvXs0_NtNtCsipbLpstqwUV_8tycho_vm5instr11currencyopsNtB7_11CurrencyOpsNtB9_6Module4init33exec_rewrite_message_addr_wrapper
FN:20,_RNvNvXs0_NtNtCsipbLpstqwUV_8tycho_vm5instr11currencyopsNtB7_11CurrencyOpsNtB9_6Module4inits0_29exec_load_var_integer_wrapper
FN:20,_RNvNvXs0_NtNtCsipbLpstqwUV_8tycho_vm5instr11currencyopsNtB7_11CurrencyOpsNtB9_6Module4inits0_30exec_store_var_integer_wrapper
FN:20,_RNvNvXs0_NtNtCsipbLpstqwUV_8tycho_vm5instr11currencyopsNtB7_11CurrencyOpsNtB9_6Module4inits0_33exec_rewrite_message_addr_wrapper
FN:20,_RNvNvXs0_NtNtCsipbLpstqwUV_8tycho_vm5instr11currencyopsNtB7_11CurrencyOpsNtB9_6Module4inits1_29exec_load_var_integer_wrapper
FN:20,_RNvNvXs0_NtNtCsipbLpstqwUV_8tycho_vm5instr11currencyopsNtB7_11CurrencyOpsNtB9_6Module4inits1_30exec_store_var_integer_wrapper
FN:20,_RNvNvXs0_NtNtCsipbLpstqwUV_8tycho_vm5instr11currencyopsNtB7_11CurrencyOpsNtB9_6Module4inits1_33exec_rewrite_message_addr_wrapper
FN:20,_RNvNvXs0_NtNtCsipbLpstqwUV_8tycho_vm5instr11currencyopsNtB7_11CurrencyOpsNtB9_6Module4inits_29exec_load_var_integer_wrapper
FN:20,_RNvNvXs0_NtNtCsipbLpstqwUV_8tycho_vm5instr11currencyopsNtB7_11CurrencyOpsNtB9_6Module4inits_30exec_load_message_addr_wrapper
FN:20,_RNvNvXs0_NtNtCsipbLpstqwUV_8tycho_vm5instr11currencyopsNtB7_11CurrencyOpsNtB9_6Module4inits_30exec_store_var_integer_wrapper
FN:20,_RNvNvXs0_NtNtCsipbLpstqwUV_8tycho_vm5instr11currencyopsNtB7_11CurrencyOpsNtB9_6Module4inits_31exec_parse_message_addr_wrapper
FN:20,_RNvNvXs0_NtNtCsipbLpstqwUV_8tycho_vm5instr11currencyopsNtB7_11CurrencyOpsNtB9_6Module4inits_33exec_rewrite_message_addr_wrapper
FNDA:14141,_RINvNvMNtNtCsipbLpstqwUV_8tycho_vm5instr11currencyopsNtB5_9AddrParts10into_tuple12opt_to_valueNtNtB9_4util14OwnedCellSliceEB9_
FNDA:38588,_RNCNvNtNtCsipbLpstqwUV_8tycho_vm5instr11currencyops25exec_rewrite_message_addr0B7_
FNDA:28408,_RNvMNtNtCsipbLpstqwUV_8tycho_vm5instr11currencyopsNtB2_9AddrParts10into_tuple
FNDA:46856,_RNvNtNtCsipbLpstqwUV_8tycho_vm5instr11currencyops12store_varint
FNDA:8551,_RNvNtNtCsipbLpstqwUV_8tycho_vm5instr11currencyops16rewrite_addr_std
FNDA:8856,_RNvNtNtCsipbLpstqwUV_8tycho_vm5instr11currencyops16rewrite_addr_var
FNDA:31624,_RNvNtNtCsipbLpstqwUV_8tycho_vm5instr11currencyops17skip_message_addr
FNDA:102899,_RNvNtNtCsipbLpstqwUV_8tycho_vm5instr11currencyops18parse_message_addr
FNDA:10315,_RNvNtNtCsipbLpstqwUV_8tycho_vm5instr11currencyops18skip_maybe_anycast
FNDA:51052,_RNvNtNtCsipbLpstqwUV_8tycho_vm5instr11currencyops19parse_maybe_anycast
FNDA:37628,_RNvNtNtCsipbLpstqwUV_8tycho_vm5instr11currencyops21exec_load_var_integer
FNDA:33664,_RNvNtNtCsipbLpstqwUV_8tycho_vm5instr11currencyops22exec_load_message_addr
FNDA:60439,_RNvNtNtCsipbLpstqwUV_8tycho_vm5instr11currencyops22exec_store_var_integer
FNDA:50178,_RNvNtNtCsipbLpstqwUV_8tycho_vm5instr11currencyops23exec_parse_message_addr
FNDA:59582,_RNvNtNtCsipbLpstqwUV_8tycho_vm5instr11currencyops25exec_rewrite_message_addr
FNDA:27698,_RNvNvXs0_NtNtCsipbLpstqwUV_8tycho_vm5instr11currencyopsNtB7_11CurrencyOpsNtB9_6Module4init29exec_load_var_integer_wrapper
FNDA:9343,_RNvNvXs0_NtNtCsipbLpstqwUV_8tycho_vm5instr11currencyopsNtB7_11CurrencyOpsNtB9_6Module4init30exec_load_message_addr_wrapper
FNDA:3033,_RNvNvXs0_NtNtCsipbLpstqwUV_8tycho_vm5instr11currencyopsNtB7_11CurrencyOpsNtB9_6Module4init30exec_store_var_integer_wrapper
FNDA:8099,_RNvNvXs0_NtNtCsipbLpstqwUV_8tycho_vm5instr11currencyopsNtB7_11CurrencyOpsNtB9_6Module4init31exec_parse_message_addr_wrapper
FNDA:4883,_RNvNvXs0_NtNtCsipbLpstqwUV_8tycho_vm5instr11currencyopsNtB7_11CurrencyOpsNtB9_6Module4init33exec_rewrite_message_addr_wrapper
FNDA:749,_RNvNvXs0_NtNtCsipbLpstqwUV_8tycho_vm5instr11currencyopsNtB7_11CurrencyOpsNtB9_6Module4inits0_29exec_load_var_integer_wrapper
FNDA:49451,_RNvNvXs0_NtNtCsipbLpstqwUV_8tycho_vm5instr11currencyopsNtB7_11CurrencyOpsNtB9_6Module4inits0_30exec_store_var_integer_wrapper
FNDA:714,_RNvNvXs0_NtNtCsipbLpstqwUV_8tycho_vm5instr11currencyopsNtB7_11CurrencyOpsNtB9_6Module4inits0_33exec_rewrite_message_addr_wrapper
FNDA:1365,_RNvNvXs0_NtNtCsipbLpstqwUV_8tycho_vm5instr11currencyopsNtB7_11CurrencyOpsNtB9_6Module4inits1_29exec_load_var_integer_wrapper
FNDA:5803,_RNvNvXs0_NtNtCsipbLpstqwUV_8tycho_vm5instr11currencyopsNtB7_11CurrencyOpsNtB9_6Module4inits1_30exec_store_var_integer_wrapper
FNDA:40305,_RNvNvXs0_NtNtCsipbLpstqwUV_8tycho_vm5instr11currencyopsNtB7_11CurrencyOpsNtB9_6Module4inits1_33exec_rewrite_message_addr_wrapper
FNDA:7816,_RNvNvXs0_NtNtCsipbLpstqwUV_8tycho_vm5instr11currencyopsNtB7_11CurrencyOpsNtB9_6Module4inits_29exec_load_var_integer_wrapper
FNDA:24321,_RNvNvXs0_NtNtCsipbLpstqwUV_8tycho_vm5instr11currencyopsNtB7_11CurrencyOpsNtB9_6Module4inits_30exec_load_message_addr_wrapper
FNDA:2152,_RNvNvXs0_NtNtCsipbLpstqwUV_8tycho_vm5instr11currencyopsNtB7_11CurrencyOpsNtB9_6Module4inits_30exec_store_var_integer_wrapper
FNDA:42079,_RNvNvXs0_NtNtCsipbLpstqwUV_8tycho_vm5instr11currencyopsNtB7_11CurrencyOpsNtB9_6Module4inits_31exec_parse_message_addr_wrapper
FNDA:13680,_RNvNvXs0_NtNtCsipbLpstqwUV_8tycho_vm5instr11currencyopsNtB7_11CurrencyOpsNtB9_6Module4inits_33exec_rewrite_message_addr_wrapper
FNF:16
FNH:16
DA:20,241491
DA:26,37628
DA:27,37628
DA:28,37628
DA:31,21695
DA:32,27891
DA:33,27891
DA:34,21695
DA:35,21695
DA:36,21695
DA:38,21695
DA:39,21695
DA:40,21695
DA:41,37628
DA:47,60439
DA:48,60439
DA:49,60439
DA:50,58209
DA:52,46856
DA:54,46151
DA:55,46151
DA:56,60439
DA:60,33664
DA:61,33664
DA:62,33664
DA:64,31624
DA:65,31624
DA:66,31624
DA:68,4153
DA:69,4153
DA:70,4153
DA:71,4153
DA:72,4153
DA:74,4153
DA:75,4153
DA:76,4153
DA:77,3530
DA:78,623
DA:80,20554
DA:81,20554
DA:82,20554
DA:84,6917
DA:86,24707
DA:87,33664
DA:91,50178
DA:92,50178
DA:93,50178
DA:95,46904
DA:96,46904
DA:97,28408
DA:98,28408
DA:99,28408
DA:100,22166
DA:101,6242
DA:103,16860
DA:104,1636
DA:106,45268
DA:107,50178
DA:113,59582
DA:114,59582
DA:115,38588
DA:116,38000
DA:117,38000
DA:119,588
DA:121,38588
DA:123,59582
DA:124,59582
DA:126,55995
DA:127,55995
DA:128,30771
DA:129,25224
DA:132,30771
DA:134,17407
DA:135,17407
DA:136,17407
DA:137,17407
DA:139,0
DA:140,0
DA:141,0
DA:142,0
DA:143,13364
DA:146,17407
DA:147,8856
DA:148,8856
DA:149,0
DA:152,8551
DA:153,8551
DA:154,0
DA:158,17407
DA:159,17407
DA:160,17407
DA:161,13335
DA:162,4072
DA:163,17407
DA:164,59582
DA:167,8856
DA:168,8856
DA:169,8856
DA:170,8856
DA:171,8856
DA:172,8856
DA:173,8856
DA:176,0
DA:177,0
DA:178,0
DA:179,0
DA:180,0
DA:181,0
DA:182,0
DA:184,0
DA:185,0
DA:186,0
DA:187,0
DA:189,0
DA:190,0
DA:191,8856
DA:193,8551
DA:194,8551
DA:196,8551
DA:197,0
DA:198,0
DA:199,0
DA:200,0
DA:201,0
DA:203,0
DA:204,0
DA:205,0
DA:206,0
DA:207,0
DA:208,0
DA:209,0
DA:210,0
DA:211,8551
DA:213,8551
DA:214,8551
DA:216,102899
DA:217,102899
DA:218,102899
DA:219,102899
DA:220,102899
DA:221,102899
DA:222,102899
DA:224,10897
DA:228,28221
DA:230,21230
DA:232,16734
DA:233,16734
DA:234,16734
DA:239,51052
DA:241,33757
DA:243,33248
DA:245,31548
DA:246,31548
DA:247,31548
DA:248,31548
DA:249,31548
DA:253,6840
DA:254,6840
DA:255,0
DA:257,0
DA:259,0
DA:261,0
DA:263,0
DA:265,0
DA:266,0
DA:267,0
DA:268,0
DA:269,0
DA:271,0
DA:273,102899
DA:275,51052
DA:276,51052
DA:277,51052
DA:278,51052
DA:279,51052
DA:280,51052
DA:281,51052
DA:282,13665
DA:283,13665
DA:284,0
DA:286,0
DA:288,0
DA:290,0
DA:292,33757
DA:294,51052
DA:314,28408
DA:315,14141
DA:316,14141
DA:317,14141
DA:318,0
DA:320,14141
DA:322,28408
DA:323,6268
DA:324,7999
DA:326,14141
DA:327,14141
DA:328,14141
DA:329,14141
DA:330,14141
DA:331,14141
DA:332,14141
DA:333,14141
DA:334,14141
DA:336,0
DA:337,0
DA:338,0
DA:339,0
DA:340,0
DA:341,0
DA:342,0
DA:343,0
DA:344,0
DA:346,28408
DA:349,31624
DA:350,31624
DA:352,3877
DA:356,2832
DA:358,2236
DA:363,10315
DA:365,242
DA:366,0
DA:370,5425
DA:371,5425
DA:372,0
DA:373,0
DA:374,0
DA:376,0
DA:378,0
DA:380,0
DA:382,31624
DA:384,10315
DA:385,10315
DA:386,10315
DA:387,7112
DA:388,7112
DA:389,0
DA:391,0
DA:393,0
DA:394,242
DA:395,242
DA:396,10315
DA:398,46856
DA:399,46856
DA:400,46856
DA:401,46856
DA:402,46856
DA:403,46856
DA:404,46856
DA:405,46856
DA:406,46856
DA:408,194
DA:409,194
DA:411,46662
DA:412,46403
DA:413,46151
DA:414,46856
BRF:0
BRH:0
LF:257
LH:190
end_of_record
SF:/home/odm3n/dev/work/everscale-vm/vm/src/instr/debugops.rs
FN:19,_RNvNtNtCsipbLpstqwUV_8tycho_vm5instr8debugops15exec_dump_stack
FN:67,_RNvNtNtCsipbLpstqwUV_8tycho_vm5instr8debugops15exec_dump_value
FN:42,_RNvNtNtCsipbLpstqwUV_8tycho_vm5instr8debugops16exec_dummy_debug
FN:48,_RNvNtNtCsipbLpstqwUV_8tycho_vm5instr8debugops16exec_dump_string
FN:89,_RNvNtNtCsipbLpstqwUV_8tycho_vm5instr8debugops20exec_dummy_debug_str
FN:16,_RNvNvXs_NtNtCsipbLpstqwUV_8tycho_vm5instr8debugopsNtB6_8DebugOpsNtB8_6Module4init23exec_dump_stack_wrapper
FN:16,_RNvNvXs_NtNtCsipbLpstqwUV_8tycho_vm5instr8debugopsNtB6_8DebugOpsNtB8_6Module4init23exec_dump_value_wrapper
FN:16,_RNvNvXs_NtNtCsipbLpstqwUV_8tycho_vm5instr8debugopsNtB6_8DebugOpsNtB8_6Module4init24exec_dummy_debug_wrapper
FN:16,_RNvNvXs_NtNtCsipbLpstqwUV_8tycho_vm5instr8debugopsNtB6_8DebugOpsNtB8_6Module4init24exec_dump_string_wrapper
FN:16,_RNvNvXs_NtNtCsipbLpstqwUV_8tycho_vm5instr8debugopsNtB6_8DebugOpsNtB8_6Module4inits0_24exec_dummy_debug_wrapper
FN:16,_RNvNvXs_NtNtCsipbLpstqwUV_8tycho_vm5instr8debugopsNtB6_8DebugOpsNtB8_6Module4inits_24exec_dummy_debug_wrapper
FNDA:71440,_RNvNtNtCsipbLpstqwUV_8tycho_vm5instr8debugops15exec_dump_stack
FNDA:66758,_RNvNtNtCsipbLpstqwUV_8tycho_vm5instr8debugops15exec_dump_value
FNDA:191988,_RNvNtNtCsipbLpstqwUV_8tycho_vm5instr8debugops16exec_dummy_debug
FNDA:213,_RNvNtNtCsipbLpstqwUV_8tycho_vm5instr8debugops16exec_dump_string
FNDA:222022,_RNvNtNtCsipbLpstqwUV_8tycho_vm5instr8debugops20exec_dummy_debug_str
FNDA:71440,_RNvNvXs_NtNtCsipbLpstqwUV_8tycho_vm5instr8debugopsNtB6_8DebugOpsNtB8_6Module4init23exec_dump_stack_wrapper
FNDA:66758,_RNvNvXs_NtNtCsipbLpstqwUV_8tycho_vm5instr8debugopsNtB6_8DebugOpsNtB8_6Module4init23exec_dump_value_wrapper
FNDA:20289,_RNvNvXs_NtNtCsipbLpstqwUV_8tycho_vm5instr8debugopsNtB6_8DebugOpsNtB8_6Module4init24exec_dummy_debug_wrapper
FNDA:213,_RNvNvXs_NtNtCsipbLpstqwUV_8tycho_vm5instr8debugopsNtB6_8DebugOpsNtB8_6Module4init24exec_dump_string_wrapper
FNDA:171656,_RNvNvXs_NtNtCsipbLpstqwUV_8tycho_vm5instr8debugopsNtB6_8DebugOpsNtB8_6Module4inits0_24exec_dummy_debug_wrapper
FNDA:43,_RNvNvXs_NtNtCsipbLpstqwUV_8tycho_vm5instr8debugopsNtB6_8DebugOpsNtB8_6Module4inits_24exec_dummy_debug_wrapper
FNF:6
FNH:6
DA:16,330399
DA:19,71440
DA:20,71440
DA:21,71440
DA:24,0
DA:25,0
DA:26,0
DA:27,0
DA:28,0
DA:29,0
DA:31,0
DA:32,0
DA:33,0
DA:35,0
DA:36,0
DA:37,71440
DA:42,191988
DA:43,191988
DA:44,191988
DA:45,191988
DA:48,213
DA:49,213
DA:50,213
DA:53,0
DA:54,0
DA:55,0
DA:56,0
DA:57,0
DA:58,0
DA:59,0
DA:60,0
DA:61,0
DA:62,0
DA:63,0
DA:64,213
DA:67,66758
DA:68,66758
DA:69,66758
DA:72,0
DA:73,0
DA:74,0
DA:75,0
DA:76,0
DA:77,0
DA:78,0
DA:79,0
DA:80,0
DA:81,0
DA:82,0
DA:83,0
DA:85,0
DA:86,66758
DA:89,222022
DA:90,222022
DA:91,222022
DA:92,222022
DA:93,222022
DA:94,222022
DA:95,220131
DA:96,220131
DA:98,220131
DA:99,222022
BRF:0
BRH:0
LF:62
LH:27
end_of_record
SF:/home/odm3n/dev/work/everscale-vm/vm/src/instr/dictops.rs
FN:137,_RNCNvNtNtCsipbLpstqwUV_8tycho_vm5instr7dictops13exec_dict_get0B7_
FN:285,_RNCNvNtNtCsipbLpstqwUV_8tycho_vm5instr7dictops16exec_dict_setget0B7_
FN:537,_RNCNvNtNtCsipbLpstqwUV_8tycho_vm5instr7dictops17exec_dict_get_min0B7_
FN:361,_RNCNvNtNtCsipbLpstqwUV_8tycho_vm5instr7dictops19exec_dict_deleteget0B7_
FN:432,_RNCNvNtNtCsipbLpstqwUV_8tycho_vm5instr7dictops23exec_dict_setget_optref0B7_
FN:436,_RNCNvNtNtCsipbLpstqwUV_8tycho_vm5instr7dictops23exec_dict_setget_optrefs_0B7_
FN:706,_RNvMNtNtCsipbLpstqwUV_8tycho_vm5instr7dictopsNtB2_10DictOpArgs11is_unsigned
FN:714,_RNvMNtNtCsipbLpstqwUV_8tycho_vm5instr7dictopsNtB2_10DictOpArgs6is_int
FN:722,_RNvMNtNtCsipbLpstqwUV_8tycho_vm5instr7dictopsNtB2_10DictOpArgs6is_max
FN:718,_RNvMNtNtCsipbLpstqwUV_8tycho_vm5instr7dictopsNtB2_10DictOpArgs6is_ref
FN:726,_RNvMNtNtCsipbLpstqwUV_8tycho_vm5instr7dictopsNtB2_10DictOpArgs6is_rem
FN:710,_RNvMNtNtCsipbLpstqwUV_8tycho_vm5instr7dictopsNtB2_10DictOpArgs9is_signed
FN:772,_RNvMs0_NtNtCsipbLpstqwUV_8tycho_vm5instr7dictopsNtB5_15ShortDictOpArgs11is_unsigned
FN:780,_RNvMs0_NtNtCsipbLpstqwUV_8tycho_vm5instr7dictopsNtB5_15ShortDictOpArgs6is_int
FN:776,_RNvMs0_NtNtCsipbLpstqwUV_8tycho_vm5instr7dictopsNtB5_15ShortDictOpArgs9is_signed
FN:822,_RNvMs2_NtNtCsipbLpstqwUV_8tycho_vm5instr7dictopsNtB5_15DictGetNearArgs11is_unsigned
FN:830,_RNvMs2_NtNtCsipbLpstqwUV_8tycho_vm5instr7dictopsNtB5_15DictGetNearArgs5is_eq
FN:826,_RNvMs2_NtNtCsipbLpstqwUV_8tycho_vm5instr7dictopsNtB5_15DictGetNearArgs6is_int
FN:814,_RNvMs2_NtNtCsipbLpstqwUV_8tycho_vm5instr7dictopsNtB5_15DictGetNearArgs7is_prev
FN:818,_RNvMs2_NtNtCsipbLpstqwUV_8tycho_vm5instr7dictopsNtB5_15DictGetNearArgs9is_signed
FN:855,_RNvMs4_NtNtCsipbLpstqwUV_8tycho_vm5instr7dictopsNtB5_12DictExecArgs11is_unsigned
FN:867,_RNvMs4_NtNtCsipbLpstqwUV_8tycho_vm5instr7dictopsNtB5_12DictExecArgs4is_z
FN:863,_RNvMs4_NtNtCsipbLpstqwUV_8tycho_vm5instr7dictopsNtB5_12DictExecArgs7is_exec
FN:859,_RNvMs4_NtNtCsipbLpstqwUV_8tycho_vm5instr7dictopsNtB5_12DictExecArgs9is_signed
FN:26,_RNvNtNtCsipbLpstqwUV_8tycho_vm5instr7dictops11exec_stdict
FN:936,_RNvNtNtCsipbLpstqwUV_8tycho_vm5instr7dictops12to_value_ref
FN:108,_RNvNtNtCsipbLpstqwUV_8tycho_vm5instr7dictops13exec_dict_get
FN:180,_RNvNtNtCsipbLpstqwUV_8tycho_vm5instr7dictops13exec_dict_set
FN:76,_RNvNtNtCsipbLpstqwUV_8tycho_vm5instr7dictops14exec_load_dict
FN:39,_RNvNtNtCsipbLpstqwUV_8tycho_vm5instr7dictops14exec_skip_dict
FN:301,_RNvNtNtCsipbLpstqwUV_8tycho_vm5instr7dictops16exec_dict_delete
FN:252,_RNvNtNtCsipbLpstqwUV_8tycho_vm5instr7dictops16exec_dict_setget
FN:514,_RNvNtNtCsipbLpstqwUV_8tycho_vm5instr7dictops17exec_dict_get_min
FN:927,_RNvNtNtCsipbLpstqwUV_8tycho_vm5instr7dictops17extract_value_ref
FN:576,_RNvNtNtCsipbLpstqwUV_8tycho_vm5instr7dictops18exec_dict_get_exec
FN:444,_RNvNtNtCsipbLpstqwUV_8tycho_vm5instr7dictops18exec_dict_get_near
FN:334,_RNvNtNtCsipbLpstqwUV_8tycho_vm5instr7dictops19exec_dict_deleteget
FN:377,_RNvNtNtCsipbLpstqwUV_8tycho_vm5instr7dictops20exec_dict_get_optref
FN:56,_RNvNtNtCsipbLpstqwUV_8tycho_vm5instr7dictops20exec_load_dict_slice
FN:617,_RNvNtNtCsipbLpstqwUV_8tycho_vm5instr7dictops20exec_push_const_dict
FN:408,_RNvNtNtCsipbLpstqwUV_8tycho_vm5instr7dictops23exec_dict_setget_optref
FN:23,_RNvNvXs7_NtNtCsipbLpstqwUV_8tycho_vm5instr7dictopsNtB7_7DictOpsNtB9_6Module4init19exec_stdict_wrapper
FN:23,_RNvNvXs7_NtNtCsipbLpstqwUV_8tycho_vm5instr7dictopsNtB7_7DictOpsNtB9_6Module4init21exec_dict_get_wrapper
FN:23,_RNvNvXs7_NtNtCsipbLpstqwUV_8tycho_vm5instr7dictopsNtB7_7DictOpsNtB9_6Module4init21exec_dict_set_wrapper
FN:23,_RNvNvXs7_NtNtCsipbLpstqwUV_8tycho_vm5instr7dictopsNtB7_7DictOpsNtB9_6Module4init22exec_load_dict_wrapper
FN:23,_RNvNvXs7_NtNtCsipbLpstqwUV_8tycho_vm5instr7dictopsNtB7_7DictOpsNtB9_6Module4init22exec_skip_dict_wrapper
FN:23,_RNvNvXs7_NtNtCsipbLpstqwUV_8tycho_vm5instr7dictopsNtB7_7DictOpsNtB9_6Module4init24exec_dict_delete_wrapper
FN:23,_RNvNvXs7_NtNtCsipbLpstqwUV_8tycho_vm5instr7dictopsNtB7_7DictOpsNtB9_6Module4init24exec_dict_setget_wrapper
FN:23,_RNvNvXs7_NtNtCsipbLpstqwUV_8tycho_vm5instr7dictopsNtB7_7DictOpsNtB9_6Module4init25exec_dict_get_min_wrapper
FN:23,_RNvNvXs7_NtNtCsipbLpstqwUV_8tycho_vm5instr7dictopsNtB7_7DictOpsNtB9_6Module4init26exec_dict_get_exec_wrapper
FN:23,_RNvNvXs7_NtNtCsipbLpstqwUV_8tycho_vm5instr7dictopsNtB7_7DictOpsNtB9_6Module4init26exec_dict_get_near_wrapper
FN:23,_RNvNvXs7_NtNtCsipbLpstqwUV_8tycho_vm5instr7dictopsNtB7_7DictOpsNtB9_6Module4init27exec_dict_deleteget_wrapper
FN:23,_RNvNvXs7_NtNtCsipbLpstqwUV_8tycho_vm5instr7dictopsNtB7_7DictOpsNtB9_6Module4init28exec_dict_get_optref_wrapper
FN:23,_RNvNvXs7_NtNtCsipbLpstqwUV_8tycho_vm5instr7dictopsNtB7_7DictOpsNtB9_6Module4init28exec_load_dict_slice_wrapper
FN:23,_RNvNvXs7_NtNtCsipbLpstqwUV_8tycho_vm5instr7dictopsNtB7_7DictOpsNtB9_6Module4init31exec_dict_setget_optref_wrapper
FN:23,_RNvNvXs7_NtNtCsipbLpstqwUV_8tycho_vm5instr7dictopsNtB7_7DictOpsNtB9_6Module4inits0_21exec_dict_set_wrapper
FN:23,_RNvNvXs7_NtNtCsipbLpstqwUV_8tycho_vm5instr7dictopsNtB7_7DictOpsNtB9_6Module4inits0_22exec_load_dict_wrapper
FN:23,_RNvNvXs7_NtNtCsipbLpstqwUV_8tycho_vm5instr7dictopsNtB7_7DictOpsNtB9_6Module4inits0_24exec_dict_setget_wrapper
FN:23,_RNvNvXs7_NtNtCsipbLpstqwUV_8tycho_vm5instr7dictopsNtB7_7DictOpsNtB9_6Module4inits0_25exec_dict_get_min_wrapper
FN:23,_RNvNvXs7_NtNtCsipbLpstqwUV_8tycho_vm5instr7dictopsNtB7_7DictOpsNtB9_6Module4inits1_21exec_dict_set_wrapper
FN:23,_RNvNvXs7_NtNtCsipbLpstqwUV_8tycho_vm5instr7dictopsNtB7_7DictOpsNtB9_6Module4inits1_22exec_load_dict_wrapper
FN:23,_RNvNvXs7_NtNtCsipbLpstqwUV_8tycho_vm5instr7dictopsNtB7_7DictOpsNtB9_6Module4inits1_24exec_dict_setget_wrapper
FN:23,_RNvNvXs7_NtNtCsipbLpstqwUV_8tycho_vm5instr7dictopsNtB7_7DictOpsNtB9_6Module4inits1_25exec_dict_get_min_wrapper
FN:23,_RNvNvXs7_NtNtCsipbLpstqwUV_8tycho_vm5instr7dictopsNtB7_7DictOpsNtB9_6Module4inits2_21exec_dict_set_wrapper
FN:23,_RNvNvXs7_NtNtCsipbLpstqwUV_8tycho_vm5instr7dictopsNtB7_7DictOpsNtB9_6Module4inits2_24exec_dict_setget_wrapper
FN:23,_RNvNvXs7_NtNtCsipbLpstqwUV_8tycho_vm5instr7dictopsNtB7_7DictOpsNtB9_6Module4inits3_21exec_dict_set_wrapper
FN:23,_RNvNvXs7_NtNtCsipbLpstqwUV_8tycho_vm5instr7dictopsNtB7_7DictOpsNtB9_6Module4inits3_24exec_dict_setget_wrapper
FN:23,_RNvNvXs7_NtNtCsipbLpstqwUV_8tycho_vm5instr7dictopsNtB7_7DictOpsNtB9_6Module4inits_21exec_dict_set_wrapper
FN:23,_RNvNvXs7_NtNtCsipbLpstqwUV_8tycho_vm5instr7dictopsNtB7_7DictOpsNtB9_6Module4inits_22exec_load_dict_wrapper
FN:23,_RNvNvXs7_NtNtCsipbLpstqwUV_8tycho_vm5instr7dictopsNtB7_7DictOpsNtB9_6Module4inits_24exec_dict_setget_wrapper
FN:23,_RNvNvXs7_NtNtCsipbLpstqwUV_8tycho_vm5instr7dictopsNtB7_7DictOpsNtB9_6Module4inits_25exec_dict_get_min_wrapper
FN:23,_RNvNvXs7_NtNtCsipbLpstqwUV_8tycho_vm5instr7dictopsNtB7_7DictOpsNtB9_6Module4inits_26exec_dict_get_exec_wrapper
FN:23,_RNvNvXs7_NtNtCsipbLpstqwUV_8tycho_vm5instr7dictopsNtB7_7DictOpsNtB9_6Module4inits_28exec_load_dict_slice_wrapper
FN:795,_RNvXs1_NtNtCsipbLpstqwUV_8tycho_vm5instr7dictopsNtB5_22DisplayShortDictOpArgsNtNtCscHntIWw2aYb_4core3fmt7Display3fmt
FN:836,_RNvXs3_NtNtCsipbLpstqwUV_8tycho_vm5instr7dictopsNtB5_15DictGetNearArgsNtNtCscHntIWw2aYb_4core3fmt7Display3fmt
FN:873,_RNvXs5_NtNtCsipbLpstqwUV_8tycho_vm5instr7dictopsNtB5_12DictExecArgsNtNtCscHntIWw2aYb_4core3fmt7Display3fmt
FN:730,_RNvMNtNtCsipbLpstqwUV_8tycho_vm5instr7dictopsNtB2_10DictOpArgs7display
FN:734,_RNvMNtNtCsipbLpstqwUV_8tycho_vm5instr7dictopsNtB2_10DictOpArgs9display_b
FN:784,_RNvMs0_NtNtCsipbLpstqwUV_8tycho_vm5instr7dictopsNtB5_15ShortDictOpArgs7display
FN:745,_RNvXININtNtCsipbLpstqwUV_8tycho_vm5instr7dictopss_0KpEINtB5_17DisplayDictOpArgsKpENtNtCscHntIWw2aYb_4core3fmt7Display3fmtB9_
FNDA:1486,_RNCNvNtNtCsipbLpstqwUV_8tycho_vm5instr7dictops13exec_dict_get0B7_
FNDA:7247,_RNCNvNtNtCsipbLpstqwUV_8tycho_vm5instr7dictops16exec_dict_setget0B7_
FNDA:6030,_RNCNvNtNtCsipbLpstqwUV_8tycho_vm5instr7dictops17exec_dict_get_min0B7_
FNDA:11265,_RNCNvNtNtCsipbLpstqwUV_8tycho_vm5instr7dictops19exec_dict_deleteget0B7_
FNDA:7893,_RNCNvNtNtCsipbLpstqwUV_8tycho_vm5instr7dictops23exec_dict_setget_optref0B7_
FNDA:4905,_RNCNvNtNtCsipbLpstqwUV_8tycho_vm5instr7dictops23exec_dict_setget_optrefs_0B7_
FNDA:439559,_RNvMNtNtCsipbLpstqwUV_8tycho_vm5instr7dictopsNtB2_10DictOpArgs11is_unsigned
FNDA:561929,_RNvMNtNtCsipbLpstqwUV_8tycho_vm5instr7dictopsNtB2_10DictOpArgs6is_int
FNDA:86020,_RNvMNtNtCsipbLpstqwUV_8tycho_vm5instr7dictopsNtB2_10DictOpArgs6is_max
FNDA:292613,_RNvMNtNtCsipbLpstqwUV_8tycho_vm5instr7dictopsNtB2_10DictOpArgs6is_ref
FNDA:86020,_RNvMNtNtCsipbLpstqwUV_8tycho_vm5instr7dictopsNtB2_10DictOpArgs6is_rem
FNDA:439559,_RNvMNtNtCsipbLpstqwUV_8tycho_vm5instr7dictopsNtB2_10DictOpArgs9is_signed
FNDA:102904,_RNvMs0_NtNtCsipbLpstqwUV_8tycho_vm5instr7dictopsNtB5_15ShortDictOpArgs11is_unsigned
FNDA:147141,_RNvMs0_NtNtCsipbLpstqwUV_8tycho_vm5instr7dictopsNtB5_15ShortDictOpArgs6is_int
FNDA:102904,_RNvMs0_NtNtCsipbLpstqwUV_8tycho_vm5instr7dictopsNtB5_15ShortDictOpArgs9is_signed
FNDA:135999,_RNvMs2_NtNtCsipbLpstqwUV_8tycho_vm5instr7dictopsNtB5_15DictGetNearArgs11is_unsigned
FNDA:67666,_RNvMs2_NtNtCsipbLpstqwUV_8tycho_vm5instr7dictopsNtB5_15DictGetNearArgs5is_eq
FNDA:194675,_RNvMs2_NtNtCsipbLpstqwUV_8tycho_vm5instr7dictopsNtB5_15DictGetNearArgs6is_int
FNDA:111906,_RNvMs2_NtNtCsipbLpstqwUV_8tycho_vm5instr7dictopsNtB5_15DictGetNearArgs7is_prev
FNDA:135999,_RNvMs2_NtNtCsipbLpstqwUV_8tycho_vm5instr7dictopsNtB5_15DictGetNearArgs9is_signed
FNDA:32826,_RNvMs4_NtNtCsipbLpstqwUV_8tycho_vm5instr7dictopsNtB5_12DictExecArgs11is_unsigned
FNDA:29024,_RNvMs4_NtNtCsipbLpstqwUV_8tycho_vm5instr7dictopsNtB5_12DictExecArgs4is_z
FNDA:3520,_RNvMs4_NtNtCsipbLpstqwUV_8tycho_vm5instr7dictopsNtB5_12DictExecArgs7is_exec
FNDA:32826,_RNvMs4_NtNtCsipbLpstqwUV_8tycho_vm5instr7dictopsNtB5_12DictExecArgs9is_signed
FNDA:16499,_RNvNtNtCsipbLpstqwUV_8tycho_vm5instr7dictops11exec_stdict
FNDA:23740,_RNvNtNtCsipbLpstqwUV_8tycho_vm5instr7dictops12to_value_ref
FNDA:149488,_RNvNtNtCsipbLpstqwUV_8tycho_vm5instr7dictops13exec_dict_get
FNDA:120400,_RNvNtNtCsipbLpstqwUV_8tycho_vm5instr7dictops13exec_dict_set
FNDA:38874,_RNvNtNtCsipbLpstqwUV_8tycho_vm5instr7dictops14exec_load_dict
FNDA:9985,_RNvNtNtCsipbLpstqwUV_8tycho_vm5instr7dictops14exec_skip_dict
FNDA:71306,_RNvNtNtCsipbLpstqwUV_8tycho_vm5instr7dictops16exec_dict_delete
FNDA:82343,_RNvNtNtCsipbLpstqwUV_8tycho_vm5instr7dictops16exec_dict_setget
FNDA:87193,_RNvNtNtCsipbLpstqwUV_8tycho_vm5instr7dictops17exec_dict_get_min
FNDA:33024,_RNvNtNtCsipbLpstqwUV_8tycho_vm5instr7dictops17extract_value_ref
FNDA:38563,_RNvNtNtCsipbLpstqwUV_8tycho_vm5instr7dictops18exec_dict_get_exec
FNDA:100685,_RNvNtNtCsipbLpstqwUV_8tycho_vm5instr7dictops18exec_dict_get_near
FNDA:140473,_RNvNtNtCsipbLpstqwUV_8tycho_vm5instr7dictops19exec_dict_deleteget
FNDA:36583,_RNvNtNtCsipbLpstqwUV_8tycho_vm5instr7dictops20exec_dict_get_optref
FNDA:37400,_RNvNtNtCsipbLpstqwUV_8tycho_vm5instr7dictops20exec_load_dict_slice
FNDA:38912,_RNvNtNtCsipbLpstqwUV_8tycho_vm5instr7dictops20exec_push_const_dict
FNDA:44805,_RNvNtNtCsipbLpstqwUV_8tycho_vm5instr7dictops23exec_dict_setget_optref
FNDA:16499,_RNvNvXs7_NtNtCsipbLpstqwUV_8tycho_vm5instr7dictopsNtB7_7DictOpsNtB9_6Module4init19exec_stdict_wrapper
FNDA:149488,_RNvNvXs7_NtNtCsipbLpstqwUV_8tycho_vm5instr7dictopsNtB7_7DictOpsNtB9_6Module4init21exec_dict_get_wrapper
FNDA:7971,_RNvNvXs7_NtNtCsipbLpstqwUV_8tycho_vm5instr7dictopsNtB7_7DictOpsNtB9_6Module4init21exec_dict_set_wrapper
FNDA:2724,_RNvNvXs7_NtNtCsipbLpstqwUV_8tycho_vm5instr7dictopsNtB7_7DictOpsNtB9_6Module4init22exec_load_dict_wrapper
FNDA:9985,_RNvNvXs7_NtNtCsipbLpstqwUV_8tycho_vm5instr7dictopsNtB7_7DictOpsNtB9_6Module4init22exec_skip_dict_wrapper
FNDA:71306,_RNvNvXs7_NtNtCsipbLpstqwUV_8tycho_vm5instr7dictopsNtB7_7DictOpsNtB9_6Module4init24exec_dict_delete_wrapper
FNDA:17099,_RNvNvXs7_NtNtCsipbLpstqwUV_8tycho_vm5instr7dictopsNtB7_7DictOpsNtB9_6Module4init24exec_dict_setget_wrapper
FNDA:28790,_RNvNvXs7_NtNtCsipbLpstqwUV_8tycho_vm5instr7dictopsNtB7_7DictOpsNtB9_6Module4init25exec_dict_get_min_wrapper
FNDA:24934,_RNvNvXs7_NtNtCsipbLpstqwUV_8tycho_vm5instr7dictopsNtB7_7DictOpsNtB9_6Module4init26exec_dict_get_exec_wrapper
FNDA:100685,_RNvNvXs7_NtNtCsipbLpstqwUV_8tycho_vm5instr7dictopsNtB7_7DictOpsNtB9_6Module4init26exec_dict_get_near_wrapper
FNDA:140473,_RNvNvXs7_NtNtCsipbLpstqwUV_8tycho_vm5instr7dictopsNtB7_7DictOpsNtB9_6Module4init27exec_dict_deleteget_wrapper
FNDA:36583,_RNvNvXs7_NtNtCsipbLpstqwUV_8tycho_vm5instr7dictopsNtB7_7DictOpsNtB9_6Module4init28exec_dict_get_optref_wrapper
FNDA:5697,_RNvNvXs7_NtNtCsipbLpstqwUV_8tycho_vm5instr7dictopsNtB7_7DictOpsNtB9_6Module4init28exec_load_dict_slice_wrapper
FNDA:44805,_RNvNvXs7_NtNtCsipbLpstqwUV_8tycho_vm5instr7dictopsNtB7_7DictOpsNtB9_6Module4init31exec_dict_setget_optref_wrapper
FNDA:35783,_RNvNvXs7_NtNtCsipbLpstqwUV_8tycho_vm5instr7dictopsNtB7_7DictOpsNtB9_6Module4inits0_21exec_dict_set_wrapper
FNDA:11200,_RNvNvXs7_NtNtCsipbLpstqwUV_8tycho_vm5instr7dictopsNtB7_7DictOpsNtB9_6Module4inits0_22exec_load_dict_wrapper
FNDA:31343,_RNvNvXs7_NtNtCsipbLpstqwUV_8tycho_vm5instr7dictopsNtB7_7DictOpsNtB9_6Module4inits0_24exec_dict_setget_wrapper
FNDA:27449,_RNvNvXs7_NtNtCsipbLpstqwUV_8tycho_vm5instr7dictopsNtB7_7DictOpsNtB9_6Module4inits0_25exec_dict_get_min_wrapper
FNDA:4063,_RNvNvXs7_NtNtCsipbLpstqwUV_8tycho_vm5instr7dictopsNtB7_7DictOpsNtB9_6Module4inits1_21exec_dict_set_wrapper
FNDA:11412,_RNvNvXs7_NtNtCsipbLpstqwUV_8tycho_vm5instr7dictopsNtB7_7DictOpsNtB9_6Module4inits1_22exec_load_dict_wrapper
FNDA:2743,_RNvNvXs7_NtNtCsipbLpstqwUV_8tycho_vm5instr7dictopsNtB7_7DictOpsNtB9_6Module4inits1_24exec_dict_setget_wrapper
FNDA:20900,_RNvNvXs7_NtNtCsipbLpstqwUV_8tycho_vm5instr7dictopsNtB7_7DictOpsNtB9_6Module4inits1_25exec_dict_get_min_wrapper
FNDA:3285,_RNvNvXs7_NtNtCsipbLpstqwUV_8tycho_vm5instr7dictopsNtB7_7DictOpsNtB9_6Module4inits2_21exec_dict_set_wrapper
FNDA:3670,_RNvNvXs7_NtNtCsipbLpstqwUV_8tycho_vm5instr7dictopsNtB7_7DictOpsNtB9_6Module4inits2_24exec_dict_setget_wrapper
FNDA:5541,_RNvNvXs7_NtNtCsipbLpstqwUV_8tycho_vm5instr7dictopsNtB7_7DictOpsNtB9_6Module4inits3_21exec_dict_set_wrapper
FNDA:3202,_RNvNvXs7_NtNtCsipbLpstqwUV_8tycho_vm5instr7dictopsNtB7_7DictOpsNtB9_6Module4inits3_24exec_dict_setget_wrapper
FNDA:63757,_RNvNvXs7_NtNtCsipbLpstqwUV_8tycho_vm5instr7dictopsNtB7_7DictOpsNtB9_6Module4inits_21exec_dict_set_wrapper
FNDA:13538,_RNvNvXs7_NtNtCsipbLpstqwUV_8tycho_vm5instr7dictopsNtB7_7DictOpsNtB9_6Module4inits_22exec_load_dict_wrapper
FNDA:24286,_RNvNvXs7_NtNtCsipbLpstqwUV_8tycho_vm5instr7dictopsNtB7_7DictOpsNtB9_6Module4inits_24exec_dict_setget_wrapper
FNDA:10054,_RNvNvXs7_NtNtCsipbLpstqwUV_8tycho_vm5instr7dictopsNtB7_7DictOpsNtB9_6Module4inits_25exec_dict_get_min_wrapper
FNDA:13629,_RNvNvXs7_NtNtCsipbLpstqwUV_8tycho_vm5instr7dictopsNtB7_7DictOpsNtB9_6Module4inits_26exec_dict_get_exec_wrapper
FNDA:31703,_RNvNvXs7_NtNtCsipbLpstqwUV_8tycho_vm5instr7dictopsNtB7_7DictOpsNtB9_6Module4inits_28exec_load_dict_slice_wrapper
FNDA:0,_RNvXs1_NtNtCsipbLpstqwUV_8tycho_vm5instr7dictopsNtB5_22DisplayShortDictOpArgsNtNtCscHntIWw2aYb_4core3fmt7Display3fmt
FNDA:0,_RNvXs3_NtNtCsipbLpstqwUV_8tycho_vm5instr7dictopsNtB5_15DictGetNearArgsNtNtCscHntIWw2aYb_4core3fmt7Display3fmt
FNDA:0,_RNvXs5_NtNtCsipbLpstqwUV_8tycho_vm5instr7dictopsNtB5_12DictExecArgsNtNtCscHntIWw2aYb_4core3fmt7Display3fmt
FNDA:0,_RNvMNtNtCsipbLpstqwUV_8tycho_vm5instr7dictopsNtB2_10DictOpArgs7display
FNDA:0,_RNvMNtNtCsipbLpstqwUV_8tycho_vm5instr7dictopsNtB2_10DictOpArgs9display_b
FNDA:0,_RNvMs0_NtNtCsipbLpstqwUV_8tycho_vm5instr7dictopsNtB5_15ShortDictOpArgs7display
FNDA:0,_RNvXININtNtCsipbLpstqwUV_8tycho_vm5instr7dictopss_0KpEINtB5_17DisplayDictOpArgsKpENtNtCscHntIWw2aYb_4core3fmt7Display3fmtB9_
FNF:49
FNH:42
DA:23,974597
DA:26,16499
DA:27,16499
DA:29,16499
DA:30,7684
DA:32,6537
DA:33,6537
DA:34,5924
DA:35,5924
DA:36,16499
DA:39,9985
DA:40,9985
DA:41,9985
DA:43,9194
DA:44,9194
DA:45,2359
DA:46,6432
DA:47,8500
DA:48,8500
DA:50,8500
DA:51,8500
DA:52,9985
DA:56,37400
DA:57,37400
DA:58,37400
DA:60,32125
DA:61,32125
DA:63,29138
DA:64,29138
DA:65,1819
DA:66,1819
DA:67,1819
DA:68,27319
DA:69,29138
DA:70,37400
DA:76,38874
DA:77,38874
DA:78,38874
DA:80,31717
DA:81,31717
DA:82,31323
DA:83,21553
DA:85,9813
DA:86,9813
DA:87,3417
DA:88,6396
DA:89,9813
DA:90,9813
DA:92,351
DA:95,21553
DA:96,21553
DA:97,8008
DA:98,8008
DA:99,8008
DA:100,13545
DA:101,21553
DA:102,7973
DA:103,13580
DA:104,21553
DA:105,38874
DA:108,149488
DA:109,149488
DA:110,149488
DA:111,147644
DA:115,147070
DA:116,120499
DA:118,119557
DA:119,119557
DA:120,30269
DA:121,30269
DA:122,89288
DA:123,89288
DA:124,89288
DA:125,89288
DA:126,89288
DA:128,26571
DA:129,24344
DA:132,113146
DA:133,41563
DA:134,37994
DA:136,71583
DA:137,69715
DA:140,103917
DA:141,102175
DA:142,1742
DA:143,1742
DA:144,1742
DA:147,103917
DA:148,149488
DA:180,120400
DA:181,120400
DA:182,120400
DA:183,119185
DA:187,117541
DA:188,48071
DA:189,46925
DA:190,46925
DA:191,44514
DA:193,69470
DA:194,67685
DA:197,109529
DA:199,108945
DA:200,7446
DA:201,2272
DA:202,101499
DA:203,49448
DA:205,52051
DA:206,48817
DA:209,94372
DA:210,94372
DA:212,94372
DA:214,94372
DA:215,7683
DA:217,86689
DA:219,89655
DA:220,120400
DA:252,82343
DA:253,82343
DA:254,82343
DA:255,80368
DA:259,62380
DA:260,36294
DA:261,34367
DA:262,34367
DA:263,33735
DA:265,26086
DA:266,24552
DA:269,57326
DA:271,57326
DA:273,57013
DA:274,7164
DA:275,2010
DA:276,49849
DA:277,27058
DA:279,22791
DA:280,8402
DA:283,25496
DA:284,25496
DA:285,19396
DA:287,12449
DA:288,12449
DA:289,300
DA:290,300
DA:291,300
DA:294,12149
DA:297,12449
DA:298,82343
DA:301,71306
DA:302,71306
DA:303,71306
DA:304,70826
DA:308,70040
DA:309,64249
DA:311,62942
DA:312,62942
DA:313,37143
DA:314,37143
DA:315,37143
DA:316,25799
DA:317,25799
DA:318,25799
DA:319,25799
DA:320,25799
DA:322,5791
DA:323,5201
DA:326,29826
DA:327,29826
DA:328,27068
DA:329,27068
DA:330,27068
DA:331,71306
DA:334,140473
DA:335,140473
DA:336,140473
DA:337,140197
DA:341,139971
DA:342,103560
DA:344,98932
DA:345,98932
DA:346,59136
DA:347,59136
DA:348,59136
DA:349,39796
DA:350,39796
DA:351,39796
DA:352,39796
DA:353,39796
DA:355,36411
DA:356,34576
DA:359,71388
DA:360,71388
DA:361,67877
DA:363,65445
DA:364,65445
DA:365,8833
DA:366,8833
DA:367,8833
DA:370,56612
DA:373,65445
DA:374,140473
DA:377,36583
DA:378,36583
DA:379,36583
DA:380,36286
DA:384,34267
DA:385,23837
DA:387,21987
DA:388,21987
DA:389,12863
DA:390,12863
DA:391,9124
DA:392,9124
DA:393,9124
DA:394,9124
DA:395,9124
DA:397,10430
DA:398,8233
DA:401,16880
DA:402,13268
DA:403,10078
DA:404,10078
DA:405,36583
DA:408,44805
DA:409,44805
DA:410,44805
DA:411,43178
DA:415,42834
DA:416,20667
DA:417,17975
DA:418,17975
DA:419,16693
DA:421,22167
DA:422,16114
DA:425,31770
DA:427,28997
DA:428,28997
DA:429,28997
DA:430,20334
DA:431,20334
DA:432,20334
DA:434,8663
DA:436,16358
DA:438,13186
DA:439,13186
DA:440,13186
DA:441,44805
DA:444,100685
DA:445,100685
DA:447,100685
DA:448,73458
DA:450,27227
DA:452,100685
DA:453,100309
DA:455,93990
DA:456,36581
DA:458,57409
DA:461,93990
DA:462,93990
DA:463,67154
DA:465,62541
DA:466,62541
DA:467,44625
DA:468,44625
DA:469,44625
DA:470,44625
DA:471,17916
DA:473,7382
DA:474,636
DA:475,6746
DA:477,7382
DA:479,10534
DA:482,40828
DA:483,30995
DA:484,30995
DA:487,9833
DA:488,9833
DA:490,26836
DA:491,24326
DA:493,6345
DA:494,23041
DA:496,15403
DA:497,15403
DA:500,6345
DA:501,6345
DA:502,6345
DA:506,16175
DA:507,16175
DA:508,100685
DA:514,87193
DA:515,87193
DA:517,87193
DA:518,53758
DA:520,33435
DA:522,87193
DA:523,86881
DA:525,86020
DA:526,30936
DA:528,55084
DA:531,86020
DA:532,86020
DA:533,86020
DA:534,47377
DA:535,47377
DA:536,22454
DA:537,22454
DA:538,6030
DA:539,4444
DA:540,22454
DA:541,22454
DA:542,20868
DA:544,20868
DA:545,16424
DA:546,16424
DA:548,4444
DA:549,4444
DA:551,3577
DA:552,38643
DA:554,20369
DA:555,20369
DA:558,3577
DA:559,3330
DA:560,3330
DA:563,7774
DA:564,5422
DA:566,2352
DA:567,2352
DA:570,7773
DA:571,7773
DA:572,87193
DA:576,38563
DA:577,38563
DA:578,38563
DA:579,36965
DA:580,34547
DA:583,32826
DA:584,32826
DA:585,15976
DA:586,16850
DA:587,16850
DA:588,16850
DA:589,16850
DA:590,16850
DA:592,16850
DA:593,13048
DA:596,3520
DA:597,3520
DA:598,455
DA:600,3065
DA:604,29024
DA:605,10382
DA:606,18642
DA:607,29024
DA:608,38563
DA:617,38912
DA:618,38912
DA:619,38193
DA:620,38193
DA:622,38193
DA:623,38193
DA:625,38193
DA:626,38193
DA:627,38193
DA:629,38193
DA:630,38193
DA:631,38193
DA:632,38193
DA:633,38193
DA:634,38193
DA:635,38193
DA:636,38193
DA:637,38193
DA:638,38193
DA:639,38912
DA:706,439559
DA:707,439559
DA:708,439559
DA:710,439559
DA:711,439559
DA:712,439559
DA:714,561929
DA:715,561929
DA:716,561929
DA:718,292613
DA:719,292613
DA:720,292613
DA:722,86020
DA:723,86020
DA:724,86020
DA:726,86020
DA:727,86020
DA:728,86020
DA:730,0
DA:731,0
DA:732,0
DA:734,0
DA:735,0
DA:736,0
DA:745,0
DA:746,0
DA:747,0
DA:748,0
DA:750,0
DA:753,0
DA:755,0
DA:756,0
DA:757,0
DA:758,0
DA:760,0
DA:763,0
DA:764,0
DA:772,102904
DA:773,102904
DA:774,102904
DA:776,102904
DA:777,102904
DA:778,102904
DA:780,147141
DA:781,147141
DA:782,147141
DA:784,0
DA:785,0
DA:786,0
DA:795,0
DA:796,0
DA:797,0
DA:798,0
DA:800,0
DA:803,0
DA:805,0
DA:806,0
DA:814,111906
DA:815,111906
DA:816,111906
DA:818,135999
DA:819,135999
DA:820,135999
DA:822,135999
DA:823,135999
DA:824,135999
DA:826,194675
DA:827,194675
DA:828,194675
DA:830,67666
DA:831,67666
DA:832,67666
DA:836,0
DA:837,0
DA:838,0
DA:839,0
DA:841,0
DA:844,0
DA:846,0
DA:847,0
DA:848,0
DA:849,0
DA:855,32826
DA:856,32826
DA:857,32826
DA:859,32826
DA:860,32826
DA:861,32826
DA:863,3520
DA:864,3520
DA:865,3520
DA:867,29024
DA:868,29024
DA:869,29024
DA:873,0
DA:874,0
DA:875,0
DA:876,0
DA:877,0
DA:878,0
DA:927,33024
DA:928,33024
DA:929,33024
DA:930,16196
DA:932,16828
DA:934,33024
DA:936,23740
DA:937,23740
DA:938,2374
DA:939,2374
DA:940,23740
BRF:0
BRH:0
LF:491
LH:445
end_of_record
SF:/home/odm3n/dev/work/everscale-vm/vm/src/instr/gasops.rs
FN:14,_RNvNtNtCsipbLpstqwUV_8tycho_vm5instr6gasops11exec_accept
FN:95,_RNvNtNtCsipbLpstqwUV_8tycho_vm5instr6gasops11exec_commit
FN:32,_RNvNtNtCsipbLpstqwUV_8tycho_vm5instr6gasops12exec_buy_gas
FN:101,_RNvNtNtCsipbLpstqwUV_8tycho_vm5instr6gasops12exec_set_gas
FN:73,_RNvNtNtCsipbLpstqwUV_8tycho_vm5instr6gasops16exec_gas_to_gram
FN:51,_RNvNtNtCsipbLpstqwUV_8tycho_vm5instr6gasops16exec_gram_to_gas
FN:86,_RNvNtNtCsipbLpstqwUV_8tycho_vm5instr6gasops17exec_gas_consumed
FN:19,_RNvNtNtCsipbLpstqwUV_8tycho_vm5instr6gasops18exec_set_gas_limit
FN:11,_RNvNvXs_NtNtCsipbLpstqwUV_8tycho_vm5instr6gasopsNtB6_6GasOpsNtB8_6Module4init19exec_accept_wrapper
FN:11,_RNvNvXs_NtNtCsipbLpstqwUV_8tycho_vm5instr6gasopsNtB6_6GasOpsNtB8_6Module4init19exec_commit_wrapper
FN:11,_RNvNvXs_NtNtCsipbLpstqwUV_8tycho_vm5instr6gasopsNtB6_6GasOpsNtB8_6Module4init20exec_buy_gas_wrapper
FN:11,_RNvNvXs_NtNtCsipbLpstqwUV_8tycho_vm5instr6gasopsNtB6_6GasOpsNtB8_6Module4init24exec_gas_to_gram_wrapper
FN:11,_RNvNvXs_NtNtCsipbLpstqwUV_8tycho_vm5instr6gasopsNtB6_6GasOpsNtB8_6Module4init24exec_gram_to_gas_wrapper
FN:11,_RNvNvXs_NtNtCsipbLpstqwUV_8tycho_vm5instr6gasopsNtB6_6GasOpsNtB8_6Module4init25exec_gas_consumed_wrapper
FN:11,_RNvNvXs_NtNtCsipbLpstqwUV_8tycho_vm5instr6gasopsNtB6_6GasOpsNtB8_6Module4init26exec_set_gas_limit_wrapper
FNDA:87304,_RNvNtNtCsipbLpstqwUV_8tycho_vm5instr6gasops11exec_accept
FNDA:28060,_RNvNtNtCsipbLpstqwUV_8tycho_vm5instr6gasops11exec_commit
FNDA:19939,_RNvNtNtCsipbLpstqwUV_8tycho_vm5instr6gasops12exec_buy_gas
FNDA:110911,_RNvNtNtCsipbLpstqwUV_8tycho_vm5instr6gasops12exec_set_gas
FNDA:56791,_RNvNtNtCsipbLpstqwUV_8tycho_vm5instr6gasops16exec_gas_to_gram
FNDA:75330,_RNvNtNtCsipbLpstqwUV_8tycho_vm5instr6gasops16exec_gram_to_gas
FNDA:45971,_RNvNtNtCsipbLpstqwUV_8tycho_vm5instr6gasops17exec_gas_consumed
FNDA:18999,_RNvNtNtCsipbLpstqwUV_8tycho_vm5instr6gasops18exec_set_gas_limit
FNDA:87304,_RNvNvXs_NtNtCsipbLpstqwUV_8tycho_vm5instr6gasopsNtB6_6GasOpsNtB8_6Module4init19exec_accept_wrapper
FNDA:28060,_RNvNvXs_NtNtCsipbLpstqwUV_8tycho_vm5instr6gasopsNtB6_6GasOpsNtB8_6Module4init19exec_commit_wrapper
FNDA:19939,_RNvNvXs_NtNtCsipbLpstqwUV_8tycho_vm5instr6gasopsNtB6_6GasOpsNtB8_6Module4init20exec_buy_gas_wrapper
FNDA:56791,_RNvNvXs_NtNtCsipbLpstqwUV_8tycho_vm5instr6gasopsNtB6_6GasOpsNtB8_6Module4init24exec_gas_to_gram_wrapper
FNDA:75330,_RNvNvXs_NtNtCsipbLpstqwUV_8tycho_vm5instr6gasopsNtB6_6GasOpsNtB8_6Module4init24exec_gram_to_gas_wrapper
FNDA:45971,_RNvNvXs_NtNtCsipbLpstqwUV_8tycho_vm5instr6gasopsNtB6_6GasOpsNtB8_6Module4init25exec_gas_consumed_wrapper
FNDA:18999,_RNvNvXs_NtNtCsipbLpstqwUV_8tycho_vm5instr6gasopsNtB6_6GasOpsNtB8_6Module4init26exec_set_gas_limit_wrapper
FNF:9
FNH:9
DA:11,332394
DA:14,87304
DA:15,87304
DA:16,87304
DA:19,18999
DA:20,18999
DA:21,18999
DA:22,16254
DA:23,14598
DA:25,1656
DA:28,16254
DA:29,18999
DA:32,19939
DA:33,19939
DA:34,19939
DA:35,7353
DA:36,5489
DA:37,5489
DA:38,5489
DA:39,5489
DA:40,5489
DA:41,5489
DA:42,5489
DA:44,1864
DA:47,7353
DA:48,19939
DA:51,75330
DA:52,75330
DA:53,75330
DA:54,72039
DA:55,38798
DA:56,38798
DA:57,38798
DA:58,38798
DA:59,38798
DA:60,38798
DA:61,38798
DA:62,33066
DA:64,5732
DA:67,33241
DA:69,72039
DA:70,75330
DA:73,56791
DA:74,56791
DA:75,56791
DA:76,52604
DA:77,52604
DA:78,52604
DA:79,52604
DA:80,52604
DA:81,52604
DA:82,52357
DA:83,56791
DA:86,45971
DA:87,45971
DA:89,45971
DA:90,45971
DA:91,45971
DA:92,45971
DA:95,28060
DA:96,28060
DA:97,27761
DA:98,28060
DA:101,110911
DA:102,110911
DA:103,104423
DA:104,104423
DA:105,0
DA:107,104423
DA:109,110911
BRF:0
BRH:0
LF:70
LH:69
end_of_record
SF:/home/odm3n/dev/work/everscale-vm/vm/src/instr/logicops.rs
FN:46,_RNvNtNtCsipbLpstqwUV_8tycho_vm5instr8logicops11exec_lshift
FN:62,_RNvNtNtCsipbLpstqwUV_8tycho_vm5instr8logicops11exec_rshift
FN:203,_RNvNtNtCsipbLpstqwUV_8tycho_vm5instr8logicops12exec_bitsize
FN:170,_RNvNtNtCsipbLpstqwUV_8tycho_vm5instr8logicops18exec_fits_tinyint8
FN:16,_RNvNtNtCsipbLpstqwUV_8tycho_vm5instr8logicops20exec_lshift_tinyint8
FN:31,_RNvNtNtCsipbLpstqwUV_8tycho_vm5instr8logicops20exec_rshift_tinyint8
FN:109,_RNvNtNtCsipbLpstqwUV_8tycho_vm5instr8logicops7exec_or
FN:87,_RNvNtNtCsipbLpstqwUV_8tycho_vm5instr8logicops8exec_and
FN:150,_RNvNtNtCsipbLpstqwUV_8tycho_vm5instr8logicops8exec_not
FN:133,_RNvNtNtCsipbLpstqwUV_8tycho_vm5instr8logicops8exec_xor
FN:186,_RNvNtNtCsipbLpstqwUV_8tycho_vm5instr8logicops9exec_fits
FN:78,_RNvNtNtCsipbLpstqwUV_8tycho_vm5instr8logicops9exec_pow2
FN:12,_RNvNvXs_NtNtCsipbLpstqwUV_8tycho_vm5instr8logicopsNtB6_8LogicOpsNtB8_6Module4init15exec_or_wrapper
FN:12,_RNvNvXs_NtNtCsipbLpstqwUV_8tycho_vm5instr8logicopsNtB6_8LogicOpsNtB8_6Module4init16exec_and_wrapper
FN:12,_RNvNvXs_NtNtCsipbLpstqwUV_8tycho_vm5instr8logicopsNtB6_8LogicOpsNtB8_6Module4init16exec_not_wrapper
FN:12,_RNvNvXs_NtNtCsipbLpstqwUV_8tycho_vm5instr8logicopsNtB6_8LogicOpsNtB8_6Module4init16exec_xor_wrapper
FN:12,_RNvNvXs_NtNtCsipbLpstqwUV_8tycho_vm5instr8logicopsNtB6_8LogicOpsNtB8_6Module4init17exec_fits_wrapper
FN:12,_RNvNvXs_NtNtCsipbLpstqwUV_8tycho_vm5instr8logicopsNtB6_8LogicOpsNtB8_6Module4init17exec_pow2_wrapper
FN:12,_RNvNvXs_NtNtCsipbLpstqwUV_8tycho_vm5instr8logicopsNtB6_8LogicOpsNtB8_6Module4init19exec_lshift_wrapper
FN:12,_RNvNvXs_NtNtCsipbLpstqwUV_8tycho_vm5instr8logicopsNtB6_8LogicOpsNtB8_6Module4init19exec_rshift_wrapper
FN:12,_RNvNvXs_NtNtCsipbLpstqwUV_8tycho_vm5instr8logicopsNtB6_8LogicOpsNtB8_6Module4init20exec_bitsize_wrapper
FN:12,_RNvNvXs_NtNtCsipbLpstqwUV_8tycho_vm5instr8logicopsNtB6_8LogicOpsNtB8_6Module4init26exec_fits_tinyint8_wrapper
FN:12,_RNvNvXs_NtNtCsipbLpstqwUV_8tycho_vm5instr8logicopsNtB6_8LogicOpsNtB8_6Module4init28exec_lshift_tinyint8_wrapper
FN:12,_RNvNvXs_NtNtCsipbLpstqwUV_8tycho_vm5instr8logicopsNtB6_8LogicOpsNtB8_6Module4init28exec_rshift_tinyint8_wrapper
FN:12,_RNvNvXs_NtNtCsipbLpstqwUV_8tycho_vm5instr8logicopsNtB6_8LogicOpsNtB8_6Module4inits0_17exec_fits_wrapper
FN:12,_RNvNvXs_NtNtCsipbLpstqwUV_8tycho_vm5instr8logicopsNtB6_8LogicOpsNtB8_6Module4inits0_20exec_bitsize_wrapper
FN:12,_RNvNvXs_NtNtCsipbLpstqwUV_8tycho_vm5instr8logicopsNtB6_8LogicOpsNtB8_6Module4inits0_26exec_fits_tinyint8_wrapper
FN:12,_RNvNvXs_NtNtCsipbLpstqwUV_8tycho_vm5instr8logicopsNtB6_8LogicOpsNtB8_6Module4inits1_17exec_fits_wrapper
FN:12,_RNvNvXs_NtNtCsipbLpstqwUV_8tycho_vm5instr8logicopsNtB6_8LogicOpsNtB8_6Module4inits1_20exec_bitsize_wrapper
FN:12,_RNvNvXs_NtNtCsipbLpstqwUV_8tycho_vm5instr8logicopsNtB6_8LogicOpsNtB8_6Module4inits1_26exec_fits_tinyint8_wrapper
FN:12,_RNvNvXs_NtNtCsipbLpstqwUV_8tycho_vm5instr8logicopsNtB6_8LogicOpsNtB8_6Module4inits_15exec_or_wrapper
FN:12,_RNvNvXs_NtNtCsipbLpstqwUV_8tycho_vm5instr8logicopsNtB6_8LogicOpsNtB8_6Module4inits_16exec_and_wrapper
FN:12,_RNvNvXs_NtNtCsipbLpstqwUV_8tycho_vm5instr8logicopsNtB6_8LogicOpsNtB8_6Module4inits_16exec_not_wrapper
FN:12,_RNvNvXs_NtNtCsipbLpstqwUV_8tycho_vm5instr8logicopsNtB6_8LogicOpsNtB8_6Module4inits_16exec_xor_wrapper
FN:12,_RNvNvXs_NtNtCsipbLpstqwUV_8tycho_vm5instr8logicopsNtB6_8LogicOpsNtB8_6Module4inits_17exec_fits_wrapper
FN:12,_RNvNvXs_NtNtCsipbLpstqwUV_8tycho_vm5instr8logicopsNtB6_8LogicOpsNtB8_6Module4inits_17exec_pow2_wrapper
FN:12,_RNvNvXs_NtNtCsipbLpstqwUV_8tycho_vm5instr8logicopsNtB6_8LogicOpsNtB8_6Module4inits_19exec_lshift_wrapper
FN:12,_RNvNvXs_NtNtCsipbLpstqwUV_8tycho_vm5instr8logicopsNtB6_8LogicOpsNtB8_6Module4inits_19exec_rshift_wrapper
FN:12,_RNvNvXs_NtNtCsipbLpstqwUV_8tycho_vm5instr8logicopsNtB6_8LogicOpsNtB8_6Module4inits_20exec_bitsize_wrapper
FN:12,_RNvNvXs_NtNtCsipbLpstqwUV_8tycho_vm5instr8logicopsNtB6_8LogicOpsNtB8_6Module4inits_26exec_fits_tinyint8_wrapper
FN:12,_RNvNvXs_NtNtCsipbLpstqwUV_8tycho_vm5instr8logicopsNtB6_8LogicOpsNtB8_6Module4inits_28exec_lshift_tinyint8_wrapper
FN:12,_RNvNvXs_NtNtCsipbLpstqwUV_8tycho_vm5instr8logicopsNtB6_8LogicOpsNtB8_6Module4inits_28exec_rshift_tinyint8_wrapper
FNDA:43312,_RNvNtNtCsipbLpstqwUV_8tycho_vm5instr8logicops11exec_lshift
FNDA:121359,_RNvNtNtCsipbLpstqwUV_8tycho_vm5instr8logicops11exec_rshift
FNDA:52768,_RNvNtNtCsipbLpstqwUV_8tycho_vm5instr8logicops12exec_bitsize
FNDA:405728,_RNvNtNtCsipbLpstqwUV_8tycho_vm5instr8logicops18exec_fits_tinyint8
FNDA:168935,_RNvNtNtCsipbLpstqwUV_8tycho_vm5instr8logicops20exec_lshift_tinyint8
FNDA:784600,_RNvNtNtCsipbLpstqwUV_8tycho_vm5instr8logicops20exec_rshift_tinyint8
FNDA:264598,_RNvNtNtCsipbLpstqwUV_8tycho_vm5instr8logicops7exec_or
FNDA:305761,_RNvNtNtCsipbLpstqwUV_8tycho_vm5instr8logicops8exec_and
FNDA:571648,_RNvNtNtCsipbLpstqwUV_8tycho_vm5instr8logicops8exec_not
FNDA:570600,_RNvNtNtCsipbLpstqwUV_8tycho_vm5instr8logicops8exec_xor
FNDA:90725,_RNvNtNtCsipbLpstqwUV_8tycho_vm5instr8logicops9exec_fits
FNDA:35296,_RNvNtNtCsipbLpstqwUV_8tycho_vm5instr8logicops9exec_pow2
FNDA:232992,_RNvNvXs_NtNtCsipbLpstqwUV_8tycho_vm5instr8logicopsNtB6_8LogicOpsNtB8_6Module4init15exec_or_wrapper
FNDA:273663,_RNvNvXs_NtNtCsipbLpstqwUV_8tycho_vm5instr8logicopsNtB6_8LogicOpsNtB8_6Module4init16exec_and_wrapper
FNDA:568181,_RNvNvXs_NtNtCsipbLpstqwUV_8tycho_vm5instr8logicopsNtB6_8LogicOpsNtB8_6Module4init16exec_not_wrapper
FNDA:528737,_RNvNvXs_NtNtCsipbLpstqwUV_8tycho_vm5instr8logicopsNtB6_8LogicOpsNtB8_6Module4init16exec_xor_wrapper
FNDA:38636,_RNvNvXs_NtNtCsipbLpstqwUV_8tycho_vm5instr8logicopsNtB6_8LogicOpsNtB8_6Module4init17exec_fits_wrapper
FNDA:31568,_RNvNvXs_NtNtCsipbLpstqwUV_8tycho_vm5instr8logicopsNtB6_8LogicOpsNtB8_6Module4init17exec_pow2_wrapper
FNDA:36255,_RNvNvXs_NtNtCsipbLpstqwUV_8tycho_vm5instr8logicopsNtB6_8LogicOpsNtB8_6Module4init19exec_lshift_wrapper
FNDA:99287,_RNvNvXs_NtNtCsipbLpstqwUV_8tycho_vm5instr8logicopsNtB6_8LogicOpsNtB8_6Module4init19exec_rshift_wrapper
FNDA:18960,_RNvNvXs_NtNtCsipbLpstqwUV_8tycho_vm5instr8logicopsNtB6_8LogicOpsNtB8_6Module4init20exec_bitsize_wrapper
FNDA:121200,_RNvNvXs_NtNtCsipbLpstqwUV_8tycho_vm5instr8logicopsNtB6_8LogicOpsNtB8_6Module4init26exec_fits_tinyint8_wrapper
FNDA:131314,_RNvNvXs_NtNtCsipbLpstqwUV_8tycho_vm5instr8logicopsNtB6_8LogicOpsNtB8_6Module4init28exec_lshift_tinyint8_wrapper
FNDA:769227,_RNvNvXs_NtNtCsipbLpstqwUV_8tycho_vm5instr8logicopsNtB6_8LogicOpsNtB8_6Module4init28exec_rshift_tinyint8_wrapper
FNDA:15004,_RNvNvXs_NtNtCsipbLpstqwUV_8tycho_vm5instr8logicopsNtB6_8LogicOpsNtB8_6Module4inits0_17exec_fits_wrapper
FNDA:7243,_RNvNvXs_NtNtCsipbLpstqwUV_8tycho_vm5instr8logicopsNtB6_8LogicOpsNtB8_6Module4inits0_20exec_bitsize_wrapper
FNDA:221910,_RNvNvXs_NtNtCsipbLpstqwUV_8tycho_vm5instr8logicopsNtB6_8LogicOpsNtB8_6Module4inits0_26exec_fits_tinyint8_wrapper
FNDA:8336,_RNvNvXs_NtNtCsipbLpstqwUV_8tycho_vm5instr8logicopsNtB6_8LogicOpsNtB8_6Module4inits1_17exec_fits_wrapper
FNDA:10862,_RNvNvXs_NtNtCsipbLpstqwUV_8tycho_vm5instr8logicopsNtB6_8LogicOpsNtB8_6Module4inits1_20exec_bitsize_wrapper
FNDA:28830,_RNvNvXs_NtNtCsipbLpstqwUV_8tycho_vm5instr8logicopsNtB6_8LogicOpsNtB8_6Module4inits1_26exec_fits_tinyint8_wrapper
FNDA:31606,_RNvNvXs_NtNtCsipbLpstqwUV_8tycho_vm5instr8logicopsNtB6_8LogicOpsNtB8_6Module4inits_15exec_or_wrapper
FNDA:32098,_RNvNvXs_NtNtCsipbLpstqwUV_8tycho_vm5instr8logicopsNtB6_8LogicOpsNtB8_6Module4inits_16exec_and_wrapper
FNDA:3467,_RNvNvXs_NtNtCsipbLpstqwUV_8tycho_vm5instr8logicopsNtB6_8LogicOpsNtB8_6Module4inits_16exec_not_wrapper
FNDA:41863,_RNvNvXs_NtNtCsipbLpstqwUV_8tycho_vm5instr8logicopsNtB6_8LogicOpsNtB8_6Module4inits_16exec_xor_wrapper
FNDA:28749,_RNvNvXs_NtNtCsipbLpstqwUV_8tycho_vm5instr8logicopsNtB6_8LogicOpsNtB8_6Module4inits_17exec_fits_wrapper
FNDA:3728,_RNvNvXs_NtNtCsipbLpstqwUV_8tycho_vm5instr8logicopsNtB6_8LogicOpsNtB8_6Module4inits_17exec_pow2_wrapper
FNDA:7057,_RNvNvXs_NtNtCsipbLpstqwUV_8tycho_vm5instr8logicopsNtB6_8LogicOpsNtB8_6Module4inits_19exec_lshift_wrapper
FNDA:22072,_RNvNvXs_NtNtCsipbLpstqwUV_8tycho_vm5instr8logicopsNtB6_8LogicOpsNtB8_6Module4inits_19exec_rshift_wrapper
FNDA:15703,_RNvNvXs_NtNtCsipbLpstqwUV_8tycho_vm5instr8logicopsNtB6_8LogicOpsNtB8_6Module4inits_20exec_bitsize_wrapper
FNDA:33788,_RNvNvXs_NtNtCsipbLpstqwUV_8tycho_vm5instr8logicopsNtB6_8LogicOpsNtB8_6Module4inits_26exec_fits_tinyint8_wrapper
FNDA:37621,_RNvNvXs_NtNtCsipbLpstqwUV_8tycho_vm5instr8logicopsNtB6_8LogicOpsNtB8_6Module4inits_28exec_lshift_tinyint8_wrapper
FNDA:15373,_RNvNvXs_NtNtCsipbLpstqwUV_8tycho_vm5instr8logicopsNtB6_8LogicOpsNtB8_6Module4inits_28exec_rshift_tinyint8_wrapper
FNF:13
FNH:13
DA:12,3415330
DA:16,168935
DA:17,168935
DA:18,168935
DA:19,139473
DA:20,139473
DA:21,139473
DA:23,23861
DA:24,745
DA:26,162467
DA:27,168935
DA:31,784600
DA:32,784600
DA:33,784600
DA:34,769602
DA:35,769602
DA:36,769602
DA:38,11357
DA:39,453
DA:41,779955
DA:42,784600
DA:46,43312
DA:47,43312
DA:48,43312
DA:49,39927
DA:50,30558
DA:51,30558
DA:52,30558
DA:54,4482
DA:55,1354
DA:57,34434
DA:58,43312
DA:62,121359
DA:63,121359
DA:64,121359
DA:65,111202
DA:66,98439
DA:67,98439
DA:68,98439
DA:70,10891
DA:71,233
DA:73,109087
DA:74,121359
DA:78,35296
DA:79,35296
DA:80,35296
DA:81,34829
DA:82,33536
DA:83,35296
DA:87,305761
DA:88,305761
DA:89,305761
DA:90,303846
DA:91,301519
DA:92,270349
DA:93,270349
DA:94,270349
DA:96,11997
DA:99,6207
DA:101,11150
DA:102,13813
DA:104,285534
DA:105,305761
DA:109,264598
DA:110,264598
DA:111,264598
DA:112,263526
DA:113,249722
DA:114,237776
DA:115,237776
DA:116,237776
DA:118,473
DA:119,5878
DA:123,763
DA:125,8287
DA:126,2896
DA:128,246265
DA:129,264598
DA:133,570600
DA:134,570600
DA:135,570600
DA:136,568488
DA:137,564627
DA:138,535512
DA:139,535512
DA:140,535512
DA:142,25786
DA:143,3329
DA:145,558450
DA:146,570600
DA:150,571648
DA:151,571648
DA:152,571648
DA:153,559175
DA:154,559175
DA:155,559175
DA:156,559175
DA:157,559175
DA:158,559175
DA:160,273
DA:161,645
DA:163,557598
DA:164,571648
DA:170,405728
DA:171,405728
DA:172,405728
DA:173,364631
DA:174,339789
DA:176,54785
DA:177,3540
DA:179,394574
DA:180,405728
DA:186,90725
DA:187,90725
DA:188,90725
DA:189,90500
DA:190,80521
DA:191,33693
DA:193,30950
DA:194,25647
DA:196,64643
DA:197,90725
DA:203,52768
DA:204,52768
DA:205,52768
DA:206,48295
DA:207,48295
DA:208,6185
DA:211,267
DA:213,5918
DA:214,5918
DA:215,42110
DA:216,42110
DA:218,3919
DA:219,230
DA:221,46029
DA:222,52768
BRF:0
BRH:0
LF:137
LH:137
end_of_record
SF:/home/odm3n/dev/work/everscale-vm/vm/src/instr/messageops.rs
FN:52,_RNCNvNtNtCsipbLpstqwUV_8tycho_vm5instr10messageops16exec_reserve_raw0B7_
FN:206,_RNCNvNtNtCsipbLpstqwUV_8tycho_vm5instr10messageops17exec_send_message0B7_
FN:219,_RNCNvNtNtCsipbLpstqwUV_8tycho_vm5instr10messageops17exec_send_messages0_0B7_
FN:233,_RNCNvNtNtCsipbLpstqwUV_8tycho_vm5instr10messageops17exec_send_messages1_0B7_
FN:273,_RNCNvNtNtCsipbLpstqwUV_8tycho_vm5instr10messageops17exec_send_messages2_0B7_
FN:213,_RNCNvNtNtCsipbLpstqwUV_8tycho_vm5instr10messageops17exec_send_messages_0B7_
FN:439,_RNvNtNtCsipbLpstqwUV_8tycho_vm5instr10messageops10add_action
FN:64,_RNvNtNtCsipbLpstqwUV_8tycho_vm5instr10messageops13exec_set_code
FN:413,_RNvNtNtCsipbLpstqwUV_8tycho_vm5instr10messageops14tokens_bit_len
FN:86,_RNvNtNtCsipbLpstqwUV_8tycho_vm5instr10messageops15exec_change_lib
FN:435,_RNvNtNtCsipbLpstqwUV_8tycho_vm5instr10messageops15tokens_mul_frac
FN:420,_RNvNtNtCsipbLpstqwUV_8tycho_vm5instr10messageops16bigint_to_tokens
FN:41,_RNvNtNtCsipbLpstqwUV_8tycho_vm5instr10messageops16exec_reserve_raw
FN:406,_RNvNtNtCsipbLpstqwUV_8tycho_vm5instr10messageops16ext_addr_bit_len
FN:113,_RNvNtNtCsipbLpstqwUV_8tycho_vm5instr10messageops17exec_send_message
FN:74,_RNvNtNtCsipbLpstqwUV_8tycho_vm5instr10messageops17exec_set_lib_code
FN:380,_RNvNtNtCsipbLpstqwUV_8tycho_vm5instr10messageops20parse_addr_workchain
FN:28,_RNvNtNtCsipbLpstqwUV_8tycho_vm5instr10messageops21exec_send_message_raw
FN:347,_RNvNtNtCsipbLpstqwUV_8tycho_vm5instr10messageops21pop_send_msg_mode_ext
FN:363,_RNvNtNtCsipbLpstqwUV_8tycho_vm5instr10messageops23pop_change_library_mode
FN:25,_RNvNvXs_NtNtCsipbLpstqwUV_8tycho_vm5instr10messageopsNtB6_10MessageOpsNtB8_6Module4init21exec_set_code_wrapper
FN:25,_RNvNvXs_NtNtCsipbLpstqwUV_8tycho_vm5instr10messageopsNtB6_10MessageOpsNtB8_6Module4init23exec_change_lib_wrapper
FN:25,_RNvNvXs_NtNtCsipbLpstqwUV_8tycho_vm5instr10messageopsNtB6_10MessageOpsNtB8_6Module4init24exec_reserve_raw_wrapper
FN:25,_RNvNvXs_NtNtCsipbLpstqwUV_8tycho_vm5instr10messageopsNtB6_10MessageOpsNtB8_6Module4init25exec_send_message_wrapper
FN:25,_RNvNvXs_NtNtCsipbLpstqwUV_8tycho_vm5instr10messageopsNtB6_10MessageOpsNtB8_6Module4init25exec_set_lib_code_wrapper
FN:25,_RNvNvXs_NtNtCsipbLpstqwUV_8tycho_vm5instr10messageopsNtB6_10MessageOpsNtB8_6Module4init29exec_send_message_raw_wrapper
FN:25,_RNvNvXs_NtNtCsipbLpstqwUV_8tycho_vm5instr10messageopsNtB6_10MessageOpsNtB8_6Module4inits_24exec_reserve_raw_wrapper
FNDA:28225,_RNCNvNtNtCsipbLpstqwUV_8tycho_vm5instr10messageops16exec_reserve_raw0B7_
FNDA:0,_RNCNvNtNtCsipbLpstqwUV_8tycho_vm5instr10messageops17exec_send_message0B7_
FNDA:0,_RNCNvNtNtCsipbLpstqwUV_8tycho_vm5instr10messageops17exec_send_messages0_0B7_
FNDA:0,_RNCNvNtNtCsipbLpstqwUV_8tycho_vm5instr10messageops17exec_send_messages1_0B7_
FNDA:0,_RNCNvNtNtCsipbLpstqwUV_8tycho_vm5instr10messageops17exec_send_messages2_0B7_
FNDA:0,_RNCNvNtNtCsipbLpstqwUV_8tycho_vm5instr10messageops17exec_send_messages_0B7_
FNDA:50825,_RNvNtNtCsipbLpstqwUV_8tycho_vm5instr10messageops10add_action
FNDA:12090,_RNvNtNtCsipbLpstqwUV_8tycho_vm5instr10messageops13exec_set_code
FNDA:0,_RNvNtNtCsipbLpstqwUV_8tycho_vm5instr10messageops14tokens_bit_len
FNDA:25063,_RNvNtNtCsipbLpstqwUV_8tycho_vm5instr10messageops15exec_change_lib
FNDA:0,_RNvNtNtCsipbLpstqwUV_8tycho_vm5instr10messageops15tokens_mul_frac
FNDA:28225,_RNvNtNtCsipbLpstqwUV_8tycho_vm5instr10messageops16bigint_to_tokens
FNDA:45219,_RNvNtNtCsipbLpstqwUV_8tycho_vm5instr10messageops16exec_reserve_raw
FNDA:0,_RNvNtNtCsipbLpstqwUV_8tycho_vm5instr10messageops16ext_addr_bit_len
FNDA:90383,_RNvNtNtCsipbLpstqwUV_8tycho_vm5instr10messageops17exec_send_message
FNDA:5645,_RNvNtNtCsipbLpstqwUV_8tycho_vm5instr10messageops17exec_set_lib_code
FNDA:0,_RNvNtNtCsipbLpstqwUV_8tycho_vm5instr10messageops20parse_addr_workchain
FNDA:19132,_RNvNtNtCsipbLpstqwUV_8tycho_vm5instr10messageops21exec_send_message_raw
FNDA:90383,_RNvNtNtCsipbLpstqwUV_8tycho_vm5instr10messageops21pop_send_msg_mode_ext
FNDA:30708,_RNvNtNtCsipbLpstqwUV_8tycho_vm5instr10messageops23pop_change_library_mode
FNDA:12090,_RNvNvXs_NtNtCsipbLpstqwUV_8tycho_vm5instr10messageopsNtB6_10MessageOpsNtB8_6Module4init21exec_set_code_wrapper
FNDA:25063,_RNvNvXs_NtNtCsipbLpstqwUV_8tycho_vm5instr10messageopsNtB6_10MessageOpsNtB8_6Module4init23exec_change_lib_wrapper
FNDA:17735,_RNvNvXs_NtNtCsipbLpstqwUV_8tycho_vm5instr10messageopsNtB6_10MessageOpsNtB8_6Module4init24exec_reserve_raw_wrapper
FNDA:90383,_RNvNvXs_NtNtCsipbLpstqwUV_8tycho_vm5instr10messageopsNtB6_10MessageOpsNtB8_6Module4init25exec_send_message_wrapper
FNDA:5645,_RNvNvXs_NtNtCsipbLpstqwUV_8tycho_vm5instr10messageopsNtB6_10MessageOpsNtB8_6Module4init25exec_set_lib_code_wrapper
FNDA:19132,_RNvNvXs_NtNtCsipbLpstqwUV_8tycho_vm5instr10messageopsNtB6_10MessageOpsNtB8_6Module4init29exec_send_message_raw_wrapper
FNDA:27484,_RNvNvXs_NtNtCsipbLpstqwUV_8tycho_vm5instr10messageopsNtB6_10MessageOpsNtB8_6Module4inits_24exec_reserve_raw_wrapper
FNF:21
FNH:12
DA:25,197532
DA:28,19132
DA:29,19132
DA:30,19132
DA:31,14191
DA:33,4639
DA:34,4639
DA:35,4639
DA:37,19132
DA:41,45219
DA:42,45219
DA:43,45219
DA:44,45219
DA:45,45219
DA:46,45219
DA:48,0
DA:51,44788
DA:52,44528
DA:54,25436
DA:55,25436
DA:56,25436
DA:57,25436
DA:58,25436
DA:59,25436
DA:60,25436
DA:61,45219
DA:64,12090
DA:65,12090
DA:66,12090
DA:68,2699
DA:69,2699
DA:70,2699
DA:71,12090
DA:74,5645
DA:75,5645
DA:76,5645
DA:77,4675
DA:79,2423
DA:80,2423
DA:81,2423
DA:82,2423
DA:83,5645
DA:86,25063
DA:87,25063
DA:88,25063
DA:89,15628
DA:90,17214
DA:91,16230
DA:94,602
DA:97,15628
DA:98,15628
DA:99,15628
DA:100,15628
DA:101,15628
DA:102,15628
DA:103,15628
DA:104,15628
DA:105,15628
DA:106,15628
DA:107,15628
DA:108,15628
DA:109,15628
DA:110,25063
DA:113,90383
DA:114,90383
DA:117,90383
DA:118,90383
DA:119,89822
DA:120,80502
DA:121,80502
DA:122,80502
DA:123,80499
DA:126,11174
DA:127,2
DA:128,2
DA:129,2
DA:130,2
DA:131,2
DA:133,0
DA:135,1
DA:136,0
DA:139,0
DA:140,0
DA:141,0
DA:142,0
DA:143,0
DA:144,0
DA:145,0
DA:146,0
DA:147,0
DA:148,0
DA:149,0
DA:150,0
DA:151,0
DA:152,0
DA:155,0
DA:156,0
DA:157,0
DA:158,0
DA:161,0
DA:163,0
DA:164,0
DA:165,0
DA:167,0
DA:168,0
DA:171,0
DA:172,0
DA:173,0
DA:174,0
DA:179,0
DA:180,0
DA:181,0
DA:182,0
DA:183,0
DA:185,0
DA:187,0
DA:188,0
DA:189,0
DA:190,0
DA:191,0
DA:192,0
DA:193,0
DA:194,0
DA:196,0
DA:197,0
DA:201,0
DA:202,0
DA:203,0
DA:204,0
DA:205,0
DA:206,0
DA:207,0
DA:208,0
DA:209,0
DA:210,0
DA:211,0
DA:212,0
DA:213,0
DA:214,0
DA:215,0
DA:216,0
DA:219,0
DA:220,0
DA:221,0
DA:222,0
DA:223,0
DA:225,0
DA:226,0
DA:227,0
DA:228,0
DA:230,0
DA:232,0
DA:233,0
DA:235,0
DA:236,0
DA:237,0
DA:239,0
DA:240,0
DA:241,0
DA:242,0
DA:243,0
DA:245,0
DA:246,0
DA:253,0
DA:254,0
DA:255,0
DA:256,0
DA:258,0
DA:260,0
DA:263,0
DA:264,0
DA:265,0
DA:267,0
DA:271,0
DA:272,0
DA:273,0
DA:274,0
DA:275,0
DA:276,0
DA:280,0
DA:281,0
DA:282,0
DA:284,0
DA:286,0
DA:289,0
DA:290,0
DA:292,0
DA:296,0
DA:297,0
DA:299,0
DA:300,0
DA:301,0
DA:302,0
DA:303,0
DA:304,0
DA:307,0
DA:308,0
DA:309,0
DA:310,0
DA:311,0
DA:312,0
DA:313,0
DA:314,0
DA:315,0
DA:316,0
DA:317,0
DA:320,0
DA:321,0
DA:322,0
DA:323,0
DA:324,0
DA:325,0
DA:326,0
DA:327,0
DA:328,0
DA:331,0
DA:334,0
DA:335,0
DA:336,0
DA:337,0
DA:338,0
DA:341,0
DA:343,90383
DA:347,90383
DA:350,90383
DA:351,90072
DA:352,90072
DA:353,90072
DA:356,250
DA:358,89822
DA:359,89822
DA:360,89822
DA:361,90383
DA:363,30708
DA:364,30708
DA:365,30708
DA:367,29942
DA:370,8053
DA:372,21889
DA:374,0
DA:377,21889
DA:378,30708
DA:380,0
DA:381,0
DA:382,0
DA:383,0
DA:384,0
DA:385,0
DA:386,0
DA:387,0
DA:388,0
DA:390,0
DA:391,0
DA:393,0
DA:394,0
DA:395,0
DA:397,0
DA:398,0
DA:399,0
DA:402,0
DA:404,0
DA:406,0
DA:407,0
DA:408,0
DA:409,0
DA:411,0
DA:413,0
DA:414,0
DA:415,0
DA:417,0
DA:418,0
DA:420,28225
DA:421,28225
DA:422,27288
DA:423,27288
DA:424,25436
DA:425,1852
DA:426,937
DA:428,2789
DA:429,2789
DA:430,2789
DA:431,2789
DA:432,2789
DA:433,28225
DA:435,0
DA:436,0
DA:437,0
DA:439,50825
DA:441,50825
DA:442,0
DA:445,50825
DA:447,50406
DA:448,50406
DA:449,50406
DA:450,50825
BRF:0
BRH:0
LF:300
LH:118
end_of_record
SF:/home/odm3n/dev/work/everscale-vm/vm/src/instr/mod.rs
FN:72,_RNCNvNtCsipbLpstqwUV_8tycho_vm5instr9codepage00B5_
FN:41,_RNvNtCsipbLpstqwUV_8tycho_vm5instr8codepage
FN:49,_RNvNtCsipbLpstqwUV_8tycho_vm5instr9codepage0
FN:50,_RNvNvNtCsipbLpstqwUV_8tycho_vm5instr9codepage05build
FNDA:1,_RNCNvNtCsipbLpstqwUV_8tycho_vm5instr9codepage00B5_
FNDA:31135579,_RNvNtCsipbLpstqwUV_8tycho_vm5instr8codepage
FNDA:31868259,_RNvNtCsipbLpstqwUV_8tycho_vm5instr9codepage0
FNDA:1,_RNvNvNtCsipbLpstqwUV_8tycho_vm5instr9codepage05build
FNF:4
FNH:4
DA:41,31135579
DA:42,31135579
DA:43,31052800
DA:44,82779
DA:46,31135579
DA:49,31868259
DA:50,1
DA:51,1
DA:52,1
DA:53,1
DA:54,1
DA:55,1
DA:56,1
DA:57,1
DA:58,1
DA:59,1
DA:60,1
DA:61,1
DA:62,1
DA:63,1
DA:64,1
DA:65,1
DA:66,1
DA:67,1
DA:68,1
DA:69,1
DA:72,31868259
DA:73,31868259
BRF:0
BRH:0
LF:29
LH:29
end_of_record
SF:/home/odm3n/dev/work/everscale-vm/vm/src/instr/randops.rs
FN:189,_RNvNtNtCsipbLpstqwUV_8tycho_vm5instr7randops11to_bytes_be
FN:28,_RNvNtNtCsipbLpstqwUV_8tycho_vm5instr7randops13exec_rand_int
FN:19,_RNvNtNtCsipbLpstqwUV_8tycho_vm5instr7randops13exec_randu256
FN:46,_RNvNtNtCsipbLpstqwUV_8tycho_vm5instr7randops13exec_set_rand
FN:130,_RNvNtNtCsipbLpstqwUV_8tycho_vm5instr7randops20generate_random_u256
FN:16,_RNvNvXs_NtNtCsipbLpstqwUV_8tycho_vm5instr7randopsNtB6_7RandOpsNtB8_6Module4init21exec_rand_int_wrapper
FN:16,_RNvNvXs_NtNtCsipbLpstqwUV_8tycho_vm5instr7randopsNtB6_7RandOpsNtB8_6Module4init21exec_randu256_wrapper
FN:16,_RNvNvXs_NtNtCsipbLpstqwUV_8tycho_vm5instr7randopsNtB6_7RandOpsNtB8_6Module4init21exec_set_rand_wrapper
FN:16,_RNvNvXs_NtNtCsipbLpstqwUV_8tycho_vm5instr7randopsNtB6_7RandOpsNtB8_6Module4inits_21exec_set_rand_wrapper
FNDA:181770,_RNvNtNtCsipbLpstqwUV_8tycho_vm5instr7randops11to_bytes_be
FNDA:50785,_RNvNtNtCsipbLpstqwUV_8tycho_vm5instr7randops13exec_rand_int
FNDA:24029,_RNvNtNtCsipbLpstqwUV_8tycho_vm5instr7randops13exec_randu256
FNDA:148005,_RNvNtNtCsipbLpstqwUV_8tycho_vm5instr7randops13exec_set_rand
FNDA:71625,_RNvNtNtCsipbLpstqwUV_8tycho_vm5instr7randops20generate_random_u256
FNDA:50785,_RNvNvXs_NtNtCsipbLpstqwUV_8tycho_vm5instr7randopsNtB6_7RandOpsNtB8_6Module4init21exec_rand_int_wrapper
FNDA:24029,_RNvNvXs_NtNtCsipbLpstqwUV_8tycho_vm5instr7randopsNtB6_7RandOpsNtB8_6Module4init21exec_randu256_wrapper
FNDA:11376,_RNvNvXs_NtNtCsipbLpstqwUV_8tycho_vm5instr7randopsNtB6_7RandOpsNtB8_6Module4init21exec_set_rand_wrapper
FNDA:136629,_RNvNvXs_NtNtCsipbLpstqwUV_8tycho_vm5instr7randopsNtB6_7RandOpsNtB8_6Module4inits_21exec_set_rand_wrapper
FNF:6
FNH:6
DA:16,222819
DA:19,24029
DA:20,24029
DA:21,24029
DA:22,10208
DA:23,10208
DA:24,10208
DA:25,24029
DA:28,50785
DA:29,50785
DA:30,50785
DA:31,47596
DA:32,33479
DA:33,33479
DA:34,33479
DA:35,33479
DA:36,33479
DA:37,33479
DA:38,33479
DA:40,33479
DA:41,33479
DA:42,50785
DA:46,148005
DA:47,148005
DA:49,148005
DA:50,138101
DA:51,13686
DA:52,13686
DA:53,13686
DA:54,13686
DA:55,13686
DA:56,124415
DA:58,124415
DA:59,0
DA:62,124415
DA:63,15952
DA:64,15952
DA:65,15952
DA:66,15952
DA:69,108463
DA:70,13935
DA:71,13935
DA:72,13935
DA:73,13935
DA:76,94528
DA:77,93850
DA:78,78645
DA:79,78645
DA:80,66088
DA:82,15205
DA:83,15205
DA:84,15205
DA:85,15205
DA:88,65838
DA:89,65838
DA:90,65838
DA:92,65838
DA:93,65838
DA:94,65838
DA:95,65838
DA:96,65838
DA:97,65838
DA:98,678
DA:102,66516
DA:103,66516
DA:104,66516
DA:105,66516
DA:106,66516
DA:107,66516
DA:108,66516
DA:109,66516
DA:110,66516
DA:111,66516
DA:112,310
DA:113,66206
DA:114,66516
DA:115,66516
DA:116,66516
DA:117,66516
DA:118,66516
DA:119,66516
DA:120,66516
DA:121,66516
DA:122,66516
DA:123,66516
DA:124,66515
DA:126,66514
DA:127,148005
DA:130,71625
DA:131,71625
DA:132,0
DA:135,71625
DA:136,1846
DA:137,1846
DA:138,1846
DA:139,1846
DA:141,69779
DA:142,4772
DA:143,4772
DA:144,4772
DA:145,4772
DA:148,65007
DA:149,56051
DA:150,56051
DA:151,49844
DA:153,43689
DA:154,43689
DA:155,43689
DA:157,8956
DA:158,8956
DA:159,8956
DA:160,8956
DA:163,43689
DA:164,43689
DA:165,43689
DA:166,43689
DA:167,43689
DA:168,43689
DA:169,43689
DA:170,43689
DA:171,43689
DA:172,43689
DA:173,43689
DA:174,43689
DA:175,43689
DA:176,43689
DA:177,43689
DA:178,43689
DA:179,43689
DA:180,43689
DA:181,43689
DA:182,43689
DA:183,43689
DA:184,43688
DA:186,43687
DA:187,71625
DA:189,181770
DA:190,181770
DA:193,6405
DA:196,175365
DA:197,175365
DA:198,175365
DA:199,175365
DA:200,181770
BRF:0
BRH:0
LF:144
LH:142
end_of_record
SF:/home/odm3n/dev/work/everscale-vm/vm/src/instr/sizeops.rs
FN:81,_RNvMNtNtCsipbLpstqwUV_8tycho_vm5instr7sizeopsNtB2_14StorageStatExt10with_limit
FN:123,_RNvMNtNtCsipbLpstqwUV_8tycho_vm5instr7sizeopsNtB2_14StorageStatExt12reduce_stack
FN:91,_RNvMNtNtCsipbLpstqwUV_8tycho_vm5instr7sizeopsNtB2_14StorageStatExt8add_cell
FN:112,_RNvMNtNtCsipbLpstqwUV_8tycho_vm5instr7sizeopsNtB2_14StorageStatExt9add_slice
FN:21,_RNvNtNtCsipbLpstqwUV_8tycho_vm5instr7sizeops22exec_compute_data_size
FN:15,_RNvNvXs0_NtNtCsipbLpstqwUV_8tycho_vm5instr7sizeopsNtB7_7SizeOpsNtB9_6Module4init30exec_compute_data_size_wrapper
FN:15,_RNvNvXs0_NtNtCsipbLpstqwUV_8tycho_vm5instr7sizeopsNtB7_7SizeOpsNtB9_6Module4inits0_30exec_compute_data_size_wrapper
FN:15,_RNvNvXs0_NtNtCsipbLpstqwUV_8tycho_vm5instr7sizeopsNtB7_7SizeOpsNtB9_6Module4inits1_30exec_compute_data_size_wrapper
FN:15,_RNvNvXs0_NtNtCsipbLpstqwUV_8tycho_vm5instr7sizeopsNtB7_7SizeOpsNtB9_6Module4inits_30exec_compute_data_size_wrapper
FNDA:72599,_RNvMNtNtCsipbLpstqwUV_8tycho_vm5instr7sizeopsNtB2_14StorageStatExt10with_limit
FNDA:64355,_RNvMNtNtCsipbLpstqwUV_8tycho_vm5instr7sizeopsNtB2_14StorageStatExt12reduce_stack
FNDA:21925,_RNvMNtNtCsipbLpstqwUV_8tycho_vm5instr7sizeopsNtB2_14StorageStatExt8add_cell
FNDA:50674,_RNvMNtNtCsipbLpstqwUV_8tycho_vm5instr7sizeopsNtB2_14StorageStatExt9add_slice
FNDA:105677,_RNvNtNtCsipbLpstqwUV_8tycho_vm5instr7sizeops22exec_compute_data_size
FNDA:18414,_RNvNvXs0_NtNtCsipbLpstqwUV_8tycho_vm5instr7sizeopsNtB7_7SizeOpsNtB9_6Module4init30exec_compute_data_size_wrapper
FNDA:25220,_RNvNvXs0_NtNtCsipbLpstqwUV_8tycho_vm5instr7sizeopsNtB7_7SizeOpsNtB9_6Module4inits0_30exec_compute_data_size_wrapper
FNDA:37549,_RNvNvXs0_NtNtCsipbLpstqwUV_8tycho_vm5instr7sizeopsNtB7_7SizeOpsNtB9_6Module4inits1_30exec_compute_data_size_wrapper
FNDA:24494,_RNvNvXs0_NtNtCsipbLpstqwUV_8tycho_vm5instr7sizeopsNtB7_7SizeOpsNtB9_6Module4inits_30exec_compute_data_size_wrapper
FNF:6
FNH:6
DA:15,105677
DA:21,105677
DA:22,105677
DA:23,105677
DA:25,104645
DA:26,62729
DA:28,41916
DA:30,72802
DA:31,72802
DA:32,429
DA:34,72599
DA:35,72599
DA:37,72599
DA:38,50674
DA:39,0
DA:40,0
DA:41,0
DA:42,0
DA:44,50674
DA:45,50674
DA:47,21925
DA:48,0
DA:49,0
DA:50,0
DA:51,0
DA:53,21925
DA:56,72592
DA:57,56630
DA:58,56630
DA:59,56630
DA:60,15962
DA:61,4799
DA:62,11163
DA:64,67793
DA:65,25693
DA:66,42100
DA:68,67793
DA:69,105677
DA:81,72599
DA:82,72599
DA:83,72599
DA:84,72599
DA:85,72599
DA:86,72599
DA:87,72599
DA:88,72599
DA:89,72599
DA:91,21925
DA:92,21925
DA:93,0
DA:94,21925
DA:95,21925
DA:96,8243
DA:97,13682
DA:98,13682
DA:99,13682
DA:101,13681
DA:102,13681
DA:103,13681
DA:104,13681
DA:105,13681
DA:106,13681
DA:107,13681
DA:108,13681
DA:109,13681
DA:110,21925
DA:112,50674
DA:113,50674
DA:114,50674
DA:115,50674
DA:116,50674
DA:117,50674
DA:118,50674
DA:119,50674
DA:120,50674
DA:121,50674
DA:123,64355
DA:124,401014
DA:125,450682
DA:126,450682
DA:127,191922
DA:128,258760
DA:129,258760
DA:130,258760
DA:131,7719
DA:132,251041
DA:133,251041
DA:134,251041
DA:136,251035
DA:137,251035
DA:138,251035
DA:139,251035
DA:140,251035
DA:141,251035
DA:142,251035
DA:143,251035
DA:144,147966
DA:145,147966
DA:146,103069
DA:149,188693
DA:152,56630
DA:153,64355
BRF:0
BRH:0
LF:102
LH:93
end_of_record
SF:/home/odm3n/dev/work/everscale-vm/vm/src/instr/stackops.rs
FN:232,_RNvNtNtCsipbLpstqwUV_8tycho_vm5instr8stackops10exec_2drop
FN:248,_RNvNtNtCsipbLpstqwUV_8tycho_vm5instr8stackops10exec_2over
FN:224,_RNvNtNtCsipbLpstqwUV_8tycho_vm5instr8stackops10exec_2swap
FN:375,_RNvNtNtCsipbLpstqwUV_8tycho_vm5instr8stackops10exec_depth
FN:175,_RNvNtNtCsipbLpstqwUV_8tycho_vm5instr8stackops10exec_pu2xc
FN:111,_RNvNtNtCsipbLpstqwUV_8tycho_vm5instr8stackops10exec_push2
FN:187,_RNvNtNtCsipbLpstqwUV_8tycho_vm5instr8stackops10exec_push3
FN:153,_RNvNtNtCsipbLpstqwUV_8tycho_vm5instr8stackops10exec_puxc2
FN:122,_RNvNtNtCsipbLpstqwUV_8tycho_vm5instr8stackops10exec_xc2pu
FN:86,_RNvNtNtCsipbLpstqwUV_8tycho_vm5instr8stackops10exec_xchg2
FN:77,_RNvNtNtCsipbLpstqwUV_8tycho_vm5instr8stackops10exec_xchg3
FN:143,_RNvNtNtCsipbLpstqwUV_8tycho_vm5instr8stackops10exec_xcpu2
FN:351,_RNvNtNtCsipbLpstqwUV_8tycho_vm5instr8stackops11exec_drop_x
FN:411,_RNvNtNtCsipbLpstqwUV_8tycho_vm5instr8stackops11exec_only_x
FN:164,_RNvNtNtCsipbLpstqwUV_8tycho_vm5instr8stackops11exec_puxcpu
FN:216,_RNvNtNtCsipbLpstqwUV_8tycho_vm5instr8stackops11exec_rotrev
FN:367,_RNvNtNtCsipbLpstqwUV_8tycho_vm5instr8stackops11exec_xchg_x
FN:132,_RNvNtNtCsipbLpstqwUV_8tycho_vm5instr8stackops11exec_xcpuxc
FN:262,_RNvNtNtCsipbLpstqwUV_8tycho_vm5instr8stackops12exec_blkdrop
FN:268,_RNvNtNtCsipbLpstqwUV_8tycho_vm5instr8stackops12exec_blkpush
FN:196,_RNvNtNtCsipbLpstqwUV_8tycho_vm5instr8stackops12exec_blkswap
FN:256,_RNvNtNtCsipbLpstqwUV_8tycho_vm5instr8stackops12exec_reverse
FN:302,_RNvNtNtCsipbLpstqwUV_8tycho_vm5instr8stackops12exec_rollrev
FN:423,_RNvNtNtCsipbLpstqwUV_8tycho_vm5instr8stackops13exec_blkdrop2
FN:382,_RNvNtNtCsipbLpstqwUV_8tycho_vm5instr8stackops13exec_chkdepth
FN:317,_RNvNtNtCsipbLpstqwUV_8tycho_vm5instr8stackops14exec_blkswap_x
FN:390,_RNvNtNtCsipbLpstqwUV_8tycho_vm5instr8stackops14exec_onlytop_x
FN:338,_RNvNtNtCsipbLpstqwUV_8tycho_vm5instr8stackops14exec_reverse_x
FN:439,_RNvNtNtCsipbLpstqwUV_8tycho_vm5instr8stackops14max_stack_size
FN:435,_RNvNtNtCsipbLpstqwUV_8tycho_vm5instr8stackops18should_consume_gas
FN:34,_RNvNtNtCsipbLpstqwUV_8tycho_vm5instr8stackops8exec_dup
FN:59,_RNvNtNtCsipbLpstqwUV_8tycho_vm5instr8stackops8exec_nip
FN:14,_RNvNtNtCsipbLpstqwUV_8tycho_vm5instr8stackops8exec_nop
FN:68,_RNvNtNtCsipbLpstqwUV_8tycho_vm5instr8stackops8exec_pop
FN:208,_RNvNtNtCsipbLpstqwUV_8tycho_vm5instr8stackops8exec_rot
FN:240,_RNvNtNtCsipbLpstqwUV_8tycho_vm5instr8stackops9exec_2dup
FN:53,_RNvNtNtCsipbLpstqwUV_8tycho_vm5instr8stackops9exec_drop
FN:40,_RNvNtNtCsipbLpstqwUV_8tycho_vm5instr8stackops9exec_over
FN:278,_RNvNtNtCsipbLpstqwUV_8tycho_vm5instr8stackops9exec_pick
FN:47,_RNvNtNtCsipbLpstqwUV_8tycho_vm5instr8stackops9exec_push
FN:102,_RNvNtNtCsipbLpstqwUV_8tycho_vm5instr8stackops9exec_puxc
FN:286,_RNvNtNtCsipbLpstqwUV_8tycho_vm5instr8stackops9exec_roll
FN:19,_RNvNtNtCsipbLpstqwUV_8tycho_vm5instr8stackops9exec_swap
FN:359,_RNvNtNtCsipbLpstqwUV_8tycho_vm5instr8stackops9exec_tuck
FN:28,_RNvNtNtCsipbLpstqwUV_8tycho_vm5instr8stackops9exec_xchg
FN:94,_RNvNtNtCsipbLpstqwUV_8tycho_vm5instr8stackops9exec_xcpu
FN:11,_RNvNvXs_NtNtCsipbLpstqwUV_8tycho_vm5instr8stackopsNtB6_8StackOpsNtB8_6Module4init16exec_dup_wrapper
FN:11,_RNvNvXs_NtNtCsipbLpstqwUV_8tycho_vm5instr8stackopsNtB6_8StackOpsNtB8_6Module4init16exec_nip_wrapper
FN:11,_RNvNvXs_NtNtCsipbLpstqwUV_8tycho_vm5instr8stackopsNtB6_8StackOpsNtB8_6Module4init16exec_nop_wrapper
FN:11,_RNvNvXs_NtNtCsipbLpstqwUV_8tycho_vm5instr8stackopsNtB6_8StackOpsNtB8_6Module4init16exec_pop_wrapper
FN:11,_RNvNvXs_NtNtCsipbLpstqwUV_8tycho_vm5instr8stackopsNtB6_8StackOpsNtB8_6Module4init16exec_rot_wrapper
FN:11,_RNvNvXs_NtNtCsipbLpstqwUV_8tycho_vm5instr8stackopsNtB6_8StackOpsNtB8_6Module4init17exec_2dup_wrapper
FN:11,_RNvNvXs_NtNtCsipbLpstqwUV_8tycho_vm5instr8stackopsNtB6_8StackOpsNtB8_6Module4init17exec_drop_wrapper
FN:11,_RNvNvXs_NtNtCsipbLpstqwUV_8tycho_vm5instr8stackopsNtB6_8StackOpsNtB8_6Module4init17exec_over_wrapper
FN:11,_RNvNvXs_NtNtCsipbLpstqwUV_8tycho_vm5instr8stackopsNtB6_8StackOpsNtB8_6Module4init17exec_pick_wrapper
FN:11,_RNvNvXs_NtNtCsipbLpstqwUV_8tycho_vm5instr8stackopsNtB6_8StackOpsNtB8_6Module4init17exec_push_wrapper
FN:11,_RNvNvXs_NtNtCsipbLpstqwUV_8tycho_vm5instr8stackopsNtB6_8StackOpsNtB8_6Module4init17exec_puxc_wrapper
FN:11,_RNvNvXs_NtNtCsipbLpstqwUV_8tycho_vm5instr8stackopsNtB6_8StackOpsNtB8_6Module4init17exec_roll_wrapper
FN:11,_RNvNvXs_NtNtCsipbLpstqwUV_8tycho_vm5instr8stackopsNtB6_8StackOpsNtB8_6Module4init17exec_swap_wrapper
FN:11,_RNvNvXs_NtNtCsipbLpstqwUV_8tycho_vm5instr8stackopsNtB6_8StackOpsNtB8_6Module4init17exec_tuck_wrapper
FN:11,_RNvNvXs_NtNtCsipbLpstqwUV_8tycho_vm5instr8stackopsNtB6_8StackOpsNtB8_6Module4init17exec_xchg_wrapper
FN:11,_RNvNvXs_NtNtCsipbLpstqwUV_8tycho_vm5instr8stackopsNtB6_8StackOpsNtB8_6Module4init17exec_xcpu_wrapper
FN:11,_RNvNvXs_NtNtCsipbLpstqwUV_8tycho_vm5instr8stackopsNtB6_8StackOpsNtB8_6Module4init18exec_2drop_wrapper
FN:11,_RNvNvXs_NtNtCsipbLpstqwUV_8tycho_vm5instr8stackopsNtB6_8StackOpsNtB8_6Module4init18exec_2over_wrapper
FN:11,_RNvNvXs_NtNtCsipbLpstqwUV_8tycho_vm5instr8stackopsNtB6_8StackOpsNtB8_6Module4init18exec_2swap_wrapper
FN:11,_RNvNvXs_NtNtCsipbLpstqwUV_8tycho_vm5instr8stackopsNtB6_8StackOpsNtB8_6Module4init18exec_depth_wrapper
FN:11,_RNvNvXs_NtNtCsipbLpstqwUV_8tycho_vm5instr8stackopsNtB6_8StackOpsNtB8_6Module4init18exec_pu2xc_wrapper
FN:11,_RNvNvXs_NtNtCsipbLpstqwUV_8tycho_vm5instr8stackopsNtB6_8StackOpsNtB8_6Module4init18exec_push2_wrapper
FN:11,_RNvNvXs_NtNtCsipbLpstqwUV_8tycho_vm5instr8stackopsNtB6_8StackOpsNtB8_6Module4init18exec_push3_wrapper
FN:11,_RNvNvXs_NtNtCsipbLpstqwUV_8tycho_vm5instr8stackopsNtB6_8StackOpsNtB8_6Module4init18exec_puxc2_wrapper
FN:11,_RNvNvXs_NtNtCsipbLpstqwUV_8tycho_vm5instr8stackopsNtB6_8StackOpsNtB8_6Module4init18exec_xc2pu_wrapper
FN:11,_RNvNvXs_NtNtCsipbLpstqwUV_8tycho_vm5instr8stackopsNtB6_8StackOpsNtB8_6Module4init18exec_xchg2_wrapper
FN:11,_RNvNvXs_NtNtCsipbLpstqwUV_8tycho_vm5instr8stackopsNtB6_8StackOpsNtB8_6Module4init18exec_xchg3_wrapper
FN:11,_RNvNvXs_NtNtCsipbLpstqwUV_8tycho_vm5instr8stackopsNtB6_8StackOpsNtB8_6Module4init18exec_xcpu2_wrapper
FN:11,_RNvNvXs_NtNtCsipbLpstqwUV_8tycho_vm5instr8stackopsNtB6_8StackOpsNtB8_6Module4init19exec_drop_x_wrapper
FN:11,_RNvNvXs_NtNtCsipbLpstqwUV_8tycho_vm5instr8stackopsNtB6_8StackOpsNtB8_6Module4init19exec_only_x_wrapper
FN:11,_RNvNvXs_NtNtCsipbLpstqwUV_8tycho_vm5instr8stackopsNtB6_8StackOpsNtB8_6Module4init19exec_puxcpu_wrapper
FN:11,_RNvNvXs_NtNtCsipbLpstqwUV_8tycho_vm5instr8stackopsNtB6_8StackOpsNtB8_6Module4init19exec_rotrev_wrapper
FN:11,_RNvNvXs_NtNtCsipbLpstqwUV_8tycho_vm5instr8stackopsNtB6_8StackOpsNtB8_6Module4init19exec_xchg_x_wrapper
FN:11,_RNvNvXs_NtNtCsipbLpstqwUV_8tycho_vm5instr8stackopsNtB6_8StackOpsNtB8_6Module4init19exec_xcpuxc_wrapper
FN:11,_RNvNvXs_NtNtCsipbLpstqwUV_8tycho_vm5instr8stackopsNtB6_8StackOpsNtB8_6Module4init20exec_blkdrop_wrapper
FN:11,_RNvNvXs_NtNtCsipbLpstqwUV_8tycho_vm5instr8stackopsNtB6_8StackOpsNtB8_6Module4init20exec_blkpush_wrapper
FN:11,_RNvNvXs_NtNtCsipbLpstqwUV_8tycho_vm5instr8stackopsNtB6_8StackOpsNtB8_6Module4init20exec_blkswap_wrapper
FN:11,_RNvNvXs_NtNtCsipbLpstqwUV_8tycho_vm5instr8stackopsNtB6_8StackOpsNtB8_6Module4init20exec_reverse_wrapper
FN:11,_RNvNvXs_NtNtCsipbLpstqwUV_8tycho_vm5instr8stackopsNtB6_8StackOpsNtB8_6Module4init20exec_rollrev_wrapper
FN:11,_RNvNvXs_NtNtCsipbLpstqwUV_8tycho_vm5instr8stackopsNtB6_8StackOpsNtB8_6Module4init21exec_blkdrop2_wrapper
FN:11,_RNvNvXs_NtNtCsipbLpstqwUV_8tycho_vm5instr8stackopsNtB6_8StackOpsNtB8_6Module4init21exec_chkdepth_wrapper
FN:11,_RNvNvXs_NtNtCsipbLpstqwUV_8tycho_vm5instr8stackopsNtB6_8StackOpsNtB8_6Module4init22exec_blkswap_x_wrapper
FN:11,_RNvNvXs_NtNtCsipbLpstqwUV_8tycho_vm5instr8stackopsNtB6_8StackOpsNtB8_6Module4init22exec_onlytop_x_wrapper
FN:11,_RNvNvXs_NtNtCsipbLpstqwUV_8tycho_vm5instr8stackopsNtB6_8StackOpsNtB8_6Module4init22exec_reverse_x_wrapper
FN:11,_RNvNvXs_NtNtCsipbLpstqwUV_8tycho_vm5instr8stackopsNtB6_8StackOpsNtB8_6Module4inits0_17exec_xchg_wrapper
FN:11,_RNvNvXs_NtNtCsipbLpstqwUV_8tycho_vm5instr8stackopsNtB6_8StackOpsNtB8_6Module4inits1_17exec_xchg_wrapper
FN:11,_RNvNvXs_NtNtCsipbLpstqwUV_8tycho_vm5instr8stackopsNtB6_8StackOpsNtB8_6Module4inits_16exec_pop_wrapper
FN:11,_RNvNvXs_NtNtCsipbLpstqwUV_8tycho_vm5instr8stackopsNtB6_8StackOpsNtB8_6Module4inits_17exec_push_wrapper
FN:11,_RNvNvXs_NtNtCsipbLpstqwUV_8tycho_vm5instr8stackopsNtB6_8StackOpsNtB8_6Module4inits_18exec_xchg3_wrapper
FNDA:554175,_RNvNtNtCsipbLpstqwUV_8tycho_vm5instr8stackops10exec_2drop
FNDA:7822985,_RNvNtNtCsipbLpstqwUV_8tycho_vm5instr8stackops10exec_2over
FNDA:228924,_RNvNtNtCsipbLpstqwUV_8tycho_vm5instr8stackops10exec_2swap
FNDA:1662174,_RNvNtNtCsipbLpstqwUV_8tycho_vm5instr8stackops10exec_depth
FNDA:44460,_RNvNtNtCsipbLpstqwUV_8tycho_vm5instr8stackops10exec_pu2xc
FNDA:1153276,_RNvNtNtCsipbLpstqwUV_8tycho_vm5instr8stackops10exec_push2
FNDA:78039,_RNvNtNtCsipbLpstqwUV_8tycho_vm5instr8stackops10exec_push3
FNDA:23285,_RNvNtNtCsipbLpstqwUV_8tycho_vm5instr8stackops10exec_puxc2
FNDA:8571,_RNvNtNtCsipbLpstqwUV_8tycho_vm5instr8stackops10exec_xc2pu
FNDA:580616,_RNvNtNtCsipbLpstqwUV_8tycho_vm5instr8stackops10exec_xchg2
FNDA:2955030,_RNvNtNtCsipbLpstqwUV_8tycho_vm5instr8stackops10exec_xchg3
FNDA:19826,_RNvNtNtCsipbLpstqwUV_8tycho_vm5instr8stackops10exec_xcpu2
FNDA:153726,_RNvNtNtCsipbLpstqwUV_8tycho_vm5instr8stackops11exec_drop_x
FNDA:103032,_RNvNtNtCsipbLpstqwUV_8tycho_vm5instr8stackops11exec_only_x
FNDA:492363,_RNvNtNtCsipbLpstqwUV_8tycho_vm5instr8stackops11exec_puxcpu
FNDA:466623,_RNvNtNtCsipbLpstqwUV_8tycho_vm5instr8stackops11exec_rotrev
FNDA:72662,_RNvNtNtCsipbLpstqwUV_8tycho_vm5instr8stackops11exec_xchg_x
FNDA:62004,_RNvNtNtCsipbLpstqwUV_8tycho_vm5instr8stackops11exec_xcpuxc
FNDA:219633,_RNvNtNtCsipbLpstqwUV_8tycho_vm5instr8stackops12exec_blkdrop
FNDA:5197070,_RNvNtNtCsipbLpstqwUV_8tycho_vm5instr8stackops12exec_blkpush
FNDA:586215,_RNvNtNtCsipbLpstqwUV_8tycho_vm5instr8stackops12exec_blkswap
FNDA:179228,_RNvNtNtCsipbLpstqwUV_8tycho_vm5instr8stackops12exec_reverse
FNDA:158544,_RNvNtNtCsipbLpstqwUV_8tycho_vm5instr8stackops12exec_rollrev
FNDA:145455,_RNvNtNtCsipbLpstqwUV_8tycho_vm5instr8stackops13exec_blkdrop2
FNDA:133652,_RNvNtNtCsipbLpstqwUV_8tycho_vm5instr8stackops13exec_chkdepth
FNDA:126496,_RNvNtNtCsipbLpstqwUV_8tycho_vm5instr8stackops14exec_blkswap_x
FNDA:70386,_RNvNtNtCsipbLpstqwUV_8tycho_vm5instr8stackops14exec_onlytop_x
FNDA:60181,_RNvNtNtCsipbLpstqwUV_8tycho_vm5instr8stackops14exec_reverse_x
FNDA:1466736,_RNvNtNtCsipbLpstqwUV_8tycho_vm5instr8stackops14max_stack_size
FNDA:1520056,_RNvNtNtCsipbLpstqwUV_8tycho_vm5instr8stackops18should_consume_gas
FNDA:32917614,_RNvNtNtCsipbLpstqwUV_8tycho_vm5instr8stackops8exec_dup
FNDA:953905,_RNvNtNtCsipbLpstqwUV_8tycho_vm5instr8stackops8exec_nip
FNDA:58750322,_RNvNtNtCsipbLpstqwUV_8tycho_vm5instr8stackops8exec_nop
FNDA:2794943,_RNvNtNtCsipbLpstqwUV_8tycho_vm5instr8stackops8exec_pop
FNDA:283745,_RNvNtNtCsipbLpstqwUV_8tycho_vm5instr8stackops8exec_rot
FNDA:1457507,_RNvNtNtCsipbLpstqwUV_8tycho_vm5instr8stackops9exec_2dup
FNDA:2121676,_RNvNtNtCsipbLpstqwUV_8tycho_vm5instr8stackops9exec_drop
FNDA:2246647,_RNvNtNtCsipbLpstqwUV_8tycho_vm5instr8stackops9exec_over
FNDA:314739,_RNvNtNtCsipbLpstqwUV_8tycho_vm5instr8stackops9exec_pick
FNDA:12383068,_RNvNtNtCsipbLpstqwUV_8tycho_vm5instr8stackops9exec_push
FNDA:294162,_RNvNtNtCsipbLpstqwUV_8tycho_vm5instr8stackops9exec_puxc
FNDA:90724,_RNvNtNtCsipbLpstqwUV_8tycho_vm5instr8stackops9exec_roll
FNDA:4115277,_RNvNtNtCsipbLpstqwUV_8tycho_vm5instr8stackops9exec_swap
FNDA:1114301,_RNvNtNtCsipbLpstqwUV_8tycho_vm5instr8stackops9exec_tuck
FNDA:9684352,_RNvNtNtCsipbLpstqwUV_8tycho_vm5instr8stackops9exec_xchg
FNDA:700120,_RNvNtNtCsipbLpstqwUV_8tycho_vm5instr8stackops9exec_xcpu
FNDA:32917614,_RNvNvXs_NtNtCsipbLpstqwUV_8tycho_vm5instr8stackopsNtB6_8StackOpsNtB8_6Module4init16exec_dup_wrapper
FNDA:953905,_RNvNvXs_NtNtCsipbLpstqwUV_8tycho_vm5instr8stackopsNtB6_8StackOpsNtB8_6Module4init16exec_nip_wrapper
FNDA:58750322,_RNvNvXs_NtNtCsipbLpstqwUV_8tycho_vm5instr8stackopsNtB6_8StackOpsNtB8_6Module4init16exec_nop_wrapper
FNDA:2693697,_RNvNvXs_NtNtCsipbLpstqwUV_8tycho_vm5instr8stackopsNtB6_8StackOpsNtB8_6Module4init16exec_pop_wrapper
FNDA:283745,_RNvNvXs_NtNtCsipbLpstqwUV_8tycho_vm5instr8stackopsNtB6_8StackOpsNtB8_6Module4init16exec_rot_wrapper
FNDA:1457507,_RNvNvXs_NtNtCsipbLpstqwUV_8tycho_vm5instr8stackopsNtB6_8StackOpsNtB8_6Module4init17exec_2dup_wrapper
FNDA:2121676,_RNvNvXs_NtNtCsipbLpstqwUV_8tycho_vm5instr8stackopsNtB6_8StackOpsNtB8_6Module4init17exec_drop_wrapper
FNDA:2246647,_RNvNvXs_NtNtCsipbLpstqwUV_8tycho_vm5instr8stackopsNtB6_8StackOpsNtB8_6Module4init17exec_over_wrapper
FNDA:314739,_RNvNvXs_NtNtCsipbLpstqwUV_8tycho_vm5instr8stackopsNtB6_8StackOpsNtB8_6Module4init17exec_pick_wrapper
FNDA:12332660,_RNvNvXs_NtNtCsipbLpstqwUV_8tycho_vm5instr8stackopsNtB6_8StackOpsNtB8_6Module4init17exec_push_wrapper
FNDA:294162,_RNvNvXs_NtNtCsipbLpstqwUV_8tycho_vm5instr8stackopsNtB6_8StackOpsNtB8_6Module4init17exec_puxc_wrapper
FNDA:90724,_RNvNvXs_NtNtCsipbLpstqwUV_8tycho_vm5instr8stackopsNtB6_8StackOpsNtB8_6Module4init17exec_roll_wrapper
FNDA:4115277,_RNvNvXs_NtNtCsipbLpstqwUV_8tycho_vm5instr8stackopsNtB6_8StackOpsNtB8_6Module4init17exec_swap_wrapper
FNDA:1114301,_RNvNvXs_NtNtCsipbLpstqwUV_8tycho_vm5instr8stackopsNtB6_8StackOpsNtB8_6Module4init17exec_tuck_wrapper
FNDA:6284240,_RNvNvXs_NtNtCsipbLpstqwUV_8tycho_vm5instr8stackopsNtB6_8StackOpsNtB8_6Module4init17exec_xchg_wrapper
FNDA:700120,_RNvNvXs_NtNtCsipbLpstqwUV_8tycho_vm5instr8stackopsNtB6_8StackOpsNtB8_6Module4init17exec_xcpu_wrapper
FNDA:554175,_RNvNvXs_NtNtCsipbLpstqwUV_8tycho_vm5instr8stackopsNtB6_8StackOpsNtB8_6Module4init18exec_2drop_wrapper
FNDA:7822985,_RNvNvXs_NtNtCsipbLpstqwUV_8tycho_vm5instr8stackopsNtB6_8StackOpsNtB8_6Module4init18exec_2over_wrapper
FNDA:228924,_RNvNvXs_NtNtCsipbLpstqwUV_8tycho_vm5instr8stackopsNtB6_8StackOpsNtB8_6Module4init18exec_2swap_wrapper
FNDA:1662174,_RNvNvXs_NtNtCsipbLpstqwUV_8tycho_vm5instr8stackopsNtB6_8StackOpsNtB8_6Module4init18exec_depth_wrapper
FNDA:44460,_RNvNvXs_NtNtCsipbLpstqwUV_8tycho_vm5instr8stackopsNtB6_8StackOpsNtB8_6Module4init18exec_pu2xc_wrapper
FNDA:1153276,_RNvNvXs_NtNtCsipbLpstqwUV_8tycho_vm5instr8stackopsNtB6_8StackOpsNtB8_6Module4init18exec_push2_wrapper
FNDA:78039,_RNvNvXs_NtNtCsipbLpstqwUV_8tycho_vm5instr8stackopsNtB6_8StackOpsNtB8_6Module4init18exec_push3_wrapper
FNDA:23285,_RNvNvXs_NtNtCsipbLpstqwUV_8tycho_vm5instr8stackopsNtB6_8StackOpsNtB8_6Module4init18exec_puxc2_wrapper
FNDA:8571,_RNvNvXs_NtNtCsipbLpstqwUV_8tycho_vm5instr8stackopsNtB6_8StackOpsNtB8_6Module4init18exec_xc2pu_wrapper
FNDA:580616,_RNvNvXs_NtNtCsipbLpstqwUV_8tycho_vm5instr8stackopsNtB6_8StackOpsNtB8_6Module4init18exec_xchg2_wrapper
FNDA:2922974,_RNvNvXs_NtNtCsipbLpstqwUV_8tycho_vm5instr8stackopsNtB6_8StackOpsNtB8_6Module4init18exec_xchg3_wrapper
FNDA:19826,_RNvNvXs_NtNtCsipbLpstqwUV_8tycho_vm5instr8stackopsNtB6_8StackOpsNtB8_6Module4init18exec_xcpu2_wrapper
FNDA:153726,_RNvNvXs_NtNtCsipbLpstqwUV_8tycho_vm5instr8stackopsNtB6_8StackOpsNtB8_6Module4init19exec_drop_x_wrapper
FNDA:103032,_RNvNvXs_NtNtCsipbLpstqwUV_8tycho_vm5instr8stackopsNtB6_8StackOpsNtB8_6Module4init19exec_only_x_wrapper
FNDA:492363,_RNvNvXs_NtNtCsipbLpstqwUV_8tycho_vm5instr8stackopsNtB6_8StackOpsNtB8_6Module4init19exec_puxcpu_wrapper
FNDA:466623,_RNvNvXs_NtNtCsipbLpstqwUV_8tycho_vm5instr8stackopsNtB6_8StackOpsNtB8_6Module4init19exec_rotrev_wrapper
FNDA:72662,_RNvNvXs_NtNtCsipbLpstqwUV_8tycho_vm5instr8stackopsNtB6_8StackOpsNtB8_6Module4init19exec_xchg_x_wrapper
FNDA:62004,_RNvNvXs_NtNtCsipbLpstqwUV_8tycho_vm5instr8stackopsNtB6_8StackOpsNtB8_6Module4init19exec_xcpuxc_wrapper
FNDA:219633,_RNvNvXs_NtNtCsipbLpstqwUV_8tycho_vm5instr8stackopsNtB6_8StackOpsNtB8_6Module4init20exec_blkdrop_wrapper
FNDA:5197070,_RNvNvXs_NtNtCsipbLpstqwUV_8tycho_vm5instr8stackopsNtB6_8StackOpsNtB8_6Module4init20exec_blkpush_wrapper
FNDA:586215,_RNvNvXs_NtNtCsipbLpstqwUV_8tycho_vm5instr8stackopsNtB6_8StackOpsNtB8_6Module4init20exec_blkswap_wrapper
FNDA:179228,_RNvNvXs_NtNtCsipbLpstqwUV_8tycho_vm5instr8stackopsNtB6_8StackOpsNtB8_6Module4init20exec_reverse_wrapper
FNDA:158544,_RNvNvXs_NtNtCsipbLpstqwUV_8tycho_vm5instr8stackopsNtB6_8StackOpsNtB8_6Module4init20exec_rollrev_wrapper
FNDA:145455,_RNvNvXs_NtNtCsipbLpstqwUV_8tycho_vm5instr8stackopsNtB6_8StackOpsNtB8_6Module4init21exec_blkdrop2_wrapper
FNDA:133652,_RNvNvXs_NtNtCsipbLpstqwUV_8tycho_vm5instr8stackopsNtB6_8StackOpsNtB8_6Module4init21exec_chkdepth_wrapper
FNDA:126496,_RNvNvXs_NtNtCsipbLpstqwUV_8tycho_vm5instr8stackopsNtB6_8StackOpsNtB8_6Module4init22exec_blkswap_x_wrapper
FNDA:70386,_RNvNvXs_NtNtCsipbLpstqwUV_8tycho_vm5instr8stackopsNtB6_8StackOpsNtB8_6Module4init22exec_onlytop_x_wrapper
FNDA:60181,_RNvNvXs_NtNtCsipbLpstqwUV_8tycho_vm5instr8stackopsNtB6_8StackOpsNtB8_6Module4init22exec_reverse_x_wrapper
FNDA:93721,_RNvNvXs_NtNtCsipbLpstqwUV_8tycho_vm5instr8stackopsNtB6_8StackOpsNtB8_6Module4inits0_17exec_xchg_wrapper
FNDA:3215296,_RNvNvXs_NtNtCsipbLpstqwUV_8tycho_vm5instr8stackopsNtB6_8StackOpsNtB8_6Module4inits1_17exec_xchg_wrapper
FNDA:101246,_RNvNvXs_NtNtCsipbLpstqwUV_8tycho_vm5instr8stackopsNtB6_8StackOpsNtB8_6Module4inits_16exec_pop_wrapper
FNDA:50408,_RNvNvXs_NtNtCsipbLpstqwUV_8tycho_vm5instr8stackopsNtB6_8StackOpsNtB8_6Module4inits_17exec_push_wrapper
FNDA:32056,_RNvNvXs_NtNtCsipbLpstqwUV_8tycho_vm5instr8stackopsNtB6_8StackOpsNtB8_6Module4inits_18exec_xchg3_wrapper
FNF:47
FNH:47
DA:11,153490638
DA:14,58750322
DA:15,58750322
DA:16,58750322
DA:19,4115277
DA:20,4115277
DA:21,4092032
DA:22,4115277
DA:28,9684352
DA:29,9684352
DA:30,9465187
DA:31,9684352
DA:34,32917614
DA:35,32917614
DA:36,32831440
DA:37,32917614
DA:40,2246647
DA:41,2246647
DA:42,2228557
DA:43,2246647
DA:47,12383068
DA:48,12383068
DA:49,12263666
DA:50,12383068
DA:53,2121676
DA:54,2121676
DA:55,2058596
DA:56,2121676
DA:59,953905
DA:60,953905
DA:61,953905
DA:62,932007
DA:63,932007
DA:64,953905
DA:68,2794943
DA:69,2794943
DA:70,2794943
DA:71,2695894
DA:72,2695894
DA:73,2794943
DA:77,2955030
DA:78,2955030
DA:79,2955030
DA:80,2921065
DA:81,2904168
DA:82,2901485
DA:83,2955030
DA:86,580616
DA:87,580616
DA:88,580616
DA:89,572662
DA:90,572321
DA:91,580616
DA:94,700120
DA:95,700120
DA:96,700120
DA:97,689247
DA:98,686376
DA:99,700120
DA:102,294162
DA:103,294162
DA:104,294162
DA:105,289465
DA:106,289465
DA:107,289160
DA:108,294162
DA:111,1153276
DA:112,1153276
DA:113,1153276
DA:114,1148012
DA:115,1143789
DA:116,1153276
DA:122,8571
DA:123,8571
DA:124,8571
DA:125,8333
DA:126,8080
DA:127,6589
DA:128,8571
DA:132,62004
DA:133,62004
DA:134,62004
DA:135,61758
DA:136,38113
DA:137,38113
DA:138,34486
DA:139,62004
DA:143,19826
DA:144,19826
DA:145,19826
DA:146,17467
DA:147,12621
DA:148,11803
DA:149,19826
DA:153,23285
DA:154,23285
DA:155,23285
DA:156,10176
DA:157,9586
DA:158,5250
DA:159,3186
DA:160,23285
DA:164,492363
DA:165,492363
DA:166,492363
DA:167,475664
DA:168,475664
DA:169,473379
DA:170,471256
DA:171,492363
DA:175,44460
DA:176,44460
DA:177,44460
DA:178,38590
DA:179,38590
DA:180,32102
DA:181,32102
DA:182,31801
DA:183,44460
DA:187,78039
DA:188,78039
DA:189,78039
DA:190,69603
DA:191,61349
DA:192,57268
DA:193,78039
DA:196,586215
DA:197,586215
DA:198,586215
DA:199,582253
DA:200,582253
DA:201,582253
DA:202,586215
DA:208,283745
DA:209,283745
DA:210,283745
DA:211,281251
DA:212,281251
DA:213,283745
DA:216,466623
DA:217,466623
DA:218,466623
DA:219,453756
DA:220,430795
DA:221,466623
DA:224,228924
DA:225,228924
DA:226,228924
DA:227,227317
DA:228,227317
DA:229,228924
DA:232,554175
DA:233,554175
DA:234,554175
DA:235,542582
DA:236,529916
DA:237,554175
DA:240,1457507
DA:241,1457507
DA:242,1457507
DA:243,1456902
DA:244,1456902
DA:245,1457507
DA:248,7822985
DA:249,7822985
DA:250,7822985
DA:251,7726221
DA:252,7726221
DA:253,7822985
DA:256,179228
DA:257,179228
DA:258,166819
DA:259,179228
DA:262,219633
DA:263,219633
DA:264,219242
DA:265,219633
DA:268,5197070
DA:269,5197070
DA:270,43239876
DA:271,38066115
DA:272,38042806
DA:274,5173761
DA:275,5197070
DA:278,314739
DA:279,314739
DA:280,314739
DA:281,312983
DA:282,297829
DA:283,314739
DA:286,90724
DA:287,90724
DA:289,90724
DA:290,87332
DA:291,3805
DA:292,83527
DA:294,4393691
DA:295,4308232
DA:296,4307401
DA:298,85459
DA:299,90724
DA:302,158544
DA:303,158544
DA:305,158544
DA:306,155347
DA:307,2428
DA:308,152919
DA:310,4385968
DA:311,4385968
DA:313,138761
DA:314,158544
DA:317,126496
DA:318,126496
DA:320,126496
DA:321,124066
DA:323,115664
DA:324,53320
DA:325,53320
DA:326,1986
DA:327,51334
DA:328,0
DA:330,52684
DA:331,43369
DA:332,43369
DA:333,62344
DA:334,105713
DA:335,126496
DA:338,60181
DA:339,60181
DA:341,60181
DA:342,58528
DA:343,57730
DA:344,5998
DA:345,51732
DA:346,57402
DA:347,54859
DA:348,60181
DA:351,153726
DA:352,153726
DA:353,153726
DA:354,151598
DA:355,112742
DA:356,153726
DA:359,1114301
DA:360,1114301
DA:361,1114301
DA:362,1077649
DA:363,1077649
DA:364,1114301
DA:367,72662
DA:368,72662
DA:369,72662
DA:370,71388
DA:371,71100
DA:372,72662
DA:375,1662174
DA:376,1662174
DA:377,1662174
DA:378,1662174
DA:379,1662174
DA:382,133652
DA:383,133652
DA:384,133652
DA:385,129974
DA:386,127891
DA:387,133652
DA:390,70386
DA:391,70386
DA:393,70386
DA:394,63078
DA:395,1952
DA:398,61126
DA:399,49867
DA:400,2989
DA:401,46878
DA:402,49860
DA:403,11259
DA:405,61119
DA:406,61119
DA:407,70386
DA:411,103032
DA:412,103032
DA:413,103032
DA:414,99692
DA:415,3297
DA:417,96395
DA:418,96395
DA:419,103032
DA:423,145455
DA:424,145455
DA:425,145455
DA:426,145455
DA:427,145455
DA:428,145455
DA:430,134979
DA:431,134979
DA:432,145455
DA:435,1520056
DA:436,1520056
DA:437,1520056
DA:439,1466736
DA:440,1466736
DA:442,1466736
DA:444,0
DA:446,1466736
BRF:0
BRH:0
LF:305
LH:303
end_of_record
SF:/home/odm3n/dev/work/everscale-vm/vm/src/instr/tupleops.rs
FN:325,_RNCNvNtNtCsipbLpstqwUV_8tycho_vm5instr8tupleops22tuple_index_quiet_impl0B7_
FN:22,_RNvNtNtCsipbLpstqwUV_8tycho_vm5instr8tupleops12exec_is_null
FN:30,_RNvNtNtCsipbLpstqwUV_8tycho_vm5instr8tupleops12exec_mktuple
FN:42,_RNvNtNtCsipbLpstqwUV_8tycho_vm5instr8tupleops12exec_untuple
FN:330,_RNvNtNtCsipbLpstqwUV_8tycho_vm5instr8tupleops12untuple_impl
FN:154,_RNvNtNtCsipbLpstqwUV_8tycho_vm5instr8tupleops13exec_is_tuple
FN:15,_RNvNtNtCsipbLpstqwUV_8tycho_vm5instr8tupleops14exec_push_null
FN:183,_RNvNtNtCsipbLpstqwUV_8tycho_vm5instr8tupleops14exec_tuple_pop
FN:162,_RNvNtNtCsipbLpstqwUV_8tycho_vm5instr8tupleops15exec_tuple_last
FN:172,_RNvNtNtCsipbLpstqwUV_8tycho_vm5instr8tupleops15exec_tuple_push
FN:303,_RNvNtNtCsipbLpstqwUV_8tycho_vm5instr8tupleops15make_tuple_impl
FN:350,_RNvNtNtCsipbLpstqwUV_8tycho_vm5instr8tupleops16do_explode_tuple
FN:78,_RNvNtNtCsipbLpstqwUV_8tycho_vm5instr8tupleops16exec_mktuple_var
FN:36,_RNvNtNtCsipbLpstqwUV_8tycho_vm5instr8tupleops16exec_tuple_index
FN:92,_RNvNtNtCsipbLpstqwUV_8tycho_vm5instr8tupleops16exec_untuple_var
FN:313,_RNvNtNtCsipbLpstqwUV_8tycho_vm5instr8tupleops16tuple_index_impl
FN:234,_RNvNtNtCsipbLpstqwUV_8tycho_vm5instr8tupleops17exec_null_swap_if
FN:266,_RNvNtNtCsipbLpstqwUV_8tycho_vm5instr8tupleops17exec_tuple_index2
FN:284,_RNvNtNtCsipbLpstqwUV_8tycho_vm5instr8tupleops17exec_tuple_index3
FN:134,_RNvNtNtCsipbLpstqwUV_8tycho_vm5instr8tupleops17exec_tuple_length
FN:199,_RNvNtNtCsipbLpstqwUV_8tycho_vm5instr8tupleops17exec_zero_swap_if
FN:54,_RNvNtNtCsipbLpstqwUV_8tycho_vm5instr8tupleops18exec_explode_tuple
FN:251,_RNvNtNtCsipbLpstqwUV_8tycho_vm5instr8tupleops18exec_null_swap_if2
FN:48,_RNvNtNtCsipbLpstqwUV_8tycho_vm5instr8tupleops18exec_untuple_first
FN:216,_RNvNtNtCsipbLpstqwUV_8tycho_vm5instr8tupleops18exec_zero_swap_if2
FN:342,_RNvNtNtCsipbLpstqwUV_8tycho_vm5instr8tupleops18explode_tuple_impl
FN:336,_RNvNtNtCsipbLpstqwUV_8tycho_vm5instr8tupleops18untuple_first_impl
FN:85,_RNvNtNtCsipbLpstqwUV_8tycho_vm5instr8tupleops20exec_tuple_index_var
FN:60,_RNvNtNtCsipbLpstqwUV_8tycho_vm5instr8tupleops20exec_tuple_set_index
FN:373,_RNvNtNtCsipbLpstqwUV_8tycho_vm5instr8tupleops20tuple_set_index_impl
FN:106,_RNvNtNtCsipbLpstqwUV_8tycho_vm5instr8tupleops22exec_explode_tuple_var
FN:66,_RNvNtNtCsipbLpstqwUV_8tycho_vm5instr8tupleops22exec_tuple_quiet_index
FN:99,_RNvNtNtCsipbLpstqwUV_8tycho_vm5instr8tupleops22exec_untuple_first_var
FN:324,_RNvNtNtCsipbLpstqwUV_8tycho_vm5instr8tupleops22tuple_index_quiet_impl
FN:142,_RNvNtNtCsipbLpstqwUV_8tycho_vm5instr8tupleops23exec_tuple_length_quiet
FN:113,_RNvNtNtCsipbLpstqwUV_8tycho_vm5instr8tupleops24exec_tuple_set_index_var
FN:120,_RNvNtNtCsipbLpstqwUV_8tycho_vm5instr8tupleops26exec_tuple_quiet_index_var
FN:72,_RNvNtNtCsipbLpstqwUV_8tycho_vm5instr8tupleops26exec_tuple_quiet_set_index
FN:427,_RNvNtNtCsipbLpstqwUV_8tycho_vm5instr8tupleops26index_stack_value_as_tuple
FN:387,_RNvNtNtCsipbLpstqwUV_8tycho_vm5instr8tupleops26tuple_set_index_quiet_impl
FN:127,_RNvNtNtCsipbLpstqwUV_8tycho_vm5instr8tupleops30exec_tuple_quiet_set_index_var
FN:12,_RNvNvXs_NtNtCsipbLpstqwUV_8tycho_vm5instr8tupleopsNtB6_8TupleOpsNtB8_6Module4init20exec_is_null_wrapper
FN:12,_RNvNvXs_NtNtCsipbLpstqwUV_8tycho_vm5instr8tupleopsNtB6_8TupleOpsNtB8_6Module4init20exec_mktuple_wrapper
FN:12,_RNvNvXs_NtNtCsipbLpstqwUV_8tycho_vm5instr8tupleopsNtB6_8TupleOpsNtB8_6Module4init20exec_untuple_wrapper
FN:12,_RNvNvXs_NtNtCsipbLpstqwUV_8tycho_vm5instr8tupleopsNtB6_8TupleOpsNtB8_6Module4init21exec_is_tuple_wrapper
FN:12,_RNvNvXs_NtNtCsipbLpstqwUV_8tycho_vm5instr8tupleopsNtB6_8TupleOpsNtB8_6Module4init22exec_push_null_wrapper
FN:12,_RNvNvXs_NtNtCsipbLpstqwUV_8tycho_vm5instr8tupleopsNtB6_8TupleOpsNtB8_6Module4init22exec_tuple_pop_wrapper
FN:12,_RNvNvXs_NtNtCsipbLpstqwUV_8tycho_vm5instr8tupleopsNtB6_8TupleOpsNtB8_6Module4init23exec_tuple_last_wrapper
FN:12,_RNvNvXs_NtNtCsipbLpstqwUV_8tycho_vm5instr8tupleopsNtB6_8TupleOpsNtB8_6Module4init23exec_tuple_push_wrapper
FN:12,_RNvNvXs_NtNtCsipbLpstqwUV_8tycho_vm5instr8tupleopsNtB6_8TupleOpsNtB8_6Module4init24exec_mktuple_var_wrapper
FN:12,_RNvNvXs_NtNtCsipbLpstqwUV_8tycho_vm5instr8tupleopsNtB6_8TupleOpsNtB8_6Module4init24exec_tuple_index_wrapper
FN:12,_RNvNvXs_NtNtCsipbLpstqwUV_8tycho_vm5instr8tupleopsNtB6_8TupleOpsNtB8_6Module4init24exec_untuple_var_wrapper
FN:12,_RNvNvXs_NtNtCsipbLpstqwUV_8tycho_vm5instr8tupleopsNtB6_8TupleOpsNtB8_6Module4init25exec_null_swap_if_wrapper
FN:12,_RNvNvXs_NtNtCsipbLpstqwUV_8tycho_vm5instr8tupleopsNtB6_8TupleOpsNtB8_6Module4init25exec_tuple_index2_wrapper
FN:12,_RNvNvXs_NtNtCsipbLpstqwUV_8tycho_vm5instr8tupleopsNtB6_8TupleOpsNtB8_6Module4init25exec_tuple_index3_wrapper
FN:12,_RNvNvXs_NtNtCsipbLpstqwUV_8tycho_vm5instr8tupleopsNtB6_8TupleOpsNtB8_6Module4init25exec_tuple_length_wrapper
FN:12,_RNvNvXs_NtNtCsipbLpstqwUV_8tycho_vm5instr8tupleopsNtB6_8TupleOpsNtB8_6Module4init25exec_zero_swap_if_wrapper
FN:12,_RNvNvXs_NtNtCsipbLpstqwUV_8tycho_vm5instr8tupleopsNtB6_8TupleOpsNtB8_6Module4init26exec_explode_tuple_wrapper
FN:12,_RNvNvXs_NtNtCsipbLpstqwUV_8tycho_vm5instr8tupleopsNtB6_8TupleOpsNtB8_6Module4init26exec_null_swap_if2_wrapper
FN:12,_RNvNvXs_NtNtCsipbLpstqwUV_8tycho_vm5instr8tupleopsNtB6_8TupleOpsNtB8_6Module4init26exec_untuple_first_wrapper
FN:12,_RNvNvXs_NtNtCsipbLpstqwUV_8tycho_vm5instr8tupleopsNtB6_8TupleOpsNtB8_6Module4init26exec_zero_swap_if2_wrapper
FN:12,_RNvNvXs_NtNtCsipbLpstqwUV_8tycho_vm5instr8tupleopsNtB6_8TupleOpsNtB8_6Module4init28exec_tuple_index_var_wrapper
FN:12,_RNvNvXs_NtNtCsipbLpstqwUV_8tycho_vm5instr8tupleopsNtB6_8TupleOpsNtB8_6Module4init28exec_tuple_set_index_wrapper
FN:12,_RNvNvXs_NtNtCsipbLpstqwUV_8tycho_vm5instr8tupleopsNtB6_8TupleOpsNtB8_6Module4init30exec_explode_tuple_var_wrapper
FN:12,_RNvNvXs_NtNtCsipbLpstqwUV_8tycho_vm5instr8tupleopsNtB6_8TupleOpsNtB8_6Module4init30exec_tuple_quiet_index_wrapper
FN:12,_RNvNvXs_NtNtCsipbLpstqwUV_8tycho_vm5instr8tupleopsNtB6_8TupleOpsNtB8_6Module4init30exec_untuple_first_var_wrapper
FN:12,_RNvNvXs_NtNtCsipbLpstqwUV_8tycho_vm5instr8tupleopsNtB6_8TupleOpsNtB8_6Module4init31exec_tuple_length_quiet_wrapper
FN:12,_RNvNvXs_NtNtCsipbLpstqwUV_8tycho_vm5instr8tupleopsNtB6_8TupleOpsNtB8_6Module4init32exec_tuple_set_index_var_wrapper
FN:12,_RNvNvXs_NtNtCsipbLpstqwUV_8tycho_vm5instr8tupleopsNtB6_8TupleOpsNtB8_6Module4init34exec_tuple_quiet_index_var_wrapper
FN:12,_RNvNvXs_NtNtCsipbLpstqwUV_8tycho_vm5instr8tupleopsNtB6_8TupleOpsNtB8_6Module4init34exec_tuple_quiet_set_index_wrapper
FN:12,_RNvNvXs_NtNtCsipbLpstqwUV_8tycho_vm5instr8tupleopsNtB6_8TupleOpsNtB8_6Module4init38exec_tuple_quiet_set_index_var_wrapper
FN:12,_RNvNvXs_NtNtCsipbLpstqwUV_8tycho_vm5instr8tupleopsNtB6_8TupleOpsNtB8_6Module4inits0_25exec_null_swap_if_wrapper
FN:12,_RNvNvXs_NtNtCsipbLpstqwUV_8tycho_vm5instr8tupleopsNtB6_8TupleOpsNtB8_6Module4inits0_25exec_zero_swap_if_wrapper
FN:12,_RNvNvXs_NtNtCsipbLpstqwUV_8tycho_vm5instr8tupleopsNtB6_8TupleOpsNtB8_6Module4inits0_26exec_null_swap_if2_wrapper
FN:12,_RNvNvXs_NtNtCsipbLpstqwUV_8tycho_vm5instr8tupleopsNtB6_8TupleOpsNtB8_6Module4inits0_26exec_zero_swap_if2_wrapper
FN:12,_RNvNvXs_NtNtCsipbLpstqwUV_8tycho_vm5instr8tupleopsNtB6_8TupleOpsNtB8_6Module4inits1_25exec_null_swap_if_wrapper
FN:12,_RNvNvXs_NtNtCsipbLpstqwUV_8tycho_vm5instr8tupleopsNtB6_8TupleOpsNtB8_6Module4inits1_25exec_zero_swap_if_wrapper
FN:12,_RNvNvXs_NtNtCsipbLpstqwUV_8tycho_vm5instr8tupleopsNtB6_8TupleOpsNtB8_6Module4inits1_26exec_null_swap_if2_wrapper
FN:12,_RNvNvXs_NtNtCsipbLpstqwUV_8tycho_vm5instr8tupleopsNtB6_8TupleOpsNtB8_6Module4inits1_26exec_zero_swap_if2_wrapper
FN:12,_RNvNvXs_NtNtCsipbLpstqwUV_8tycho_vm5instr8tupleopsNtB6_8TupleOpsNtB8_6Module4inits_25exec_null_swap_if_wrapper
FN:12,_RNvNvXs_NtNtCsipbLpstqwUV_8tycho_vm5instr8tupleopsNtB6_8TupleOpsNtB8_6Module4inits_25exec_zero_swap_if_wrapper
FN:12,_RNvNvXs_NtNtCsipbLpstqwUV_8tycho_vm5instr8tupleopsNtB6_8TupleOpsNtB8_6Module4inits_26exec_null_swap_if2_wrapper
FN:12,_RNvNvXs_NtNtCsipbLpstqwUV_8tycho_vm5instr8tupleopsNtB6_8TupleOpsNtB8_6Module4inits_26exec_zero_swap_if2_wrapper
FNDA:93953,_RNCNvNtNtCsipbLpstqwUV_8tycho_vm5instr8tupleops22tuple_index_quiet_impl0B7_
FNDA:1486511,_RNvNtNtCsipbLpstqwUV_8tycho_vm5instr8tupleops12exec_is_null
FNDA:569275,_RNvNtNtCsipbLpstqwUV_8tycho_vm5instr8tupleops12exec_mktuple
FNDA:51072,_RNvNtNtCsipbLpstqwUV_8tycho_vm5instr8tupleops12exec_untuple
FNDA:62040,_RNvNtNtCsipbLpstqwUV_8tycho_vm5instr8tupleops12untuple_impl
FNDA:23466,_RNvNtNtCsipbLpstqwUV_8tycho_vm5instr8tupleops13exec_is_tuple
FNDA:949257,_RNvNtNtCsipbLpstqwUV_8tycho_vm5instr8tupleops14exec_push_null
FNDA:16313,_RNvNtNtCsipbLpstqwUV_8tycho_vm5instr8tupleops14exec_tuple_pop
FNDA:18039,_RNvNtNtCsipbLpstqwUV_8tycho_vm5instr8tupleops15exec_tuple_last
FNDA:17416,_RNvNtNtCsipbLpstqwUV_8tycho_vm5instr8tupleops15exec_tuple_push
FNDA:576527,_RNvNtNtCsipbLpstqwUV_8tycho_vm5instr8tupleops15make_tuple_impl
FNDA:134507,_RNvNtNtCsipbLpstqwUV_8tycho_vm5instr8tupleops16do_explode_tuple
FNDA:7980,_RNvNtNtCsipbLpstqwUV_8tycho_vm5instr8tupleops16exec_mktuple_var
FNDA:41806,_RNvNtNtCsipbLpstqwUV_8tycho_vm5instr8tupleops16exec_tuple_index
FNDA:17588,_RNvNtNtCsipbLpstqwUV_8tycho_vm5instr8tupleops16exec_untuple_var
FNDA:49187,_RNvNtNtCsipbLpstqwUV_8tycho_vm5instr8tupleops16tuple_index_impl
FNDA:40705,_RNvNtNtCsipbLpstqwUV_8tycho_vm5instr8tupleops17exec_null_swap_if
FNDA:27739,_RNvNtNtCsipbLpstqwUV_8tycho_vm5instr8tupleops17exec_tuple_index2
FNDA:24221,_RNvNtNtCsipbLpstqwUV_8tycho_vm5instr8tupleops17exec_tuple_index3
FNDA:10422,_RNvNtNtCsipbLpstqwUV_8tycho_vm5instr8tupleops17exec_tuple_length
FNDA:67374,_RNvNtNtCsipbLpstqwUV_8tycho_vm5instr8tupleops17exec_zero_swap_if
FNDA:30489,_RNvNtNtCsipbLpstqwUV_8tycho_vm5instr8tupleops18exec_explode_tuple
FNDA:76235,_RNvNtNtCsipbLpstqwUV_8tycho_vm5instr8tupleops18exec_null_swap_if2
FNDA:52188,_RNvNtNtCsipbLpstqwUV_8tycho_vm5instr8tupleops18exec_untuple_first
FNDA:52631,_RNvNtNtCsipbLpstqwUV_8tycho_vm5instr8tupleops18exec_zero_swap_if2
FNDA:30712,_RNvNtNtCsipbLpstqwUV_8tycho_vm5instr8tupleops18explode_tuple_impl
FNDA:66871,_RNvNtNtCsipbLpstqwUV_8tycho_vm5instr8tupleops18untuple_first_impl
FNDA:8159,_RNvNtNtCsipbLpstqwUV_8tycho_vm5instr8tupleops20exec_tuple_index_var
FNDA:48709,_RNvNtNtCsipbLpstqwUV_8tycho_vm5instr8tupleops20exec_tuple_set_index
FNDA:49018,_RNvNtNtCsipbLpstqwUV_8tycho_vm5instr8tupleops20tuple_set_index_impl
FNDA:564,_RNvNtNtCsipbLpstqwUV_8tycho_vm5instr8tupleops22exec_explode_tuple_var
FNDA:138341,_RNvNtNtCsipbLpstqwUV_8tycho_vm5instr8tupleops22exec_tuple_quiet_index
FNDA:15022,_RNvNtNtCsipbLpstqwUV_8tycho_vm5instr8tupleops22exec_untuple_first_var
FNDA:140492,_RNvNtNtCsipbLpstqwUV_8tycho_vm5instr8tupleops22tuple_index_quiet_impl
FNDA:30545,_RNvNtNtCsipbLpstqwUV_8tycho_vm5instr8tupleops23exec_tuple_length_quiet
FNDA:897,_RNvNtNtCsipbLpstqwUV_8tycho_vm5instr8tupleops24exec_tuple_set_index_var
FNDA:2382,_RNvNtNtCsipbLpstqwUV_8tycho_vm5instr8tupleops26exec_tuple_quiet_index_var
FNDA:398186,_RNvNtNtCsipbLpstqwUV_8tycho_vm5instr8tupleops26exec_tuple_quiet_set_index
FNDA:34775,_RNvNtNtCsipbLpstqwUV_8tycho_vm5instr8tupleops26index_stack_value_as_tuple
FNDA:402102,_RNvNtNtCsipbLpstqwUV_8tycho_vm5instr8tupleops26tuple_set_index_quiet_impl
FNDA:4445,_RNvNtNtCsipbLpstqwUV_8tycho_vm5instr8tupleops30exec_tuple_quiet_set_index_var
FNDA:1486511,_RNvNvXs_NtNtCsipbLpstqwUV_8tycho_vm5instr8tupleopsNtB6_8TupleOpsNtB8_6Module4init20exec_is_null_wrapper
FNDA:569275,_RNvNvXs_NtNtCsipbLpstqwUV_8tycho_vm5instr8tupleopsNtB6_8TupleOpsNtB8_6Module4init20exec_mktuple_wrapper
FNDA:51072,_RNvNvXs_NtNtCsipbLpstqwUV_8tycho_vm5instr8tupleopsNtB6_8TupleOpsNtB8_6Module4init20exec_untuple_wrapper
FNDA:23466,_RNvNvXs_NtNtCsipbLpstqwUV_8tycho_vm5instr8tupleopsNtB6_8TupleOpsNtB8_6Module4init21exec_is_tuple_wrapper
FNDA:949257,_RNvNvXs_NtNtCsipbLpstqwUV_8tycho_vm5instr8tupleopsNtB6_8TupleOpsNtB8_6Module4init22exec_push_null_wrapper
FNDA:16313,_RNvNvXs_NtNtCsipbLpstqwUV_8tycho_vm5instr8tupleopsNtB6_8TupleOpsNtB8_6Module4init22exec_tuple_pop_wrapper
FNDA:18039,_RNvNvXs_NtNtCsipbLpstqwUV_8tycho_vm5instr8tupleopsNtB6_8TupleOpsNtB8_6Module4init23exec_tuple_last_wrapper
FNDA:17416,_RNvNvXs_NtNtCsipbLpstqwUV_8tycho_vm5instr8tupleopsNtB6_8TupleOpsNtB8_6Module4init23exec_tuple_push_wrapper
FNDA:7980,_RNvNvXs_NtNtCsipbLpstqwUV_8tycho_vm5instr8tupleopsNtB6_8TupleOpsNtB8_6Module4init24exec_mktuple_var_wrapper
FNDA:41806,_RNvNvXs_NtNtCsipbLpstqwUV_8tycho_vm5instr8tupleopsNtB6_8TupleOpsNtB8_6Module4init24exec_tuple_index_wrapper
FNDA:17588,_RNvNvXs_NtNtCsipbLpstqwUV_8tycho_vm5instr8tupleopsNtB6_8TupleOpsNtB8_6Module4init24exec_untuple_var_wrapper
FNDA:17743,_RNvNvXs_NtNtCsipbLpstqwUV_8tycho_vm5instr8tupleopsNtB6_8TupleOpsNtB8_6Module4init25exec_null_swap_if_wrapper
FNDA:27739,_RNvNvXs_NtNtCsipbLpstqwUV_8tycho_vm5instr8tupleopsNtB6_8TupleOpsNtB8_6Module4init25exec_tuple_index2_wrapper
FNDA:24221,_RNvNvXs_NtNtCsipbLpstqwUV_8tycho_vm5instr8tupleopsNtB6_8TupleOpsNtB8_6Module4init25exec_tuple_index3_wrapper
FNDA:10422,_RNvNvXs_NtNtCsipbLpstqwUV_8tycho_vm5instr8tupleopsNtB6_8TupleOpsNtB8_6Module4init25exec_tuple_length_wrapper
FNDA:24170,_RNvNvXs_NtNtCsipbLpstqwUV_8tycho_vm5instr8tupleopsNtB6_8TupleOpsNtB8_6Module4init25exec_zero_swap_if_wrapper
FNDA:30489,_RNvNvXs_NtNtCsipbLpstqwUV_8tycho_vm5instr8tupleopsNtB6_8TupleOpsNtB8_6Module4init26exec_explode_tuple_wrapper
FNDA:37268,_RNvNvXs_NtNtCsipbLpstqwUV_8tycho_vm5instr8tupleopsNtB6_8TupleOpsNtB8_6Module4init26exec_null_swap_if2_wrapper
FNDA:52188,_RNvNvXs_NtNtCsipbLpstqwUV_8tycho_vm5instr8tupleopsNtB6_8TupleOpsNtB8_6Module4init26exec_untuple_first_wrapper
FNDA:5967,_RNvNvXs_NtNtCsipbLpstqwUV_8tycho_vm5instr8tupleopsNtB6_8TupleOpsNtB8_6Module4init26exec_zero_swap_if2_wrapper
FNDA:8159,_RNvNvXs_NtNtCsipbLpstqwUV_8tycho_vm5instr8tupleopsNtB6_8TupleOpsNtB8_6Module4init28exec_tuple_index_var_wrapper
FNDA:48709,_RNvNvXs_NtNtCsipbLpstqwUV_8tycho_vm5instr8tupleopsNtB6_8TupleOpsNtB8_6Module4init28exec_tuple_set_index_wrapper
FNDA:564,_RNvNvXs_NtNtCsipbLpstqwUV_8tycho_vm5instr8tupleopsNtB6_8TupleOpsNtB8_6Module4init30exec_explode_tuple_var_wrapper
FNDA:138341,_RNvNvXs_NtNtCsipbLpstqwUV_8tycho_vm5instr8tupleopsNtB6_8TupleOpsNtB8_6Module4init30exec_tuple_quiet_index_wrapper
FNDA:15022,_RNvNvXs_NtNtCsipbLpstqwUV_8tycho_vm5instr8tupleopsNtB6_8TupleOpsNtB8_6Module4init30exec_untuple_first_var_wrapper
FNDA:30545,_RNvNvXs_NtNtCsipbLpstqwUV_8tycho_vm5instr8tupleopsNtB6_8TupleOpsNtB8_6Module4init31exec_tuple_length_quiet_wrapper
FNDA:897,_RNvNvXs_NtNtCsipbLpstqwUV_8tycho_vm5instr8tupleopsNtB6_8TupleOpsNtB8_6Module4init32exec_tuple_set_index_var_wrapper
FNDA:2382,_RNvNvXs_NtNtCsipbLpstqwUV_8tycho_vm5instr8tupleopsNtB6_8TupleOpsNtB8_6Module4init34exec_tuple_quiet_index_var_wrapper
FNDA:398186,_RNvNvXs_NtNtCsipbLpstqwUV_8tycho_vm5instr8tupleopsNtB6_8TupleOpsNtB8_6Module4init34exec_tuple_quiet_set_index_wrapper
FNDA:4445,_RNvNvXs_NtNtCsipbLpstqwUV_8tycho_vm5instr8tupleopsNtB6_8TupleOpsNtB8_6Module4init38exec_tuple_quiet_set_index_var_wrapper
FNDA:2028,_RNvNvXs_NtNtCsipbLpstqwUV_8tycho_vm5instr8tupleopsNtB6_8TupleOpsNtB8_6Module4inits0_25exec_null_swap_if_wrapper
FNDA:6134,_RNvNvXs_NtNtCsipbLpstqwUV_8tycho_vm5instr8tupleopsNtB6_8TupleOpsNtB8_6Module4inits0_25exec_zero_swap_if_wrapper
FNDA:11274,_RNvNvXs_NtNtCsipbLpstqwUV_8tycho_vm5instr8tupleopsNtB6_8TupleOpsNtB8_6Module4inits0_26exec_null_swap_if2_wrapper
FNDA:19259,_RNvNvXs_NtNtCsipbLpstqwUV_8tycho_vm5instr8tupleopsNtB6_8TupleOpsNtB8_6Module4inits0_26exec_zero_swap_if2_wrapper
FNDA:8341,_RNvNvXs_NtNtCsipbLpstqwUV_8tycho_vm5instr8tupleopsNtB6_8TupleOpsNtB8_6Module4inits1_25exec_null_swap_if_wrapper
FNDA:11627,_RNvNvXs_NtNtCsipbLpstqwUV_8tycho_vm5instr8tupleopsNtB6_8TupleOpsNtB8_6Module4inits1_25exec_zero_swap_if_wrapper
FNDA:9982,_RNvNvXs_NtNtCsipbLpstqwUV_8tycho_vm5instr8tupleopsNtB6_8TupleOpsNtB8_6Module4inits1_26exec_null_swap_if2_wrapper
FNDA:5094,_RNvNvXs_NtNtCsipbLpstqwUV_8tycho_vm5instr8tupleopsNtB6_8TupleOpsNtB8_6Module4inits1_26exec_zero_swap_if2_wrapper
FNDA:12593,_RNvNvXs_NtNtCsipbLpstqwUV_8tycho_vm5instr8tupleopsNtB6_8TupleOpsNtB8_6Module4inits_25exec_null_swap_if_wrapper
FNDA:25443,_RNvNvXs_NtNtCsipbLpstqwUV_8tycho_vm5instr8tupleopsNtB6_8TupleOpsNtB8_6Module4inits_25exec_zero_swap_if_wrapper
FNDA:17711,_RNvNvXs_NtNtCsipbLpstqwUV_8tycho_vm5instr8tupleopsNtB6_8TupleOpsNtB8_6Module4inits_26exec_null_swap_if2_wrapper
FNDA:22311,_RNvNvXs_NtNtCsipbLpstqwUV_8tycho_vm5instr8tupleopsNtB6_8TupleOpsNtB8_6Module4inits_26exec_zero_swap_if2_wrapper
FNF:42
FNH:42
DA:12,4227977
DA:15,949257
DA:16,949257
DA:17,949257
DA:18,949257
DA:19,949257
DA:22,1486511
DA:23,1486511
DA:24,1486511
DA:25,1485007
DA:26,1485007
DA:27,1486511
DA:30,569275
DA:31,569275
DA:32,569275
DA:33,569275
DA:36,41806
DA:37,41806
DA:38,41806
DA:39,41806
DA:42,51072
DA:43,51072
DA:44,51072
DA:45,51072
DA:48,52188
DA:49,52188
DA:50,52188
DA:51,52188
DA:54,30489
DA:55,30489
DA:56,30489
DA:57,30489
DA:60,48709
DA:61,48709
DA:62,48709
DA:63,48709
DA:66,138341
DA:67,138341
DA:68,138341
DA:69,138341
DA:72,398186
DA:73,398186
DA:74,398186
DA:75,398186
DA:78,7980
DA:79,7980
DA:80,7980
DA:81,7252
DA:82,7980
DA:85,8159
DA:86,8159
DA:87,8159
DA:88,7381
DA:89,8159
DA:92,17588
DA:93,17588
DA:94,17588
DA:95,10968
DA:96,17588
DA:99,15022
DA:100,15022
DA:101,15022
DA:102,14683
DA:103,15022
DA:106,564
DA:107,564
DA:108,564
DA:109,223
DA:110,564
DA:113,897
DA:114,897
DA:115,897
DA:116,309
DA:117,897
DA:120,2382
DA:121,2382
DA:122,2382
DA:123,2151
DA:124,2382
DA:127,4445
DA:128,4445
DA:129,4445
DA:130,3916
DA:131,4445
DA:134,10422
DA:135,10422
DA:136,10422
DA:137,7882
DA:138,7882
DA:139,10422
DA:142,30545
DA:143,30545
DA:144,30545
DA:145,30350
DA:146,2920
DA:148,27430
DA:150,30350
DA:151,30545
DA:154,23466
DA:155,23466
DA:156,23466
DA:157,21911
DA:158,21911
DA:159,23466
DA:162,18039
DA:163,18039
DA:164,18039
DA:165,15950
DA:166,15950
DA:167,15950
DA:168,15950
DA:169,18039
DA:172,17416
DA:173,17416
DA:174,17416
DA:175,17138
DA:176,14734
DA:177,14734
DA:178,14733
DA:179,14733
DA:180,17416
DA:183,16313
DA:184,16313
DA:185,16313
DA:186,14233
DA:187,14233
DA:188,14233
DA:189,14233
DA:190,14230
DA:191,14230
DA:192,14230
DA:193,16313
DA:199,67374
DA:200,67374
DA:201,67374
DA:202,66248
DA:203,47791
DA:204,47791
DA:205,15734
DA:206,32057
DA:207,18457
DA:208,65418
DA:209,65418
DA:210,67374
DA:216,52631
DA:217,52631
DA:218,52631
DA:219,51532
DA:220,43014
DA:221,43014
DA:222,43014
DA:223,19797
DA:224,23217
DA:225,8518
DA:226,50950
DA:227,50950
DA:228,52631
DA:234,40705
DA:235,40705
DA:236,40705
DA:237,32045
DA:238,19318
DA:239,19318
DA:240,5993
DA:241,13325
DA:242,12727
DA:243,31245
DA:244,31245
DA:245,40705
DA:251,76235
DA:252,76235
DA:253,76235
DA:254,75369
DA:255,61531
DA:256,61531
DA:257,61531
DA:258,13322
DA:259,48209
DA:260,13838
DA:261,70414
DA:262,70414
DA:263,76235
DA:266,27739
DA:267,27739
DA:268,27739
DA:270,15185
DA:271,271
DA:272,271
DA:273,271
DA:274,271
DA:275,271
DA:278,14914
DA:279,12073
DA:280,12073
DA:281,27739
DA:284,24221
DA:285,24221
DA:286,24221
DA:288,10530
DA:289,446
DA:290,446
DA:291,446
DA:292,446
DA:293,446
DA:296,10084
DA:297,9777
DA:298,7673
DA:299,7673
DA:300,24221
DA:303,576527
DA:304,576527
DA:305,1147
DA:307,575380
DA:308,575380
DA:309,575053
DA:310,575053
DA:311,576527
DA:313,49187
DA:314,49187
DA:315,43666
DA:316,445
DA:317,445
DA:318,445
DA:320,43221
DA:321,43221
DA:322,49187
DA:324,140492
DA:325,140492
DA:326,121656
DA:327,121656
DA:328,140492
DA:330,62040
DA:331,62040
DA:332,43337
DA:333,43336
DA:334,62040
DA:336,66871
DA:337,66871
DA:338,61148
DA:339,61146
DA:340,66871
DA:342,30712
DA:343,30712
DA:344,30022
DA:345,30022
DA:346,30021
DA:347,30021
DA:348,30712
DA:350,134507
DA:351,134507
DA:352,134507
DA:353,134507
DA:354,134507
DA:355,134507
DA:356,134507
DA:357,134507
DA:358,35062
DA:359,108515
DA:360,108515
DA:363,99445
DA:364,705643
DA:365,705643
DA:369,134507
DA:370,134503
DA:371,134507
DA:373,49018
DA:374,49018
DA:375,46723
DA:376,44118
DA:378,471
DA:379,471
DA:381,43647
DA:382,43647
DA:383,43645
DA:384,43645
DA:385,49018
DA:387,402102
DA:388,402102
DA:389,399826
DA:390,383990
DA:393,0
DA:396,383990
DA:397,68414
DA:399,38679
DA:400,38679
DA:401,38679
DA:402,38679
DA:404,315576
DA:405,87716
DA:406,87716
DA:408,227860
DA:409,220130
DA:410,220130
DA:411,220130
DA:412,220130
DA:413,220130
DA:417,383990
DA:419,383986
DA:420,29735
DA:421,354251
DA:424,383986
DA:425,402102
DA:427,34775
DA:428,34775
DA:429,3198
DA:430,3198
DA:431,3198
DA:432,3198
DA:435,31577
DA:436,2054
DA:437,2054
DA:438,2054
DA:439,2054
DA:440,2054
DA:443,29523
DA:444,34775
BRF:0
BRH:0
LF:317
LH:316
end_of_record
SF:/home/odm3n/dev/work/everscale-vm/vm/src/lib.rs
FN:228,_RINvNtCsipbLpstqwUV_8tycho_vm9___private3notbEB4_
FN:240,_RNvXNtNtCsipbLpstqwUV_8tycho_vm9___private3notbNtB2_4Bool3not
FN:247,_RNvXs_NtNtCsipbLpstqwUV_8tycho_vm9___private3notRbNtB4_4Bool3not
FNDA:661771052,_RINvNtCsipbLpstqwUV_8tycho_vm9___private3notbEB4_
FNDA:661771052,_RNvXNtNtCsipbLpstqwUV_8tycho_vm9___private3notbNtB2_4Bool3not
FNDA:0,_RNvXs_NtNtCsipbLpstqwUV_8tycho_vm9___private3notRbNtB4_4Bool3not
FNF:3
FNH:2
DA:228,661771052
DA:229,661771052
DA:230,661771052
DA:240,661771052
DA:241,661771052
DA:242,661771052
DA:247,0
DA:248,0
DA:249,0
BRF:0
BRH:0
LF:9
LH:6
end_of_record
SF:/home/odm3n/dev/work/everscale-vm/vm/src/saferc.rs
FN:23,_RNvMNtCsipbLpstqwUV_8tycho_vm6safercINtB2_6SafeRcINtNtCs8f1B5igIjLM_5alloc3vec3VecIBz_DNtNtB4_5stack10StackValueEL_EEE3newCscQlb7znvrtA_9vm_opcode
FN:23,_RNvMNtCsipbLpstqwUV_8tycho_vm6safercINtB2_6SafeRcNtNtB4_5stack5StackE3newCscQlb7znvrtA_9vm_opcode
FN:89,_RNvXs4_NtCsipbLpstqwUV_8tycho_vm6safercINtB5_6SafeRcDNtNtB7_5stack10StackValueEL_ENtNtCscHntIWw2aYb_4core3fmt5Debug3fmtCscQlb7znvrtA_9vm_opcode
FN:117,_RNvXs9_NtCsipbLpstqwUV_8tycho_vm6safercINtB5_6SafeRcDNtNtB7_4cont4ContEL_ENtNtNtCscHntIWw2aYb_4core3ops4drop4Drop4dropCscQlb7znvrtA_9vm_opcode
FN:117,_RNvXs9_NtCsipbLpstqwUV_8tycho_vm6safercINtB5_6SafeRcDNtNtB7_5stack10StackValueEL_ENtNtNtCscHntIWw2aYb_4core3ops4drop4Drop4dropCscQlb7znvrtA_9vm_opcode
FN:117,_RNvXs9_NtCsipbLpstqwUV_8tycho_vm6safercINtB5_6SafeRcINtNtCs8f1B5igIjLM_5alloc3vec3VecIBC_DNtNtB7_5stack10StackValueEL_EEENtNtNtCscHntIWw2aYb_4core3ops4drop4Drop4dropCscQlb7znvrtA_9vm_opcode
FN:117,_RNvXs9_NtCsipbLpstqwUV_8tycho_vm6safercINtB5_6SafeRcNtNtB7_4cont8QuitContENtNtNtCscHntIWw2aYb_4core3ops4drop4Drop4dropCscQlb7znvrtA_9vm_opcode
FN:117,_RNvXs9_NtCsipbLpstqwUV_8tycho_vm6safercINtB5_6SafeRcNtNtB7_5stack5StackENtNtNtCscHntIWw2aYb_4core3ops4drop4Drop4dropCscQlb7znvrtA_9vm_opcode
FN:169,_RNvXsd_NtCsipbLpstqwUV_8tycho_vm6safercINtB5_6SafeRcNtNtB7_5stack5StackEINtNtCscHntIWw2aYb_4core7convert4FromBO_E4fromCscQlb7znvrtA_9vm_opcode
FN:245,_RNCNvMsi_NtCsipbLpstqwUV_8tycho_vm6safercNtB7_11SafeDeleter6retire0B9_
FN:28,_RNvMNtCsipbLpstqwUV_8tycho_vm6safercINtB2_6SafeRcINtNtCs8f1B5igIjLM_5alloc3vec3VecIBz_DNtNtB4_5stack10StackValueEL_EEE10try_unwrapB4_
FN:23,_RNvMNtCsipbLpstqwUV_8tycho_vm6safercINtB2_6SafeRcINtNtCs8f1B5igIjLM_5alloc3vec3VecIBz_DNtNtB4_5stack10StackValueEL_EEE3newB4_
FN:23,_RNvMNtCsipbLpstqwUV_8tycho_vm6safercINtB2_6SafeRcNtNtB4_4cont11ExcQuitContE3newB4_
FN:23,_RNvMNtCsipbLpstqwUV_8tycho_vm6safercINtB2_6SafeRcNtNtB4_4cont7OrdContE3newB4_
FN:23,_RNvMNtCsipbLpstqwUV_8tycho_vm6safercINtB2_6SafeRcNtNtB4_4cont8QuitContE3newB4_
FN:23,_RNvMNtCsipbLpstqwUV_8tycho_vm6safercINtB2_6SafeRcNtNtB4_5stack5StackE3newB4_
FN:23,_RNvMNtCsipbLpstqwUV_8tycho_vm6safercINtB2_6SafeRcNtNtCslhaYGTY3Pkx_10num_bigint6bigint6BigIntE3newB4_
FN:23,_RNvMNtCsipbLpstqwUV_8tycho_vm6safercINtB2_6SafeRcNtNtNtNtCsdL4DZEAGarf_15everscale_types4cell9cell_impl2rc4CellE3newB4_
FN:60,_RNvMs0_NtCsipbLpstqwUV_8tycho_vm6safercINtB5_6SafeRcNtNtB7_4util14OwnedCellSliceE15unwrap_or_cloneB7_
FN:60,_RNvMs0_NtCsipbLpstqwUV_8tycho_vm6safercINtB5_6SafeRcNtNtB7_5stack5StackE15unwrap_or_cloneB7_
FN:60,_RNvMs0_NtCsipbLpstqwUV_8tycho_vm6safercINtB5_6SafeRcNtNtCslhaYGTY3Pkx_10num_bigint6bigint6BigIntE15unwrap_or_cloneB7_
FN:60,_RNvMs0_NtCsipbLpstqwUV_8tycho_vm6safercINtB5_6SafeRcNtNtNtCsdL4DZEAGarf_15everscale_types4cell7builder11CellBuilderE15unwrap_or_cloneB7_
FN:60,_RNvMs0_NtCsipbLpstqwUV_8tycho_vm6safercINtB5_6SafeRcNtNtNtNtCsdL4DZEAGarf_15everscale_types4cell9cell_impl2rc4CellE15unwrap_or_cloneB7_
FN:38,_RNvMs_NtCsipbLpstqwUV_8tycho_vm6safercINtB4_6SafeRcDNtNtB6_4cont4ContEL_E10into_innerB6_
FN:53,_RNvMs_NtCsipbLpstqwUV_8tycho_vm6safercINtB4_6SafeRcDNtNtB6_4cont4ContEL_E6ptr_eqB6_
FN:48,_RNvMs_NtCsipbLpstqwUV_8tycho_vm6safercINtB4_6SafeRcDNtNtB6_4cont4ContEL_E7get_mutB6_
FN:38,_RNvMs_NtCsipbLpstqwUV_8tycho_vm6safercINtB4_6SafeRcDNtNtB6_5stack10StackValueEL_E10into_innerB6_
FN:38,_RNvMs_NtCsipbLpstqwUV_8tycho_vm6safercINtB4_6SafeRcINtNtCs8f1B5igIjLM_5alloc3vec3VecIBB_DNtNtB6_5stack10StackValueEL_EEE10into_innerB6_
FN:53,_RNvMs_NtCsipbLpstqwUV_8tycho_vm6safercINtB4_6SafeRcINtNtCs8f1B5igIjLM_5alloc3vec3VecIBB_DNtNtB6_5stack10StackValueEL_EEE6ptr_eqB6_
FN:38,_RNvMs_NtCsipbLpstqwUV_8tycho_vm6safercINtB4_6SafeRcNtNtB6_4cont11ExcQuitContE10into_innerB6_
FN:38,_RNvMs_NtCsipbLpstqwUV_8tycho_vm6safercINtB4_6SafeRcNtNtB6_4cont7OrdContE10into_innerB6_
FN:38,_RNvMs_NtCsipbLpstqwUV_8tycho_vm6safercINtB4_6SafeRcNtNtB6_4cont8QuitContE10into_innerB6_
FN:38,_RNvMs_NtCsipbLpstqwUV_8tycho_vm6safercINtB4_6SafeRcNtNtB6_4util14OwnedCellSliceE10into_innerB6_
FN:38,_RNvMs_NtCsipbLpstqwUV_8tycho_vm6safercINtB4_6SafeRcNtNtB6_5stack5StackE10into_innerB6_
FN:38,_RNvMs_NtCsipbLpstqwUV_8tycho_vm6safercINtB4_6SafeRcNtNtCslhaYGTY3Pkx_10num_bigint6bigint6BigIntE10into_innerB6_
FN:48,_RNvMs_NtCsipbLpstqwUV_8tycho_vm6safercINtB4_6SafeRcNtNtCslhaYGTY3Pkx_10num_bigint6bigint6BigIntE7get_mutB6_
FN:38,_RNvMs_NtCsipbLpstqwUV_8tycho_vm6safercINtB4_6SafeRcNtNtNtCsdL4DZEAGarf_15everscale_types4cell7builder11CellBuilderE10into_innerB6_
FN:38,_RNvMs_NtCsipbLpstqwUV_8tycho_vm6safercINtB4_6SafeRcNtNtNtNtCsdL4DZEAGarf_15everscale_types4cell9cell_impl2rc4CellE10into_innerB6_
FN:203,_RNvMsf_NtCsipbLpstqwUV_8tycho_vm6safercINtB5_6SafeRcDNtNtB7_4cont4ContEL_E8make_mutB7_
FN:203,_RNvMsf_NtCsipbLpstqwUV_8tycho_vm6safercINtB5_6SafeRcINtNtCs8f1B5igIjLM_5alloc3vec3VecIBC_DNtNtB7_5stack10StackValueEL_EEE8make_mutB7_
FN:203,_RNvMsf_NtCsipbLpstqwUV_8tycho_vm6safercINtB5_6SafeRcNtNtB7_4util14OwnedCellSliceE8make_mutB7_
FN:203,_RNvMsf_NtCsipbLpstqwUV_8tycho_vm6safercINtB5_6SafeRcNtNtB7_5stack5StackE8make_mutB7_
FN:203,_RNvMsf_NtCsipbLpstqwUV_8tycho_vm6safercINtB5_6SafeRcNtNtCslhaYGTY3Pkx_10num_bigint6bigint6BigIntE8make_mutB7_
FN:203,_RNvMsf_NtCsipbLpstqwUV_8tycho_vm6safercINtB5_6SafeRcNtNtNtCsdL4DZEAGarf_15everscale_types4cell7builder11CellBuilderE8make_mutB7_
FN:233,_RNvMsi_NtCsipbLpstqwUV_8tycho_vm6safercNtB5_11SafeDeleter6retire
FN:68,_RNvXs1_NtCsipbLpstqwUV_8tycho_vm6safercINtB5_6SafeRcINtNtCs8f1B5igIjLM_5alloc3vec3VecIBC_DNtNtB7_5stack10StackValueEL_EEENtNtCscHntIWw2aYb_4core7default7Default7defaultB7_
FN:68,_RNvXs1_NtCsipbLpstqwUV_8tycho_vm6safercINtB5_6SafeRcNtNtB7_5stack5StackENtNtCscHntIWw2aYb_4core7default7Default7defaultB7_
FN:75,_RNvXs2_NtCsipbLpstqwUV_8tycho_vm6safercINtB5_6SafeRcDNtNtB7_4cont4ContEL_ENtNtCscHntIWw2aYb_4core5clone5Clone5cloneB7_
FN:75,_RNvXs2_NtCsipbLpstqwUV_8tycho_vm6safercINtB5_6SafeRcDNtNtB7_5stack10StackValueEL_ENtNtCscHntIWw2aYb_4core5clone5Clone5cloneB7_
FN:75,_RNvXs2_NtCsipbLpstqwUV_8tycho_vm6safercINtB5_6SafeRcINtNtCs8f1B5igIjLM_5alloc3vec3VecIBC_DNtNtB7_5stack10StackValueEL_EEENtNtCscHntIWw2aYb_4core5clone5Clone5cloneB7_
FN:75,_RNvXs2_NtCsipbLpstqwUV_8tycho_vm6safercINtB5_6SafeRcNtNtB7_4cont11ExcQuitContENtNtCscHntIWw2aYb_4core5clone5Clone5cloneB7_
FN:75,_RNvXs2_NtCsipbLpstqwUV_8tycho_vm6safercINtB5_6SafeRcNtNtB7_4cont8QuitContENtNtCscHntIWw2aYb_4core5clone5Clone5cloneB7_
FN:75,_RNvXs2_NtCsipbLpstqwUV_8tycho_vm6safercINtB5_6SafeRcNtNtB7_5stack5StackENtNtCscHntIWw2aYb_4core5clone5Clone5cloneB7_
FN:82,_RNvXs3_NtCsipbLpstqwUV_8tycho_vm6safercINtB5_6SafeRcNtNtCslhaYGTY3Pkx_10num_bigint6bigint6BigIntENtNtCscHntIWw2aYb_4core3fmt7Display3fmtB7_
FN:89,_RNvXs4_NtCsipbLpstqwUV_8tycho_vm6safercINtB5_6SafeRcDNtNtB7_4cont4ContEL_ENtNtCscHntIWw2aYb_4core3fmt5Debug3fmtB7_
FN:89,_RNvXs4_NtCsipbLpstqwUV_8tycho_vm6safercINtB5_6SafeRcDNtNtB7_5stack10StackValueEL_ENtNtCscHntIWw2aYb_4core3fmt5Debug3fmtB7_
FN:89,_RNvXs4_NtCsipbLpstqwUV_8tycho_vm6safercINtB5_6SafeRcINtNtCs8f1B5igIjLM_5alloc3vec3VecIBC_DNtNtB7_5stack10StackValueEL_EEENtNtCscHntIWw2aYb_4core3fmt5Debug3fmtB7_
FN:89,_RNvXs4_NtCsipbLpstqwUV_8tycho_vm6safercINtB5_6SafeRcNtNtB7_5stack5StackENtNtCscHntIWw2aYb_4core3fmt5Debug3fmtB7_
FN:105,_RNvXs7_NtCsipbLpstqwUV_8tycho_vm6safercINtB5_6SafeRcNtNtCslhaYGTY3Pkx_10num_bigint6bigint6BigIntENtNtCscHntIWw2aYb_4core3cmp3Ord3cmpB7_
FN:111,_RNvXs8_NtCsipbLpstqwUV_8tycho_vm6safercINtB5_6SafeRcNtNtCslhaYGTY3Pkx_10num_bigint6bigint6BigIntENtNtCscHntIWw2aYb_4core3cmp10PartialOrd11partial_cmpB7_
FN:117,_RNvXs9_NtCsipbLpstqwUV_8tycho_vm6safercINtB5_6SafeRcDNtNtB7_4cont4ContEL_ENtNtNtCscHntIWw2aYb_4core3ops4drop4Drop4dropB7_
FN:117,_RNvXs9_NtCsipbLpstqwUV_8tycho_vm6safercINtB5_6SafeRcDNtNtB7_5stack10StackValueEL_ENtNtNtCscHntIWw2aYb_4core3ops4drop4Drop4dropB7_
FN:117,_RNvXs9_NtCsipbLpstqwUV_8tycho_vm6safercINtB5_6SafeRcINtNtCs8f1B5igIjLM_5alloc3vec3VecIBC_DNtNtB7_5stack10StackValueEL_EEENtNtNtCscHntIWw2aYb_4core3ops4drop4Drop4dropB7_
FN:117,_RNvXs9_NtCsipbLpstqwUV_8tycho_vm6safercINtB5_6SafeRcNtNtB7_4cont11ExcQuitContENtNtNtCscHntIWw2aYb_4core3ops4drop4Drop4dropB7_
FN:117,_RNvXs9_NtCsipbLpstqwUV_8tycho_vm6safercINtB5_6SafeRcNtNtB7_4cont7OrdContENtNtNtCscHntIWw2aYb_4core3ops4drop4Drop4dropB7_
FN:117,_RNvXs9_NtCsipbLpstqwUV_8tycho_vm6safercINtB5_6SafeRcNtNtB7_4cont8QuitContENtNtNtCscHntIWw2aYb_4core3ops4drop4Drop4dropB7_
FN:117,_RNvXs9_NtCsipbLpstqwUV_8tycho_vm6safercINtB5_6SafeRcNtNtB7_4util14OwnedCellSliceENtNtNtCscHntIWw2aYb_4core3ops4drop4Drop4dropB7_
FN:117,_RNvXs9_NtCsipbLpstqwUV_8tycho_vm6safercINtB5_6SafeRcNtNtB7_5stack5StackENtNtNtCscHntIWw2aYb_4core3ops4drop4Drop4dropB7_
FN:117,_RNvXs9_NtCsipbLpstqwUV_8tycho_vm6safercINtB5_6SafeRcNtNtCslhaYGTY3Pkx_10num_bigint6bigint6BigIntENtNtNtCscHntIWw2aYb_4core3ops4drop4Drop4dropB7_
FN:117,_RNvXs9_NtCsipbLpstqwUV_8tycho_vm6safercINtB5_6SafeRcNtNtNtCsdL4DZEAGarf_15everscale_types4cell7builder11CellBuilderENtNtNtCscHntIWw2aYb_4core3ops4drop4Drop4dropB7_
FN:117,_RNvXs9_NtCsipbLpstqwUV_8tycho_vm6safercINtB5_6SafeRcNtNtNtNtCsdL4DZEAGarf_15everscale_types4cell9cell_impl2rc4CellENtNtNtCscHntIWw2aYb_4core3ops4drop4Drop4dropB7_
FN:148,_RNvXsa_NtCsipbLpstqwUV_8tycho_vm6safercINtB5_6SafeRcDNtNtB7_4cont4ContEL_ENtNtNtCscHntIWw2aYb_4core3ops5deref5Deref5derefB7_
FN:148,_RNvXsa_NtCsipbLpstqwUV_8tycho_vm6safercINtB5_6SafeRcDNtNtB7_5stack10StackValueEL_ENtNtNtCscHntIWw2aYb_4core3ops5deref5Deref5derefB7_
FN:148,_RNvXsa_NtCsipbLpstqwUV_8tycho_vm6safercINtB5_6SafeRcINtNtCs8f1B5igIjLM_5alloc3vec3VecIBC_DNtNtB7_5stack10StackValueEL_EEENtNtNtCscHntIWw2aYb_4core3ops5deref5Deref5derefB7_
FN:148,_RNvXsa_NtCsipbLpstqwUV_8tycho_vm6safercINtB5_6SafeRcNtNtB7_4util14OwnedCellSliceENtNtNtCscHntIWw2aYb_4core3ops5deref5Deref5derefB7_
FN:148,_RNvXsa_NtCsipbLpstqwUV_8tycho_vm6safercINtB5_6SafeRcNtNtB7_5stack5StackENtNtNtCscHntIWw2aYb_4core3ops5deref5Deref5derefB7_
FN:148,_RNvXsa_NtCsipbLpstqwUV_8tycho_vm6safercINtB5_6SafeRcNtNtCslhaYGTY3Pkx_10num_bigint6bigint6BigIntENtNtNtCscHntIWw2aYb_4core3ops5deref5Deref5derefB7_
FN:148,_RNvXsa_NtCsipbLpstqwUV_8tycho_vm6safercINtB5_6SafeRcNtNtNtCsdL4DZEAGarf_15everscale_types4cell7builder11CellBuilderENtNtNtCscHntIWw2aYb_4core3ops5deref5Deref5derefB7_
FN:148,_RNvXsa_NtCsipbLpstqwUV_8tycho_vm6safercINtB5_6SafeRcNtNtNtNtCsdL4DZEAGarf_15everscale_types4cell9cell_impl2rc4CellENtNtNtCscHntIWw2aYb_4core3ops5deref5Deref5derefB7_
FN:155,_RNvXsb_NtCsipbLpstqwUV_8tycho_vm6safercINtB5_6SafeRcDNtNtB7_5stack10StackValueEL_EINtNtCscHntIWw2aYb_4core7convert5AsRefBO_E6as_refB7_
FN:155,_RNvXsb_NtCsipbLpstqwUV_8tycho_vm6safercINtB5_6SafeRcINtNtCs8f1B5igIjLM_5alloc3vec3VecIBC_DNtNtB7_5stack10StackValueEL_EEEINtNtCscHntIWw2aYb_4core7convert5AsRefBO_E6as_refB7_
FN:155,_RNvXsb_NtCsipbLpstqwUV_8tycho_vm6safercINtB5_6SafeRcNtNtCslhaYGTY3Pkx_10num_bigint6bigint6BigIntEINtNtCscHntIWw2aYb_4core7convert5AsRefBO_E6as_refB7_
FN:162,_RNvXsc_NtCsipbLpstqwUV_8tycho_vm6safercINtB5_6SafeRcDNtNtB7_4cont4ContEL_EINtNtCscHntIWw2aYb_4core7convert4FromINtNtCs8f1B5igIjLM_5alloc2rc2RcBO_EE4fromB7_
FN:162,_RNvXsc_NtCsipbLpstqwUV_8tycho_vm6safercINtB5_6SafeRcINtNtCs8f1B5igIjLM_5alloc3vec3VecIBC_DNtNtB7_5stack10StackValueEL_EEEINtNtCscHntIWw2aYb_4core7convert4FromINtNtBT_2rc2RcBO_EE4fromB7_
FN:162,_RNvXsc_NtCsipbLpstqwUV_8tycho_vm6safercINtB5_6SafeRcNtNtB7_4util14OwnedCellSliceEINtNtCscHntIWw2aYb_4core7convert4FromINtNtCs8f1B5igIjLM_5alloc2rc2RcBO_EE4fromB7_
FN:162,_RNvXsc_NtCsipbLpstqwUV_8tycho_vm6safercINtB5_6SafeRcNtNtCslhaYGTY3Pkx_10num_bigint6bigint6BigIntEINtNtCscHntIWw2aYb_4core7convert4FromINtNtCs8f1B5igIjLM_5alloc2rc2RcBO_EE4fromB7_
FN:162,_RNvXsc_NtCsipbLpstqwUV_8tycho_vm6safercINtB5_6SafeRcNtNtNtCsdL4DZEAGarf_15everscale_types4cell7builder11CellBuilderEINtNtCscHntIWw2aYb_4core7convert4FromINtNtCs8f1B5igIjLM_5alloc2rc2RcBO_EE4fromB7_
FN:162,_RNvXsc_NtCsipbLpstqwUV_8tycho_vm6safercINtB5_6SafeRcNtNtNtNtCsdL4DZEAGarf_15everscale_types4cell9cell_impl2rc4CellEINtNtCscHntIWw2aYb_4core7convert4FromINtNtCs8f1B5igIjLM_5alloc2rc2RcBO_EE4fromB7_
FN:212,_RNvXsg_NtCsipbLpstqwUV_8tycho_vm6safercINtB5_6SafeRcNtNtB7_5stack5StackENtNtNtCsdL4DZEAGarf_15everscale_types4cell5slice4Load9load_fromB7_
FN:220,_RNvXsh_NtCsipbLpstqwUV_8tycho_vm6safercINtB5_6SafeRcDNtNtB7_4cont4ContEL_ENtNtNtCsdL4DZEAGarf_15everscale_types4cell7builder5Store10store_intoB7_
FN:98,_RNvXININtCsipbLpstqwUV_8tycho_vm6safercs6_0pEINtB5_6SafeRcpENtNtCscHntIWw2aYb_4core3cmp9PartialEq2eqB7_
FN:169,_RNvXININtCsipbLpstqwUV_8tycho_vm6safercsd_0pEINtB5_6SafeRcpEINtNtCscHntIWw2aYb_4core7convert4FrompE4fromB7_
FN:187,_RNvXININtCsipbLpstqwUV_8tycho_vm6safercse_0pEINtB5_6SafeRcpENtCs2k73FkEQrbY_9arbitrary9Arbitrary13try_size_hintB7_
FN:177,_RNvXININtCsipbLpstqwUV_8tycho_vm6safercse_0pEINtB5_6SafeRcpENtCs2k73FkEQrbY_9arbitrary9Arbitrary9arbitraryB7_
FN:182,_RNvXININtCsipbLpstqwUV_8tycho_vm6safercse_0pEINtB5_6SafeRcpENtCs2k73FkEQrbY_9arbitrary9Arbitrary9size_hintB7_
FNDA:47097,_RNvMNtCsipbLpstqwUV_8tycho_vm6safercINtB2_6SafeRcINtNtCs8f1B5igIjLM_5alloc3vec3VecIBz_DNtNtB4_5stack10StackValueEL_EEE3newCscQlb7znvrtA_9vm_opcode
FNDA:47097,_RNvMNtCsipbLpstqwUV_8tycho_vm6safercINtB2_6SafeRcNtNtB4_5stack5StackE3newCscQlb7znvrtA_9vm_opcode
FNDA:0,_RNvXs4_NtCsipbLpstqwUV_8tycho_vm6safercINtB5_6SafeRcDNtNtB7_5stack10StackValueEL_ENtNtCscHntIWw2aYb_4core3fmt5Debug3fmtCscQlb7znvrtA_9vm_opcode
FNDA:188197,_RNvXs9_NtCsipbLpstqwUV_8tycho_vm6safercINtB5_6SafeRcDNtNtB7_4cont4ContEL_ENtNtNtCscHntIWw2aYb_4core3ops4drop4Drop4dropCscQlb7znvrtA_9vm_opcode
FNDA:4452091,_RNvXs9_NtCsipbLpstqwUV_8tycho_vm6safercINtB5_6SafeRcDNtNtB7_5stack10StackValueEL_ENtNtNtCscHntIWw2aYb_4core3ops4drop4Drop4dropCscQlb7znvrtA_9vm_opcode
FNDA:94193,_RNvXs9_NtCsipbLpstqwUV_8tycho_vm6safercINtB5_6SafeRcINtNtCs8f1B5igIjLM_5alloc3vec3VecIBC_DNtNtB7_5stack10StackValueEL_EEENtNtNtCscHntIWw2aYb_4core3ops4drop4Drop4dropCscQlb7znvrtA_9vm_opcode
FNDA:94194,_RNvXs9_NtCsipbLpstqwUV_8tycho_vm6safercINtB5_6SafeRcNtNtB7_4cont8QuitContENtNtNtCscHntIWw2aYb_4core3ops4drop4Drop4dropCscQlb7znvrtA_9vm_opcode
FNDA:47097,_RNvXs9_NtCsipbLpstqwUV_8tycho_vm6safercINtB5_6SafeRcNtNtB7_5stack5StackENtNtNtCscHntIWw2aYb_4core3ops4drop4Drop4dropCscQlb7znvrtA_9vm_opcode
FNDA:47097,_RNvXsd_NtCsipbLpstqwUV_8tycho_vm6safercINtB5_6SafeRcNtNtB7_5stack5StackEINtNtCscHntIWw2aYb_4core7convert4FromBO_E4fromCscQlb7znvrtA_9vm_opcode
FNDA:78594888,_RNCNvMsi_NtCsipbLpstqwUV_8tycho_vm6safercNtB7_11SafeDeleter6retire0B9_
FNDA:134507,_RNvMNtCsipbLpstqwUV_8tycho_vm6safercINtB2_6SafeRcINtNtCs8f1B5igIjLM_5alloc3vec3VecIBz_DNtNtB4_5stack10StackValueEL_EEE10try_unwrapB4_
FNDA:1429528,_RNvMNtCsipbLpstqwUV_8tycho_vm6safercINtB2_6SafeRcINtNtCs8f1B5igIjLM_5alloc3vec3VecIBz_DNtNtB4_5stack10StackValueEL_EEE3newB4_
FNDA:1,_RNvMNtCsipbLpstqwUV_8tycho_vm6safercINtB2_6SafeRcNtNtB4_4cont11ExcQuitContE3newB4_
FNDA:4482304,_RNvMNtCsipbLpstqwUV_8tycho_vm6safercINtB2_6SafeRcNtNtB4_4cont7OrdContE3newB4_
FNDA:3,_RNvMNtCsipbLpstqwUV_8tycho_vm6safercINtB2_6SafeRcNtNtB4_4cont8QuitContE3newB4_
FNDA:6697287,_RNvMNtCsipbLpstqwUV_8tycho_vm6safercINtB2_6SafeRcNtNtB4_5stack5StackE3newB4_
FNDA:645183,_RNvMNtCsipbLpstqwUV_8tycho_vm6safercINtB2_6SafeRcNtNtCslhaYGTY3Pkx_10num_bigint6bigint6BigIntE3newB4_
FNDA:1092,_RNvMNtCsipbLpstqwUV_8tycho_vm6safercINtB2_6SafeRcNtNtNtNtCsdL4DZEAGarf_15everscale_types4cell9cell_impl2rc4CellE3newB4_
FNDA:803083,_RNvMs0_NtCsipbLpstqwUV_8tycho_vm6safercINtB5_6SafeRcNtNtB7_4util14OwnedCellSliceE15unwrap_or_cloneB7_
FNDA:29321,_RNvMs0_NtCsipbLpstqwUV_8tycho_vm6safercINtB5_6SafeRcNtNtB7_5stack5StackE15unwrap_or_cloneB7_
FNDA:72599,_RNvMs0_NtCsipbLpstqwUV_8tycho_vm6safercINtB5_6SafeRcNtNtCslhaYGTY3Pkx_10num_bigint6bigint6BigIntE15unwrap_or_cloneB7_
FNDA:150424,_RNvMs0_NtCsipbLpstqwUV_8tycho_vm6safercINtB5_6SafeRcNtNtNtCsdL4DZEAGarf_15everscale_types4cell7builder11CellBuilderE15unwrap_or_cloneB7_
FNDA:274012,_RNvMs0_NtCsipbLpstqwUV_8tycho_vm6safercINtB5_6SafeRcNtNtNtNtCsdL4DZEAGarf_15everscale_types4cell9cell_impl2rc4CellE15unwrap_or_cloneB7_
FNDA:63582915,_RNvMs_NtCsipbLpstqwUV_8tycho_vm6safercINtB4_6SafeRcDNtNtB6_4cont4ContEL_E10into_innerB6_
FNDA:1532588,_RNvMs_NtCsipbLpstqwUV_8tycho_vm6safercINtB4_6SafeRcDNtNtB6_4cont4ContEL_E6ptr_eqB6_
FNDA:25027633,_RNvMs_NtCsipbLpstqwUV_8tycho_vm6safercINtB4_6SafeRcDNtNtB6_4cont4ContEL_E7get_mutB6_
FNDA:100195193,_RNvMs_NtCsipbLpstqwUV_8tycho_vm6safercINtB4_6SafeRcDNtNtB6_5stack10StackValueEL_E10into_innerB6_
FNDA:1414399,_RNvMs_NtCsipbLpstqwUV_8tycho_vm6safercINtB4_6SafeRcINtNtCs8f1B5igIjLM_5alloc3vec3VecIBB_DNtNtB6_5stack10StackValueEL_EEE10into_innerB6_
FNDA:33450,_RNvMs_NtCsipbLpstqwUV_8tycho_vm6safercINtB4_6SafeRcINtNtCs8f1B5igIjLM_5alloc3vec3VecIBB_DNtNtB6_5stack10StackValueEL_EEE6ptr_eqB6_
FNDA:815459,_RNvMs_NtCsipbLpstqwUV_8tycho_vm6safercINtB4_6SafeRcNtNtB6_4cont11ExcQuitContE10into_innerB6_
FNDA:4482304,_RNvMs_NtCsipbLpstqwUV_8tycho_vm6safercINtB4_6SafeRcNtNtB6_4cont7OrdContE10into_innerB6_
FNDA:23973183,_RNvMs_NtCsipbLpstqwUV_8tycho_vm6safercINtB4_6SafeRcNtNtB6_4cont8QuitContE10into_innerB6_
FNDA:1326447,_RNvMs_NtCsipbLpstqwUV_8tycho_vm6safercINtB4_6SafeRcNtNtB6_4util14OwnedCellSliceE10into_innerB6_
FNDA:29321,_RNvMs_NtCsipbLpstqwUV_8tycho_vm6safercINtB4_6SafeRcNtNtB6_5stack5StackE10into_innerB6_
FNDA:9799212,_RNvMs_NtCsipbLpstqwUV_8tycho_vm6safercINtB4_6SafeRcNtNtCslhaYGTY3Pkx_10num_bigint6bigint6BigIntE10into_innerB6_
FNDA:1371387,_RNvMs_NtCsipbLpstqwUV_8tycho_vm6safercINtB4_6SafeRcNtNtCslhaYGTY3Pkx_10num_bigint6bigint6BigIntE7get_mutB6_
FNDA:693493,_RNvMs_NtCsipbLpstqwUV_8tycho_vm6safercINtB4_6SafeRcNtNtNtCsdL4DZEAGarf_15everscale_types4cell7builder11CellBuilderE10into_innerB6_
FNDA:324267,_RNvMs_NtCsipbLpstqwUV_8tycho_vm6safercINtB4_6SafeRcNtNtNtNtCsdL4DZEAGarf_15everscale_types4cell9cell_impl2rc4CellE10into_innerB6_
FNDA:1871398,_RNvMsf_NtCsipbLpstqwUV_8tycho_vm6safercINtB5_6SafeRcDNtNtB7_4cont4ContEL_E8make_mutB7_
FNDA:1131719,_RNvMsf_NtCsipbLpstqwUV_8tycho_vm6safercINtB5_6SafeRcINtNtCs8f1B5igIjLM_5alloc3vec3VecIBC_DNtNtB7_5stack10StackValueEL_EEE8make_mutB7_
FNDA:378445,_RNvMsf_NtCsipbLpstqwUV_8tycho_vm6safercINtB5_6SafeRcNtNtB7_4util14OwnedCellSliceE8make_mutB7_
FNDA:181867045,_RNvMsf_NtCsipbLpstqwUV_8tycho_vm6safercINtB5_6SafeRcNtNtB7_5stack5StackE8make_mutB7_
FNDA:7670412,_RNvMsf_NtCsipbLpstqwUV_8tycho_vm6safercINtB5_6SafeRcNtNtCslhaYGTY3Pkx_10num_bigint6bigint6BigIntE8make_mutB7_
FNDA:508616,_RNvMsf_NtCsipbLpstqwUV_8tycho_vm6safercINtB5_6SafeRcNtNtNtCsdL4DZEAGarf_15everscale_types4cell7builder11CellBuilderE8make_mutB7_
FNDA:78594888,_RNvMsi_NtCsipbLpstqwUV_8tycho_vm6safercNtB5_11SafeDeleter6retire
FNDA:0,_RNvXs1_NtCsipbLpstqwUV_8tycho_vm6safercINtB5_6SafeRcINtNtCs8f1B5igIjLM_5alloc3vec3VecIBC_DNtNtB7_5stack10StackValueEL_EEENtNtCscHntIWw2aYb_4core7default7Default7defaultB7_
FNDA:47097,_RNvXs1_NtCsipbLpstqwUV_8tycho_vm6safercINtB5_6SafeRcNtNtB7_5stack5StackENtNtCscHntIWw2aYb_4core7default7Default7defaultB7_
FNDA:53004872,_RNvXs2_NtCsipbLpstqwUV_8tycho_vm6safercINtB5_6SafeRcDNtNtB7_4cont4ContEL_ENtNtCscHntIWw2aYb_4core5clone5Clone5cloneB7_
FNDA:182009275,_RNvXs2_NtCsipbLpstqwUV_8tycho_vm6safercINtB5_6SafeRcDNtNtB7_5stack10StackValueEL_ENtNtCscHntIWw2aYb_4core5clone5Clone5cloneB7_
FNDA:221238,_RNvXs2_NtCsipbLpstqwUV_8tycho_vm6safercINtB5_6SafeRcINtNtCs8f1B5igIjLM_5alloc3vec3VecIBC_DNtNtB7_5stack10StackValueEL_EEENtNtCscHntIWw2aYb_4core5clone5Clone5cloneB7_
FNDA:815459,_RNvXs2_NtCsipbLpstqwUV_8tycho_vm6safercINtB5_6SafeRcNtNtB7_4cont11ExcQuitContENtNtCscHntIWw2aYb_4core5clone5Clone5cloneB7_
FNDA:25604101,_RNvXs2_NtCsipbLpstqwUV_8tycho_vm6safercINtB5_6SafeRcNtNtB7_4cont8QuitContENtNtCscHntIWw2aYb_4core5clone5Clone5cloneB7_
FNDA:30772115,_RNvXs2_NtCsipbLpstqwUV_8tycho_vm6safercINtB5_6SafeRcNtNtB7_5stack5StackENtNtCscHntIWw2aYb_4core5clone5Clone5cloneB7_
FNDA:91037,_RNvXs3_NtCsipbLpstqwUV_8tycho_vm6safercINtB5_6SafeRcNtNtCslhaYGTY3Pkx_10num_bigint6bigint6BigIntENtNtCscHntIWw2aYb_4core3fmt7Display3fmtB7_
FNDA:0,_RNvXs4_NtCsipbLpstqwUV_8tycho_vm6safercINtB5_6SafeRcDNtNtB7_4cont4ContEL_ENtNtCscHntIWw2aYb_4core3fmt5Debug3fmtB7_
FNDA:0,_RNvXs4_NtCsipbLpstqwUV_8tycho_vm6safercINtB5_6SafeRcDNtNtB7_5stack10StackValueEL_ENtNtCscHntIWw2aYb_4core3fmt5Debug3fmtB7_
FNDA:0,_RNvXs4_NtCsipbLpstqwUV_8tycho_vm6safercINtB5_6SafeRcINtNtCs8f1B5igIjLM_5alloc3vec3VecIBC_DNtNtB7_5stack10StackValueEL_EEENtNtCscHntIWw2aYb_4core3fmt5Debug3fmtB7_
FNDA:0,_RNvXs4_NtCsipbLpstqwUV_8tycho_vm6safercINtB5_6SafeRcNtNtB7_5stack5StackENtNtCscHntIWw2aYb_4core3fmt5Debug3fmtB7_
FNDA:804987,_RNvXs7_NtCsipbLpstqwUV_8tycho_vm6safercINtB5_6SafeRcNtNtCslhaYGTY3Pkx_10num_bigint6bigint6BigIntENtNtCscHntIWw2aYb_4core3cmp3Ord3cmpB7_
FNDA:78314,_RNvXs8_NtCsipbLpstqwUV_8tycho_vm6safercINtB5_6SafeRcNtNtCslhaYGTY3Pkx_10num_bigint6bigint6BigIntENtNtCscHntIWw2aYb_4core3cmp10PartialOrd11partial_cmpB7_
FNDA:54921703,_RNvXs9_NtCsipbLpstqwUV_8tycho_vm6safercINtB5_6SafeRcDNtNtB7_4cont4ContEL_ENtNtNtCscHntIWw2aYb_4core3ops4drop4Drop4dropB7_
FNDA:206400702,_RNvXs9_NtCsipbLpstqwUV_8tycho_vm6safercINtB5_6SafeRcDNtNtB7_5stack10StackValueEL_ENtNtNtCscHntIWw2aYb_4core3ops4drop4Drop4dropB7_
FNDA:1222810,_RNvXs9_NtCsipbLpstqwUV_8tycho_vm6safercINtB5_6SafeRcINtNtCs8f1B5igIjLM_5alloc3vec3VecIBC_DNtNtB7_5stack10StackValueEL_EEENtNtNtCscHntIWw2aYb_4core3ops4drop4Drop4dropB7_
FNDA:1,_RNvXs9_NtCsipbLpstqwUV_8tycho_vm6safercINtB5_6SafeRcNtNtB7_4cont11ExcQuitContENtNtNtCscHntIWw2aYb_4core3ops4drop4Drop4dropB7_
FNDA:0,_RNvXs9_NtCsipbLpstqwUV_8tycho_vm6safercINtB5_6SafeRcNtNtB7_4cont7OrdContENtNtNtCscHntIWw2aYb_4core3ops4drop4Drop4dropB7_
FNDA:1536727,_RNvXs9_NtCsipbLpstqwUV_8tycho_vm6safercINtB5_6SafeRcNtNtB7_4cont8QuitContENtNtNtCscHntIWw2aYb_4core3ops4drop4Drop4dropB7_
FNDA:1030459,_RNvXs9_NtCsipbLpstqwUV_8tycho_vm6safercINtB5_6SafeRcNtNtB7_4util14OwnedCellSliceENtNtNtCscHntIWw2aYb_4core3ops4drop4Drop4dropB7_
FNDA:37487178,_RNvXs9_NtCsipbLpstqwUV_8tycho_vm6safercINtB5_6SafeRcNtNtB7_5stack5StackENtNtNtCscHntIWw2aYb_4core3ops4drop4Drop4dropB7_
FNDA:22096539,_RNvXs9_NtCsipbLpstqwUV_8tycho_vm6safercINtB5_6SafeRcNtNtCslhaYGTY3Pkx_10num_bigint6bigint6BigIntENtNtNtCscHntIWw2aYb_4core3ops4drop4Drop4dropB7_
FNDA:300225,_RNvXs9_NtCsipbLpstqwUV_8tycho_vm6safercINtB5_6SafeRcNtNtNtCsdL4DZEAGarf_15everscale_types4cell7builder11CellBuilderENtNtNtCscHntIWw2aYb_4core3ops4drop4Drop4dropB7_
FNDA:548491,_RNvXs9_NtCsipbLpstqwUV_8tycho_vm6safercINtB5_6SafeRcNtNtNtNtCsdL4DZEAGarf_15everscale_types4cell9cell_impl2rc4CellENtNtNtCscHntIWw2aYb_4core3ops4drop4Drop4dropB7_
FNDA:135099488,_RNvXsa_NtCsipbLpstqwUV_8tycho_vm6safercINtB5_6SafeRcDNtNtB7_4cont4ContEL_ENtNtNtCscHntIWw2aYb_4core3ops5deref5Deref5derefB7_
FNDA:40137088,_RNvXsa_NtCsipbLpstqwUV_8tycho_vm6safercINtB5_6SafeRcDNtNtB7_5stack10StackValueEL_ENtNtNtCscHntIWw2aYb_4core3ops5deref5Deref5derefB7_
FNDA:3314408,_RNvXsa_NtCsipbLpstqwUV_8tycho_vm6safercINtB5_6SafeRcINtNtCs8f1B5igIjLM_5alloc3vec3VecIBC_DNtNtB7_5stack10StackValueEL_EEENtNtNtCscHntIWw2aYb_4core3ops5deref5Deref5derefB7_
FNDA:2033169,_RNvXsa_NtCsipbLpstqwUV_8tycho_vm6safercINtB5_6SafeRcNtNtB7_4util14OwnedCellSliceENtNtNtCscHntIWw2aYb_4core3ops5deref5Deref5derefB7_
FNDA:53132127,_RNvXsa_NtCsipbLpstqwUV_8tycho_vm6safercINtB5_6SafeRcNtNtB7_5stack5StackENtNtNtCscHntIWw2aYb_4core3ops5deref5Deref5derefB7_
FNDA:27997109,_RNvXsa_NtCsipbLpstqwUV_8tycho_vm6safercINtB5_6SafeRcNtNtCslhaYGTY3Pkx_10num_bigint6bigint6BigIntENtNtNtCscHntIWw2aYb_4core3ops5deref5Deref5derefB7_
FNDA:748522,_RNvXsa_NtCsipbLpstqwUV_8tycho_vm6safercINtB5_6SafeRcNtNtNtCsdL4DZEAGarf_15everscale_types4cell7builder11CellBuilderENtNtNtCscHntIWw2aYb_4core3ops5deref5Deref5derefB7_
FNDA:496874,_RNvXsa_NtCsipbLpstqwUV_8tycho_vm6safercINtB5_6SafeRcNtNtNtNtCsdL4DZEAGarf_15everscale_types4cell9cell_impl2rc4CellENtNtNtCscHntIWw2aYb_4core3ops5deref5Deref5derefB7_
FNDA:318329,_RNvXsb_NtCsipbLpstqwUV_8tycho_vm6safercINtB5_6SafeRcDNtNtB7_5stack10StackValueEL_EINtNtCscHntIWw2aYb_4core7convert5AsRefBO_E6as_refB7_
FNDA:0,_RNvXsb_NtCsipbLpstqwUV_8tycho_vm6safercINtB5_6SafeRcINtNtCs8f1B5igIjLM_5alloc3vec3VecIBC_DNtNtB7_5stack10StackValueEL_EEEINtNtCscHntIWw2aYb_4core7convert5AsRefBO_E6as_refB7_
FNDA:3545884,_RNvXsb_NtCsipbLpstqwUV_8tycho_vm6safercINtB5_6SafeRcNtNtCslhaYGTY3Pkx_10num_bigint6bigint6BigIntEINtNtCscHntIWw2aYb_4core7convert5AsRefBO_E6as_refB7_
FNDA:6191515,_RNvXsc_NtCsipbLpstqwUV_8tycho_vm6safercINtB5_6SafeRcDNtNtB7_4cont4ContEL_EINtNtCscHntIWw2aYb_4core7convert4FromINtNtCs8f1B5igIjLM_5alloc2rc2RcBO_EE4fromB7_
FNDA:934094,_RNvXsc_NtCsipbLpstqwUV_8tycho_vm6safercINtB5_6SafeRcINtNtCs8f1B5igIjLM_5alloc3vec3VecIBC_DNtNtB7_5stack10StackValueEL_EEEINtNtCscHntIWw2aYb_4core7convert4FromINtNtBT_2rc2RcBO_EE4fromB7_
FNDA:2356906,_RNvXsc_NtCsipbLpstqwUV_8tycho_vm6safercINtB5_6SafeRcNtNtB7_4util14OwnedCellSliceEINtNtCscHntIWw2aYb_4core7convert4FromINtNtCs8f1B5igIjLM_5alloc2rc2RcBO_EE4fromB7_
FNDA:31250568,_RNvXsc_NtCsipbLpstqwUV_8tycho_vm6safercINtB5_6SafeRcNtNtCslhaYGTY3Pkx_10num_bigint6bigint6BigIntEINtNtCscHntIWw2aYb_4core7convert4FromINtNtCs8f1B5igIjLM_5alloc2rc2RcBO_EE4fromB7_
FNDA:993718,_RNvXsc_NtCsipbLpstqwUV_8tycho_vm6safercINtB5_6SafeRcNtNtNtCsdL4DZEAGarf_15everscale_types4cell7builder11CellBuilderEINtNtCscHntIWw2aYb_4core7convert4FromINtNtCs8f1B5igIjLM_5alloc2rc2RcBO_EE4fromB7_
FNDA:871666,_RNvXsc_NtCsipbLpstqwUV_8tycho_vm6safercINtB5_6SafeRcNtNtNtNtCsdL4DZEAGarf_15everscale_types4cell9cell_impl2rc4CellEINtNtCscHntIWw2aYb_4core7convert4FromINtNtCs8f1B5igIjLM_5alloc2rc2RcBO_EE4fromB7_
FNDA:0,_RNvXsg_NtCsipbLpstqwUV_8tycho_vm6safercINtB5_6SafeRcNtNtB7_5stack5StackENtNtNtCsdL4DZEAGarf_15everscale_types4cell5slice4Load9load_fromB7_
FNDA:0,_RNvXsh_NtCsipbLpstqwUV_8tycho_vm6safercINtB5_6SafeRcDNtNtB7_4cont4ContEL_ENtNtNtCsdL4DZEAGarf_15everscale_types4cell7builder5Store10store_intoB7_
FNDA:0,_RNvXININtCsipbLpstqwUV_8tycho_vm6safercs6_0pEINtB5_6SafeRcpENtNtCscHntIWw2aYb_4core3cmp9PartialEq2eqB7_
FNDA:0,_RNvXININtCsipbLpstqwUV_8tycho_vm6safercsd_0pEINtB5_6SafeRcpEINtNtCscHntIWw2aYb_4core7convert4FrompE4fromB7_
FNDA:0,_RNvXININtCsipbLpstqwUV_8tycho_vm6safercse_0pEINtB5_6SafeRcpENtCs2k73FkEQrbY_9arbitrary9Arbitrary13try_size_hintB7_
FNDA:0,_RNvXININtCsipbLpstqwUV_8tycho_vm6safercse_0pEINtB5_6SafeRcpENtCs2k73FkEQrbY_9arbitrary9Arbitrary9arbitraryB7_
FNDA:0,_RNvXININtCsipbLpstqwUV_8tycho_vm6safercse_0pEINtB5_6SafeRcpENtCs2k73FkEQrbY_9arbitrary9Arbitrary9size_hintB7_
FNF:26
FNH:19
DA:23,13349592
DA:24,13349592
DA:25,13349592
DA:28,134507
DA:29,134507
DA:30,35062
DA:31,99445
DA:33,134507
DA:38,206636193
DA:39,206636193
DA:40,206636193
DA:41,206636193
DA:42,206636193
DA:43,206636193
DA:44,206636193
DA:45,206636193
DA:48,26399020
DA:49,26399020
DA:50,26399020
DA:53,1566038
DA:54,1566038
DA:55,1566038
DA:60,1329439
DA:61,1329439
DA:62,1329439
DA:68,47097
DA:69,47097
DA:70,47097
DA:75,292427060
DA:76,292427060
DA:77,292427060
DA:82,91037
DA:83,91037
DA:84,91037
DA:89,0
DA:90,0
DA:91,0
DA:98,0
DA:99,0
DA:100,0
DA:105,804987
DA:106,804987
DA:107,804987
DA:111,78314
DA:112,78314
DA:113,78314
DA:117,330420607
DA:118,330420607
DA:119,330420607
DA:120,330420607
DA:121,330420607
DA:122,330420607
DA:123,330420607
DA:124,330420607
DA:125,330420607
DA:126,330420607
DA:127,330420607
DA:128,330420607
DA:129,330420607
DA:130,330420607
DA:131,330420607
DA:132,330420607
DA:133,330420607
DA:134,330420607
DA:135,330420607
DA:136,330420607
DA:137,330420607
DA:138,330420607
DA:139,78594888
DA:140,251825719
DA:141,330420607
DA:148,262958785
DA:149,262958785
DA:150,262958785
DA:155,3864213
DA:156,3864213
DA:157,3864213
DA:162,42598467
DA:163,42598467
DA:164,42598467
DA:169,47097
DA:170,47097
DA:171,47097
DA:177,0
DA:178,0
DA:179,0
DA:182,0
DA:183,0
DA:184,0
DA:187,0
DA:188,0
DA:189,0
DA:190,0
DA:191,0
DA:203,193427635
DA:204,193427635
DA:205,193427635
DA:212,0
DA:213,0
DA:214,0
DA:215,0
DA:220,0
DA:221,0
DA:222,0
DA:233,78594888
DA:234,78594888
DA:235,78594888
DA:236,78594888
DA:237,78594888
DA:238,78594888
DA:239,78594888
DA:240,78594888
DA:241,78594888
DA:242,78594888
DA:243,78594888
DA:244,78594888
DA:245,78594888
DA:246,78594888
DA:247,78594888
DA:248,78594888
DA:249,78594888
DA:250,78594888
DA:252,46987670
DA:253,46987670
DA:254,31607218
DA:255,31607218
DA:256,31607218
DA:257,31607218
DA:258,31607218
DA:259,31607218
DA:260,31607218
DA:261,31607218
DA:266,78594888
DA:267,78594888
DA:268,46987670
DA:269,46987670
DA:270,46987670
DA:271,46987670
DA:272,46987670
DA:273,46987670
DA:274,31607218
DA:275,31607218
DA:276,31607218
DA:277,31607218
DA:278,31607218
DA:279,31607218
DA:280,78594888
DA:281,78594888
DA:285,0
DA:287,78594888
BRF:0
BRH:0
LF:152
LH:127
end_of_record
SF:/home/odm3n/dev/work/everscale-vm/vm/src/smc_info.rs
FN:565,_RNvXsf_NtCsipbLpstqwUV_8tycho_vm8smc_infoNtB5_13CustomSmcInfoNtB5_7SmcInfo7version
FN:30,_RINvMNtCsipbLpstqwUV_8tycho_vm8smc_infoNtB3_9VmVersion11require_tonINtNtNtCscHntIWw2aYb_4core3ops5range9RangeFrommEEB5_
FN:26,_RINvMNtCsipbLpstqwUV_8tycho_vm8smc_infoNtB3_9VmVersion6is_tonINtNtNtCscHntIWw2aYb_4core3ops5range7RangeTomEEB5_
FN:26,_RINvMNtCsipbLpstqwUV_8tycho_vm8smc_infoNtB3_9VmVersion6is_tonINtNtNtCscHntIWw2aYb_4core3ops5range9RangeFrommEEB5_
FN:529,_RINvMsc_NtCsipbLpstqwUV_8tycho_vm8smc_infoNtB6_14UnpackedConfig13slice_or_nullNtNtNtNtCsdL4DZEAGarf_15everscale_types4cell9cell_impl2rc4CellEB8_
FN:529,_RINvMsc_NtCsipbLpstqwUV_8tycho_vm8smc_infoNtB6_14UnpackedConfig13slice_or_nullTNtNtNtCsdL4DZEAGarf_15everscale_types4cell5slice14CellSliceRangeNtNtNtB1j_9cell_impl2rc4CellEEB8_
FN:227,_RNCNvMs4_NtCsipbLpstqwUV_8tycho_vm8smc_infoNtB7_11SmcInfoBase11write_items0B9_
FN:358,_RNCNvMs8_NtCsipbLpstqwUV_8tycho_vm8smc_infoNtB7_12SmcInfoTonV613unpack_config0B9_
FN:385,_RNCNvMs8_NtCsipbLpstqwUV_8tycho_vm8smc_infoNtB7_12SmcInfoTonV621unpack_config_partial0B9_
FN:183,_RNvMs4_NtCsipbLpstqwUV_8tycho_vm8smc_infoNtB5_11SmcInfoBase11with_config
FN:198,_RNvMs4_NtCsipbLpstqwUV_8tycho_vm8smc_infoNtB5_11SmcInfoBase11write_items
FN:178,_RNvMs4_NtCsipbLpstqwUV_8tycho_vm8smc_infoNtB5_11SmcInfoBase17with_account_addr
FN:173,_RNvMs4_NtCsipbLpstqwUV_8tycho_vm8smc_infoNtB5_11SmcInfoBase20with_account_balance
FN:161,_RNvMs4_NtCsipbLpstqwUV_8tycho_vm8smc_infoNtB5_11SmcInfoBase20with_mixed_rand_seed
FN:299,_RNvMs6_NtCsipbLpstqwUV_8tycho_vm8smc_infoNtB5_12SmcInfoTonV411write_items
FN:276,_RNvMs6_NtCsipbLpstqwUV_8tycho_vm8smc_infoNtB5_12SmcInfoTonV420with_message_balance
FN:286,_RNvMs6_NtCsipbLpstqwUV_8tycho_vm8smc_infoNtB5_12SmcInfoTonV421with_prev_blocks_info
FN:271,_RNvMs6_NtCsipbLpstqwUV_8tycho_vm8smc_infoNtB5_12SmcInfoTonV49with_code
FN:438,_RNvMs8_NtCsipbLpstqwUV_8tycho_vm8smc_infoNtB5_12SmcInfoTonV611write_items
FN:354,_RNvMs8_NtCsipbLpstqwUV_8tycho_vm8smc_infoNtB5_12SmcInfoTonV613unpack_config
FN:398,_RNvMs8_NtCsipbLpstqwUV_8tycho_vm8smc_infoNtB5_12SmcInfoTonV619find_storage_prices
FN:421,_RNvMs8_NtCsipbLpstqwUV_8tycho_vm8smc_infoNtB5_12SmcInfoTonV620fill_unpacked_config
FN:416,_RNvMs8_NtCsipbLpstqwUV_8tycho_vm8smc_infoNtB5_12SmcInfoTonV620with_unpacked_config
FN:381,_RNvMs8_NtCsipbLpstqwUV_8tycho_vm8smc_infoNtB5_12SmcInfoTonV621unpack_config_partial
FN:479,_RNvMsa_NtCsipbLpstqwUV_8tycho_vm8smc_infoNtB5_12SmcInfoTonV911write_items
FN:513,_RNvMsc_NtCsipbLpstqwUV_8tycho_vm8smc_infoNtB5_14UnpackedConfig10into_tuple
FN:525,_RNvMsc_NtCsipbLpstqwUV_8tycho_vm8smc_infoNtB5_14UnpackedConfig8as_tuple
FN:574,_RNvNtCsipbLpstqwUV_8tycho_vm8smc_info16balance_as_tuple
FN:241,_RNvXs5_NtCsipbLpstqwUV_8tycho_vm8smc_infoNtB5_11SmcInfoBaseNtB5_7SmcInfo8build_c7
FN:328,_RNvXs7_NtCsipbLpstqwUV_8tycho_vm8smc_infoNtB5_12SmcInfoTonV4NtB5_7SmcInfo8build_c7
FN:460,_RNvXs9_NtCsipbLpstqwUV_8tycho_vm8smc_infoNtB5_12SmcInfoTonV6NtB5_7SmcInfo8build_c7
FN:490,_RNvXsb_NtCsipbLpstqwUV_8tycho_vm8smc_infoNtB5_12SmcInfoTonV9NtB5_7SmcInfo8build_c7
FN:546,_RNvXsd_NtCsipbLpstqwUV_8tycho_vm8smc_infoNtNtNtNtCsdL4DZEAGarf_15everscale_types4cell9cell_impl2rc4CellNtB5_18IntoSliceUnchecked20into_slice_unchecked
FN:553,_RNvXse_NtCsipbLpstqwUV_8tycho_vm8smc_infoTNtNtNtCsdL4DZEAGarf_15everscale_types4cell5slice14CellSliceRangeNtNtNtBI_9cell_impl2rc4CellENtB5_18IntoSliceUnchecked20into_slice_unchecked
FN:569,_RNvXsf_NtCsipbLpstqwUV_8tycho_vm8smc_infoNtB5_13CustomSmcInfoNtB5_7SmcInfo8build_c7
FN:151,_RNvMs4_NtCsipbLpstqwUV_8tycho_vm8smc_infoNtB5_11SmcInfoBase10with_tx_lt
FN:146,_RNvMs4_NtCsipbLpstqwUV_8tycho_vm8smc_infoNtB5_11SmcInfoBase13with_block_lt
FN:188,_RNvMs4_NtCsipbLpstqwUV_8tycho_vm8smc_infoNtB5_11SmcInfoBase14require_ton_v4
FN:156,_RNvMs4_NtCsipbLpstqwUV_8tycho_vm8smc_infoNtB5_11SmcInfoBase18with_raw_rand_seed
FN:137,_RNvMs4_NtCsipbLpstqwUV_8tycho_vm8smc_infoNtB5_11SmcInfoBase3new
FN:141,_RNvMs4_NtCsipbLpstqwUV_8tycho_vm8smc_infoNtB5_11SmcInfoBase8with_now
FN:291,_RNvMs6_NtCsipbLpstqwUV_8tycho_vm8smc_infoNtB5_12SmcInfoTonV414require_ton_v6
FN:281,_RNvMs6_NtCsipbLpstqwUV_8tycho_vm8smc_infoNtB5_12SmcInfoTonV417with_storage_fees
FN:434,_RNvMs8_NtCsipbLpstqwUV_8tycho_vm8smc_infoNtB5_12SmcInfoTonV614require_ton_v9
FN:429,_RNvMs8_NtCsipbLpstqwUV_8tycho_vm8smc_infoNtB5_12SmcInfoTonV616with_due_payment
FN:57,_RNvXININtCsipbLpstqwUV_8tycho_vm8smc_infos0_0pEINtNtCs8f1B5igIjLM_5alloc5boxed3BoxpENtB5_7SmcInfo7versionB7_
FN:62,_RNvXININtCsipbLpstqwUV_8tycho_vm8smc_infos0_0pEINtNtCs8f1B5igIjLM_5alloc5boxed3BoxpENtB5_7SmcInfo8build_c7B7_
FN:69,_RNvXININtCsipbLpstqwUV_8tycho_vm8smc_infos1_0pEINtNtCs8f1B5igIjLM_5alloc2rc2RcpENtB5_7SmcInfo7versionB7_
FN:74,_RNvXININtCsipbLpstqwUV_8tycho_vm8smc_infos1_0pEINtNtCs8f1B5igIjLM_5alloc2rc2RcpENtB5_7SmcInfo8build_c7B7_
FN:81,_RNvXININtCsipbLpstqwUV_8tycho_vm8smc_infos2_0pEINtNtCs8f1B5igIjLM_5alloc4sync3ArcpENtB5_7SmcInfo7versionB7_
FN:86,_RNvXININtCsipbLpstqwUV_8tycho_vm8smc_infos2_0pEINtNtCs8f1B5igIjLM_5alloc4sync3ArcpENtB5_7SmcInfo8build_c7B7_
FN:93,_RNvXININtCsipbLpstqwUV_8tycho_vm8smc_infos3_0pEINtNtB7_6saferc6SafeRcpENtB5_7SmcInfo7versionB7_
FN:98,_RNvXININtCsipbLpstqwUV_8tycho_vm8smc_infos3_0pEINtNtB7_6saferc6SafeRcpENtB5_7SmcInfo8build_c7B7_
FN:45,_RNvXININtCsipbLpstqwUV_8tycho_vm8smc_infos_0pERpNtB5_7SmcInfo7versionB7_
FN:50,_RNvXININtCsipbLpstqwUV_8tycho_vm8smc_infos_0pERpNtB5_7SmcInfo8build_c7B7_
FN:237,_RNvXs5_NtCsipbLpstqwUV_8tycho_vm8smc_infoNtB5_11SmcInfoBaseNtB5_7SmcInfo7version
FN:324,_RNvXs7_NtCsipbLpstqwUV_8tycho_vm8smc_infoNtB5_12SmcInfoTonV4NtB5_7SmcInfo7version
FN:456,_RNvXs9_NtCsipbLpstqwUV_8tycho_vm8smc_infoNtB5_12SmcInfoTonV6NtB5_7SmcInfo7version
FN:486,_RNvXsb_NtCsipbLpstqwUV_8tycho_vm8smc_infoNtB5_12SmcInfoTonV9NtB5_7SmcInfo7version
FNDA:47097,_RNvXsf_NtCsipbLpstqwUV_8tycho_vm8smc_infoNtB5_13CustomSmcInfoNtB5_7SmcInfo7version
FNDA:532555,_RINvMNtCsipbLpstqwUV_8tycho_vm8smc_infoNtB3_9VmVersion11require_tonINtNtNtCscHntIWw2aYb_4core3ops5range9RangeFrommEEB5_
FNDA:13521,_RINvMNtCsipbLpstqwUV_8tycho_vm8smc_infoNtB3_9VmVersion6is_tonINtNtNtCscHntIWw2aYb_4core3ops5range7RangeTomEEB5_
FNDA:2856382,_RINvMNtCsipbLpstqwUV_8tycho_vm8smc_infoNtB3_9VmVersion6is_tonINtNtNtCscHntIWw2aYb_4core3ops5range9RangeFrommEEB5_
FNDA:0,_RINvMsc_NtCsipbLpstqwUV_8tycho_vm8smc_infoNtB6_14UnpackedConfig13slice_or_nullNtNtNtNtCsdL4DZEAGarf_15everscale_types4cell9cell_impl2rc4CellEB8_
FNDA:0,_RINvMsc_NtCsipbLpstqwUV_8tycho_vm8smc_infoNtB6_14UnpackedConfig13slice_or_nullTNtNtNtCsdL4DZEAGarf_15everscale_types4cell5slice14CellSliceRangeNtNtNtB1j_9cell_impl2rc4CellEEB8_
FNDA:0,_RNCNvMs4_NtCsipbLpstqwUV_8tycho_vm8smc_infoNtB7_11SmcInfoBase11write_items0B9_
FNDA:0,_RNCNvMs8_NtCsipbLpstqwUV_8tycho_vm8smc_infoNtB7_12SmcInfoTonV613unpack_config0B9_
FNDA:0,_RNCNvMs8_NtCsipbLpstqwUV_8tycho_vm8smc_infoNtB7_12SmcInfoTonV621unpack_config_partial0B9_
FNDA:0,_RNvMs4_NtCsipbLpstqwUV_8tycho_vm8smc_infoNtB5_11SmcInfoBase11with_config
FNDA:0,_RNvMs4_NtCsipbLpstqwUV_8tycho_vm8smc_infoNtB5_11SmcInfoBase11write_items
FNDA:0,_RNvMs4_NtCsipbLpstqwUV_8tycho_vm8smc_infoNtB5_11SmcInfoBase17with_account_addr
FNDA:0,_RNvMs4_NtCsipbLpstqwUV_8tycho_vm8smc_infoNtB5_11SmcInfoBase20with_account_balance
FNDA:0,_RNvMs4_NtCsipbLpstqwUV_8tycho_vm8smc_infoNtB5_11SmcInfoBase20with_mixed_rand_seed
FNDA:0,_RNvMs6_NtCsipbLpstqwUV_8tycho_vm8smc_infoNtB5_12SmcInfoTonV411write_items
FNDA:0,_RNvMs6_NtCsipbLpstqwUV_8tycho_vm8smc_infoNtB5_12SmcInfoTonV420with_message_balance
FNDA:0,_RNvMs6_NtCsipbLpstqwUV_8tycho_vm8smc_infoNtB5_12SmcInfoTonV421with_prev_blocks_info
FNDA:0,_RNvMs6_NtCsipbLpstqwUV_8tycho_vm8smc_infoNtB5_12SmcInfoTonV49with_code
FNDA:0,_RNvMs8_NtCsipbLpstqwUV_8tycho_vm8smc_infoNtB5_12SmcInfoTonV611write_items
FNDA:0,_RNvMs8_NtCsipbLpstqwUV_8tycho_vm8smc_infoNtB5_12SmcInfoTonV613unpack_config
FNDA:0,_RNvMs8_NtCsipbLpstqwUV_8tycho_vm8smc_infoNtB5_12SmcInfoTonV619find_storage_prices
FNDA:0,_RNvMs8_NtCsipbLpstqwUV_8tycho_vm8smc_infoNtB5_12SmcInfoTonV620fill_unpacked_config
FNDA:0,_RNvMs8_NtCsipbLpstqwUV_8tycho_vm8smc_infoNtB5_12SmcInfoTonV620with_unpacked_config
FNDA:0,_RNvMs8_NtCsipbLpstqwUV_8tycho_vm8smc_infoNtB5_12SmcInfoTonV621unpack_config_partial
FNDA:0,_RNvMsa_NtCsipbLpstqwUV_8tycho_vm8smc_infoNtB5_12SmcInfoTonV911write_items
FNDA:0,_RNvMsc_NtCsipbLpstqwUV_8tycho_vm8smc_infoNtB5_14UnpackedConfig10into_tuple
FNDA:0,_RNvMsc_NtCsipbLpstqwUV_8tycho_vm8smc_infoNtB5_14UnpackedConfig8as_tuple
FNDA:0,_RNvNtCsipbLpstqwUV_8tycho_vm8smc_info16balance_as_tuple
FNDA:0,_RNvXs5_NtCsipbLpstqwUV_8tycho_vm8smc_infoNtB5_11SmcInfoBaseNtB5_7SmcInfo8build_c7
FNDA:0,_RNvXs7_NtCsipbLpstqwUV_8tycho_vm8smc_infoNtB5_12SmcInfoTonV4NtB5_7SmcInfo8build_c7
FNDA:0,_RNvXs9_NtCsipbLpstqwUV_8tycho_vm8smc_infoNtB5_12SmcInfoTonV6NtB5_7SmcInfo8build_c7
FNDA:0,_RNvXsb_NtCsipbLpstqwUV_8tycho_vm8smc_infoNtB5_12SmcInfoTonV9NtB5_7SmcInfo8build_c7
FNDA:0,_RNvXsd_NtCsipbLpstqwUV_8tycho_vm8smc_infoNtNtNtNtCsdL4DZEAGarf_15everscale_types4cell9cell_impl2rc4CellNtB5_18IntoSliceUnchecked20into_slice_unchecked
FNDA:0,_RNvXse_NtCsipbLpstqwUV_8tycho_vm8smc_infoTNtNtNtCsdL4DZEAGarf_15everscale_types4cell5slice14CellSliceRangeNtNtNtBI_9cell_impl2rc4CellENtB5_18IntoSliceUnchecked20into_slice_unchecked
FNDA:47097,_RNvXsf_NtCsipbLpstqwUV_8tycho_vm8smc_infoNtB5_13CustomSmcInfoNtB5_7SmcInfo8build_c7
FNDA:0,_RNvMs4_NtCsipbLpstqwUV_8tycho_vm8smc_infoNtB5_11SmcInfoBase10with_tx_lt
FNDA:0,_RNvMs4_NtCsipbLpstqwUV_8tycho_vm8smc_infoNtB5_11SmcInfoBase13with_block_lt
FNDA:0,_RNvMs4_NtCsipbLpstqwUV_8tycho_vm8smc_infoNtB5_11SmcInfoBase14require_ton_v4
FNDA:0,_RNvMs4_NtCsipbLpstqwUV_8tycho_vm8smc_infoNtB5_11SmcInfoBase18with_raw_rand_seed
FNDA:0,_RNvMs4_NtCsipbLpstqwUV_8tycho_vm8smc_infoNtB5_11SmcInfoBase3new
FNDA:0,_RNvMs4_NtCsipbLpstqwUV_8tycho_vm8smc_infoNtB5_11SmcInfoBase8with_now
FNDA:0,_RNvMs6_NtCsipbLpstqwUV_8tycho_vm8smc_infoNtB5_12SmcInfoTonV414require_ton_v6
FNDA:0,_RNvMs6_NtCsipbLpstqwUV_8tycho_vm8smc_infoNtB5_12SmcInfoTonV417with_storage_fees
FNDA:0,_RNvMs8_NtCsipbLpstqwUV_8tycho_vm8smc_infoNtB5_12SmcInfoTonV614require_ton_v9
FNDA:0,_RNvMs8_NtCsipbLpstqwUV_8tycho_vm8smc_infoNtB5_12SmcInfoTonV616with_due_payment
FNDA:0,_RNvXININtCsipbLpstqwUV_8tycho_vm8smc_infos0_0pEINtNtCs8f1B5igIjLM_5alloc5boxed3BoxpENtB5_7SmcInfo7versionB7_
FNDA:0,_RNvXININtCsipbLpstqwUV_8tycho_vm8smc_infos0_0pEINtNtCs8f1B5igIjLM_5alloc5boxed3BoxpENtB5_7SmcInfo8build_c7B7_
FNDA:0,_RNvXININtCsipbLpstqwUV_8tycho_vm8smc_infos1_0pEINtNtCs8f1B5igIjLM_5alloc2rc2RcpENtB5_7SmcInfo7versionB7_
FNDA:0,_RNvXININtCsipbLpstqwUV_8tycho_vm8smc_infos1_0pEINtNtCs8f1B5igIjLM_5alloc2rc2RcpENtB5_7SmcInfo8build_c7B7_
FNDA:0,_RNvXININtCsipbLpstqwUV_8tycho_vm8smc_infos2_0pEINtNtCs8f1B5igIjLM_5alloc4sync3ArcpENtB5_7SmcInfo7versionB7_
FNDA:0,_RNvXININtCsipbLpstqwUV_8tycho_vm8smc_infos2_0pEINtNtCs8f1B5igIjLM_5alloc4sync3ArcpENtB5_7SmcInfo8build_c7B7_
FNDA:0,_RNvXININtCsipbLpstqwUV_8tycho_vm8smc_infos3_0pEINtNtB7_6saferc6SafeRcpENtB5_7SmcInfo7versionB7_
FNDA:0,_RNvXININtCsipbLpstqwUV_8tycho_vm8smc_infos3_0pEINtNtB7_6saferc6SafeRcpENtB5_7SmcInfo8build_c7B7_
FNDA:0,_RNvXININtCsipbLpstqwUV_8tycho_vm8smc_infos_0pERpNtB5_7SmcInfo7versionB7_
FNDA:0,_RNvXININtCsipbLpstqwUV_8tycho_vm8smc_infos_0pERpNtB5_7SmcInfo8build_c7B7_
FNDA:0,_RNvXs5_NtCsipbLpstqwUV_8tycho_vm8smc_infoNtB5_11SmcInfoBaseNtB5_7SmcInfo7version
FNDA:0,_RNvXs7_NtCsipbLpstqwUV_8tycho_vm8smc_infoNtB5_12SmcInfoTonV4NtB5_7SmcInfo7version
FNDA:0,_RNvXs9_NtCsipbLpstqwUV_8tycho_vm8smc_infoNtB5_12SmcInfoTonV6NtB5_7SmcInfo7version
FNDA:0,_RNvXsb_NtCsipbLpstqwUV_8tycho_vm8smc_infoNtB5_12SmcInfoTonV9NtB5_7SmcInfo7version
FNF:57
FNH:4
DA:26,2869903
DA:27,2869903
DA:28,2869903
DA:30,532555
DA:31,532555
DA:32,532555
DA:33,532555
DA:45,0
DA:46,0
DA:47,0
DA:50,0
DA:51,0
DA:52,0
DA:57,0
DA:58,0
DA:59,0
DA:62,0
DA:63,0
DA:64,0
DA:69,0
DA:70,0
DA:71,0
DA:74,0
DA:75,0
DA:76,0
DA:81,0
DA:82,0
DA:83,0
DA:86,0
DA:87,0
DA:88,0
DA:93,0
DA:94,0
DA:95,0
DA:98,0
DA:99,0
DA:100,0
DA:137,0
DA:138,0
DA:139,0
DA:141,0
DA:142,0
DA:143,0
DA:144,0
DA:146,0
DA:147,0
DA:148,0
DA:149,0
DA:151,0
DA:152,0
DA:153,0
DA:154,0
DA:156,0
DA:157,0
DA:158,0
DA:159,0
DA:161,0
DA:162,0
DA:163,0
DA:164,0
DA:165,0
DA:166,0
DA:167,0
DA:168,0
DA:169,0
DA:170,0
DA:171,0
DA:173,0
DA:174,0
DA:175,0
DA:176,0
DA:178,0
DA:179,0
DA:180,0
DA:181,0
DA:183,0
DA:184,0
DA:185,0
DA:186,0
DA:188,0
DA:189,0
DA:190,0
DA:191,0
DA:192,0
DA:193,0
DA:194,0
DA:195,0
DA:196,0
DA:198,0
DA:199,0
DA:200,0
DA:201,0
DA:202,0
DA:203,0
DA:204,0
DA:205,0
DA:206,0
DA:207,0
DA:208,0
DA:209,0
DA:210,0
DA:211,0
DA:212,0
DA:213,0
DA:214,0
DA:215,0
DA:216,0
DA:217,0
DA:218,0
DA:219,0
DA:220,0
DA:221,0
DA:222,0
DA:223,0
DA:224,0
DA:225,0
DA:226,0
DA:227,0
DA:229,0
DA:230,0
DA:233,0
DA:237,0
DA:238,0
DA:239,0
DA:241,0
DA:242,0
DA:243,0
DA:244,0
DA:245,0
DA:271,0
DA:272,0
DA:273,0
DA:274,0
DA:276,0
DA:277,0
DA:278,0
DA:279,0
DA:281,0
DA:282,0
DA:283,0
DA:284,0
DA:286,0
DA:287,0
DA:288,0
DA:289,0
DA:291,0
DA:292,0
DA:293,0
DA:294,0
DA:295,0
DA:296,0
DA:297,0
DA:299,0
DA:300,0
DA:301,0
DA:302,0
DA:303,0
DA:304,0
DA:305,0
DA:308,0
DA:309,0
DA:310,0
DA:311,0
DA:312,0
DA:313,0
DA:314,0
DA:315,0
DA:316,0
DA:317,0
DA:318,0
DA:320,0
DA:324,0
DA:325,0
DA:326,0
DA:328,0
DA:329,0
DA:330,0
DA:331,0
DA:332,0
DA:354,0
DA:355,0
DA:356,0
DA:357,0
DA:358,0
DA:359,0
DA:360,0
DA:362,0
DA:363,0
DA:364,0
DA:365,0
DA:367,0
DA:368,0
DA:369,0
DA:370,0
DA:372,0
DA:373,0
DA:374,0
DA:375,0
DA:376,0
DA:377,0
DA:379,0
DA:381,0
DA:382,0
DA:383,0
DA:384,0
DA:385,0
DA:388,0
DA:389,0
DA:390,0
DA:391,0
DA:392,0
DA:393,0
DA:394,0
DA:396,0
DA:398,0
DA:399,0
DA:400,0
DA:401,0
DA:402,0
DA:403,0
DA:404,0
DA:407,0
DA:408,0
DA:409,0
DA:410,0
DA:411,0
DA:413,0
DA:414,0
DA:416,0
DA:417,0
DA:418,0
DA:419,0
DA:421,0
DA:422,0
DA:423,0
DA:425,0
DA:426,0
DA:427,0
DA:429,0
DA:430,0
DA:431,0
DA:432,0
DA:434,0
DA:435,0
DA:436,0
DA:438,0
DA:439,0
DA:440,0
DA:441,0
DA:442,0
DA:443,0
DA:444,0
DA:447,0
DA:448,0
DA:449,0
DA:450,0
DA:451,0
DA:452,0
DA:456,0
DA:457,0
DA:458,0
DA:460,0
DA:461,0
DA:462,0
DA:463,0
DA:464,0
DA:479,0
DA:480,0
DA:481,0
DA:482,0
DA:486,0
DA:487,0
DA:488,0
DA:490,0
DA:491,0
DA:492,0
DA:493,0
DA:494,0
DA:513,0
DA:514,0
DA:515,0
DA:516,0
DA:517,0
DA:518,0
DA:519,0
DA:520,0
DA:521,0
DA:522,0
DA:523,0
DA:525,0
DA:526,0
DA:527,0
DA:529,0
DA:530,0
DA:531,0
DA:532,0
DA:533,0
DA:534,0
DA:535,0
DA:537,0
DA:546,0
DA:547,0
DA:548,0
DA:553,0
DA:554,0
DA:555,0
DA:565,47097
DA:566,47097
DA:567,47097
DA:569,47097
DA:570,47097
DA:571,47097
DA:574,0
DA:575,0
DA:576,0
DA:577,0
DA:578,0
DA:579,0
DA:582,0
BRF:0
BRH:0
LF:322
LH:13
end_of_record
SF:/home/odm3n/dev/work/everscale-vm/vm/src/stack.rs
FN:1381,_RINvMsr_NtCsipbLpstqwUV_8tycho_vm5stackINtNtB8_6saferc6SafeRcDNtB6_10StackValueEL_E13new_dyn_valueINtNtCs8f1B5igIjLM_5alloc3vec3VecBB_EECscQlb7znvrtA_9vm_opcode
FN:1381,_RINvMsr_NtCsipbLpstqwUV_8tycho_vm5stackINtNtB8_6saferc6SafeRcDNtB6_10StackValueEL_E13new_dyn_valueNtNtCslhaYGTY3Pkx_10num_bigint6bigint6BigIntECscQlb7znvrtA_9vm_opcode
FN:1381,_RINvMsr_NtCsipbLpstqwUV_8tycho_vm5stackINtNtB8_6saferc6SafeRcDNtB6_10StackValueEL_E13new_dyn_valueNtNtNtCsdL4DZEAGarf_15everscale_types4cell7builder11CellBuilderECscQlb7znvrtA_9vm_opcode
FN:1381,_RINvMsr_NtCsipbLpstqwUV_8tycho_vm5stackINtNtB8_6saferc6SafeRcDNtB6_10StackValueEL_E13new_dyn_valueNtNtNtNtCsdL4DZEAGarf_15everscale_types4cell9cell_impl2rc4CellECscQlb7znvrtA_9vm_opcode
FN:156,_RNvMNtCsipbLpstqwUV_8tycho_vm5stackNtB2_5Stack10with_items
FN:851,_RNvXs9_NtCsipbLpstqwUV_8tycho_vm5stackNtNtCslhaYGTY3Pkx_10num_bigint6bigint6BigIntNtB5_10StackValue11rc_into_dyn
FN:884,_RNvXs9_NtCsipbLpstqwUV_8tycho_vm5stackNtNtCslhaYGTY3Pkx_10num_bigint6bigint6BigIntNtB5_10StackValue11rc_into_int
FN:855,_RNvXs9_NtCsipbLpstqwUV_8tycho_vm5stackNtNtCslhaYGTY3Pkx_10num_bigint6bigint6BigIntNtB5_10StackValue2ty
FN:880,_RNvXs9_NtCsipbLpstqwUV_8tycho_vm5stackNtNtCslhaYGTY3Pkx_10num_bigint6bigint6BigIntNtB5_10StackValue6as_int
FN:1446,_RNvXsJ_NtCsipbLpstqwUV_8tycho_vm5stackNtNtCslhaYGTY3Pkx_10num_bigint6bigint6BigIntNtNtB7_6saferc10SafeDelete19rc_into_safe_delete
FN:1446,_RNvXsK_NtCsipbLpstqwUV_8tycho_vm5stackNtNtNtNtCsdL4DZEAGarf_15everscale_types4cell9cell_impl2rc4CellNtNtB7_6saferc10SafeDelete19rc_into_safe_delete
FN:1446,_RNvXsM_NtCsipbLpstqwUV_8tycho_vm5stackNtNtNtCsdL4DZEAGarf_15everscale_types4cell7builder11CellBuilderNtNtB7_6saferc10SafeDelete19rc_into_safe_delete
FN:1446,_RNvXsN_NtCsipbLpstqwUV_8tycho_vm5stackINtNtCs8f1B5igIjLM_5alloc3vec3VecINtNtB7_6saferc6SafeRcDNtB5_10StackValueEL_EENtB1a_10SafeDelete19rc_into_safe_delete
FN:461,_RNvXs_NtCsipbLpstqwUV_8tycho_vm5stackNtB4_5StackNtNtB6_6saferc10SafeDelete19rc_into_safe_delete
FN:922,_RNvXsc_NtCsipbLpstqwUV_8tycho_vm5stackNtNtNtNtCsdL4DZEAGarf_15everscale_types4cell9cell_impl2rc4CellNtB5_10StackValue11rc_into_dyn
FN:948,_RNvXsc_NtCsipbLpstqwUV_8tycho_vm5stackNtNtNtNtCsdL4DZEAGarf_15everscale_types4cell9cell_impl2rc4CellNtB5_10StackValue12rc_into_cell
FN:926,_RNvXsc_NtCsipbLpstqwUV_8tycho_vm5stackNtNtNtNtCsdL4DZEAGarf_15everscale_types4cell9cell_impl2rc4CellNtB5_10StackValue2ty
FN:944,_RNvXsc_NtCsipbLpstqwUV_8tycho_vm5stackNtNtNtNtCsdL4DZEAGarf_15everscale_types4cell9cell_impl2rc4CellNtB5_10StackValue7as_cell
FN:1050,_RNvXsi_NtCsipbLpstqwUV_8tycho_vm5stackNtNtNtCsdL4DZEAGarf_15everscale_types4cell7builder11CellBuilderNtB5_10StackValue11rc_into_dyn
FN:1077,_RNvXsi_NtCsipbLpstqwUV_8tycho_vm5stackNtNtNtCsdL4DZEAGarf_15everscale_types4cell7builder11CellBuilderNtB5_10StackValue15as_cell_builder
FN:1081,_RNvXsi_NtCsipbLpstqwUV_8tycho_vm5stackNtNtNtCsdL4DZEAGarf_15everscale_types4cell7builder11CellBuilderNtB5_10StackValue20rc_into_cell_builder
FN:1054,_RNvXsi_NtCsipbLpstqwUV_8tycho_vm5stackNtNtNtCsdL4DZEAGarf_15everscale_types4cell7builder11CellBuilderNtB5_10StackValue2ty
FN:1223,_RNvXso_NtCsipbLpstqwUV_8tycho_vm5stackINtNtCs8f1B5igIjLM_5alloc3vec3VecINtNtB7_6saferc6SafeRcDNtB5_10StackValueEL_EEB1u_11rc_into_dyn
FN:1288,_RNvXso_NtCsipbLpstqwUV_8tycho_vm5stackINtNtCs8f1B5igIjLM_5alloc3vec3VecINtNtB7_6saferc6SafeRcDNtB5_10StackValueEL_EEB1u_13rc_into_tuple
FN:1227,_RNvXso_NtCsipbLpstqwUV_8tycho_vm5stackINtNtCs8f1B5igIjLM_5alloc3vec3VecINtNtB7_6saferc6SafeRcDNtB5_10StackValueEL_EEB1u_2ty
FN:578,_RNvYINtNtCs8f1B5igIjLM_5alloc3vec3VecINtNtCsipbLpstqwUV_8tycho_vm6saferc6SafeRcDNtNtBE_5stack10StackValueEL_EEB1g_10try_as_intCscQlb7znvrtA_9vm_opcode
FN:585,_RNvYINtNtCs8f1B5igIjLM_5alloc3vec3VecINtNtCsipbLpstqwUV_8tycho_vm6saferc6SafeRcDNtNtBE_5stack10StackValueEL_EEB1g_11rc_into_intCscQlb7znvrtA_9vm_opcode
FN:593,_RNvYINtNtCs8f1B5igIjLM_5alloc3vec3VecINtNtCsipbLpstqwUV_8tycho_vm6saferc6SafeRcDNtNtBE_5stack10StackValueEL_EEB1g_11try_as_cellCscQlb7znvrtA_9vm_opcode
FN:638,_RNvYINtNtCs8f1B5igIjLM_5alloc3vec3VecINtNtCsipbLpstqwUV_8tycho_vm6saferc6SafeRcDNtNtBE_5stack10StackValueEL_EEB1g_11try_as_contCscQlb7znvrtA_9vm_opcode
FN:600,_RNvYINtNtCs8f1B5igIjLM_5alloc3vec3VecINtNtCsipbLpstqwUV_8tycho_vm6saferc6SafeRcDNtNtBE_5stack10StackValueEL_EEB1g_12rc_into_cellCscQlb7znvrtA_9vm_opcode
FN:645,_RNvYINtNtCs8f1B5igIjLM_5alloc3vec3VecINtNtCsipbLpstqwUV_8tycho_vm6saferc6SafeRcDNtNtBE_5stack10StackValueEL_EEB1g_12rc_into_contCscQlb7znvrtA_9vm_opcode
FN:653,_RNvYINtNtCs8f1B5igIjLM_5alloc3vec3VecINtNtCsipbLpstqwUV_8tycho_vm6saferc6SafeRcDNtNtBE_5stack10StackValueEL_EEB1g_12try_as_tupleCscQlb7znvrtA_9vm_opcode
FN:604,_RNvYINtNtCs8f1B5igIjLM_5alloc3vec3VecINtNtCsipbLpstqwUV_8tycho_vm6saferc6SafeRcDNtNtBE_5stack10StackValueEL_EEB1g_13as_cell_sliceCscQlb7znvrtA_9vm_opcode
FN:619,_RNvYINtNtCs8f1B5igIjLM_5alloc3vec3VecINtNtCsipbLpstqwUV_8tycho_vm6saferc6SafeRcDNtNtBE_5stack10StackValueEL_EEB1g_15as_cell_builderCscQlb7znvrtA_9vm_opcode
FN:608,_RNvYINtNtCs8f1B5igIjLM_5alloc3vec3VecINtNtCsipbLpstqwUV_8tycho_vm6saferc6SafeRcDNtNtBE_5stack10StackValueEL_EEB1g_17try_as_cell_sliceCscQlb7znvrtA_9vm_opcode
FN:615,_RNvYINtNtCs8f1B5igIjLM_5alloc3vec3VecINtNtCsipbLpstqwUV_8tycho_vm6saferc6SafeRcDNtNtBE_5stack10StackValueEL_EEB1g_18rc_into_cell_sliceCscQlb7znvrtA_9vm_opcode
FN:623,_RNvYINtNtCs8f1B5igIjLM_5alloc3vec3VecINtNtCsipbLpstqwUV_8tycho_vm6saferc6SafeRcDNtNtBE_5stack10StackValueEL_EEB1g_19try_as_cell_builderCscQlb7znvrtA_9vm_opcode
FN:630,_RNvYINtNtCs8f1B5igIjLM_5alloc3vec3VecINtNtCsipbLpstqwUV_8tycho_vm6saferc6SafeRcDNtNtBE_5stack10StackValueEL_EEB1g_20rc_into_cell_builderCscQlb7znvrtA_9vm_opcode
FN:574,_RNvYINtNtCs8f1B5igIjLM_5alloc3vec3VecINtNtCsipbLpstqwUV_8tycho_vm6saferc6SafeRcDNtNtBE_5stack10StackValueEL_EEB1g_6as_intCscQlb7znvrtA_9vm_opcode
FN:589,_RNvYINtNtCs8f1B5igIjLM_5alloc3vec3VecINtNtCsipbLpstqwUV_8tycho_vm6saferc6SafeRcDNtNtBE_5stack10StackValueEL_EEB1g_7as_cellCscQlb7znvrtA_9vm_opcode
FN:634,_RNvYINtNtCs8f1B5igIjLM_5alloc3vec3VecINtNtCsipbLpstqwUV_8tycho_vm6saferc6SafeRcDNtNtBE_5stack10StackValueEL_EEB1g_7as_contCscQlb7znvrtA_9vm_opcode
FN:578,_RNvYNtNtCslhaYGTY3Pkx_10num_bigint6bigint6BigIntNtNtCsipbLpstqwUV_8tycho_vm5stack10StackValue10try_as_intCscQlb7znvrtA_9vm_opcode
FN:593,_RNvYNtNtCslhaYGTY3Pkx_10num_bigint6bigint6BigIntNtNtCsipbLpstqwUV_8tycho_vm5stack10StackValue11try_as_cellCscQlb7znvrtA_9vm_opcode
FN:638,_RNvYNtNtCslhaYGTY3Pkx_10num_bigint6bigint6BigIntNtNtCsipbLpstqwUV_8tycho_vm5stack10StackValue11try_as_contCscQlb7znvrtA_9vm_opcode
FN:600,_RNvYNtNtCslhaYGTY3Pkx_10num_bigint6bigint6BigIntNtNtCsipbLpstqwUV_8tycho_vm5stack10StackValue12rc_into_cellCscQlb7znvrtA_9vm_opcode
FN:645,_RNvYNtNtCslhaYGTY3Pkx_10num_bigint6bigint6BigIntNtNtCsipbLpstqwUV_8tycho_vm5stack10StackValue12rc_into_contCscQlb7znvrtA_9vm_opcode
FN:653,_RNvYNtNtCslhaYGTY3Pkx_10num_bigint6bigint6BigIntNtNtCsipbLpstqwUV_8tycho_vm5stack10StackValue12try_as_tupleCscQlb7znvrtA_9vm_opcode
FN:604,_RNvYNtNtCslhaYGTY3Pkx_10num_bigint6bigint6BigIntNtNtCsipbLpstqwUV_8tycho_vm5stack10StackValue13as_cell_sliceCscQlb7znvrtA_9vm_opcode
FN:660,_RNvYNtNtCslhaYGTY3Pkx_10num_bigint6bigint6BigIntNtNtCsipbLpstqwUV_8tycho_vm5stack10StackValue13rc_into_tupleCscQlb7znvrtA_9vm_opcode
FN:619,_RNvYNtNtCslhaYGTY3Pkx_10num_bigint6bigint6BigIntNtNtCsipbLpstqwUV_8tycho_vm5stack10StackValue15as_cell_builderCscQlb7znvrtA_9vm_opcode
FN:608,_RNvYNtNtCslhaYGTY3Pkx_10num_bigint6bigint6BigIntNtNtCsipbLpstqwUV_8tycho_vm5stack10StackValue17try_as_cell_sliceCscQlb7znvrtA_9vm_opcode
FN:615,_RNvYNtNtCslhaYGTY3Pkx_10num_bigint6bigint6BigIntNtNtCsipbLpstqwUV_8tycho_vm5stack10StackValue18rc_into_cell_sliceCscQlb7znvrtA_9vm_opcode
FN:623,_RNvYNtNtCslhaYGTY3Pkx_10num_bigint6bigint6BigIntNtNtCsipbLpstqwUV_8tycho_vm5stack10StackValue19try_as_cell_builderCscQlb7znvrtA_9vm_opcode
FN:630,_RNvYNtNtCslhaYGTY3Pkx_10num_bigint6bigint6BigIntNtNtCsipbLpstqwUV_8tycho_vm5stack10StackValue20rc_into_cell_builderCscQlb7znvrtA_9vm_opcode
FN:589,_RNvYNtNtCslhaYGTY3Pkx_10num_bigint6bigint6BigIntNtNtCsipbLpstqwUV_8tycho_vm5stack10StackValue7as_cellCscQlb7znvrtA_9vm_opcode
FN:634,_RNvYNtNtCslhaYGTY3Pkx_10num_bigint6bigint6BigIntNtNtCsipbLpstqwUV_8tycho_vm5stack10StackValue7as_contCscQlb7znvrtA_9vm_opcode
FN:649,_RNvYNtNtCslhaYGTY3Pkx_10num_bigint6bigint6BigIntNtNtCsipbLpstqwUV_8tycho_vm5stack10StackValue8as_tupleCscQlb7znvrtA_9vm_opcode
FN:578,_RNvYNtNtNtCsdL4DZEAGarf_15everscale_types4cell7builder11CellBuilderNtNtCsipbLpstqwUV_8tycho_vm5stack10StackValue10try_as_intCscQlb7znvrtA_9vm_opcode
FN:585,_RNvYNtNtNtCsdL4DZEAGarf_15everscale_types4cell7builder11CellBuilderNtNtCsipbLpstqwUV_8tycho_vm5stack10StackValue11rc_into_intCscQlb7znvrtA_9vm_opcode
FN:593,_RNvYNtNtNtCsdL4DZEAGarf_15everscale_types4cell7builder11CellBuilderNtNtCsipbLpstqwUV_8tycho_vm5stack10StackValue11try_as_cellCscQlb7znvrtA_9vm_opcode
FN:638,_RNvYNtNtNtCsdL4DZEAGarf_15everscale_types4cell7builder11CellBuilderNtNtCsipbLpstqwUV_8tycho_vm5stack10StackValue11try_as_contCscQlb7znvrtA_9vm_opcode
FN:600,_RNvYNtNtNtCsdL4DZEAGarf_15everscale_types4cell7builder11CellBuilderNtNtCsipbLpstqwUV_8tycho_vm5stack10StackValue12rc_into_cellCscQlb7znvrtA_9vm_opcode
FN:645,_RNvYNtNtNtCsdL4DZEAGarf_15everscale_types4cell7builder11CellBuilderNtNtCsipbLpstqwUV_8tycho_vm5stack10StackValue12rc_into_contCscQlb7znvrtA_9vm_opcode
FN:653,_RNvYNtNtNtCsdL4DZEAGarf_15everscale_types4cell7builder11CellBuilderNtNtCsipbLpstqwUV_8tycho_vm5stack10StackValue12try_as_tupleCscQlb7znvrtA_9vm_opcode
FN:604,_RNvYNtNtNtCsdL4DZEAGarf_15everscale_types4cell7builder11CellBuilderNtNtCsipbLpstqwUV_8tycho_vm5stack10StackValue13as_cell_sliceCscQlb7znvrtA_9vm_opcode
FN:660,_RNvYNtNtNtCsdL4DZEAGarf_15everscale_types4cell7builder11CellBuilderNtNtCsipbLpstqwUV_8tycho_vm5stack10StackValue13rc_into_tupleCscQlb7znvrtA_9vm_opcode
FN:608,_RNvYNtNtNtCsdL4DZEAGarf_15everscale_types4cell7builder11CellBuilderNtNtCsipbLpstqwUV_8tycho_vm5stack10StackValue17try_as_cell_sliceCscQlb7znvrtA_9vm_opcode
FN:615,_RNvYNtNtNtCsdL4DZEAGarf_15everscale_types4cell7builder11CellBuilderNtNtCsipbLpstqwUV_8tycho_vm5stack10StackValue18rc_into_cell_sliceCscQlb7znvrtA_9vm_opcode
FN:623,_RNvYNtNtNtCsdL4DZEAGarf_15everscale_types4cell7builder11CellBuilderNtNtCsipbLpstqwUV_8tycho_vm5stack10StackValue19try_as_cell_builderCscQlb7znvrtA_9vm_opcode
FN:574,_RNvYNtNtNtCsdL4DZEAGarf_15everscale_types4cell7builder11CellBuilderNtNtCsipbLpstqwUV_8tycho_vm5stack10StackValue6as_intCscQlb7znvrtA_9vm_opcode
FN:589,_RNvYNtNtNtCsdL4DZEAGarf_15everscale_types4cell7builder11CellBuilderNtNtCsipbLpstqwUV_8tycho_vm5stack10StackValue7as_cellCscQlb7znvrtA_9vm_opcode
FN:634,_RNvYNtNtNtCsdL4DZEAGarf_15everscale_types4cell7builder11CellBuilderNtNtCsipbLpstqwUV_8tycho_vm5stack10StackValue7as_contCscQlb7znvrtA_9vm_opcode
FN:649,_RNvYNtNtNtCsdL4DZEAGarf_15everscale_types4cell7builder11CellBuilderNtNtCsipbLpstqwUV_8tycho_vm5stack10StackValue8as_tupleCscQlb7znvrtA_9vm_opcode
FN:578,_RNvYNtNtNtNtCsdL4DZEAGarf_15everscale_types4cell9cell_impl2rc4CellNtNtCsipbLpstqwUV_8tycho_vm5stack10StackValue10try_as_intCscQlb7znvrtA_9vm_opcode
FN:585,_RNvYNtNtNtNtCsdL4DZEAGarf_15everscale_types4cell9cell_impl2rc4CellNtNtCsipbLpstqwUV_8tycho_vm5stack10StackValue11rc_into_intCscQlb7znvrtA_9vm_opcode
FN:593,_RNvYNtNtNtNtCsdL4DZEAGarf_15everscale_types4cell9cell_impl2rc4CellNtNtCsipbLpstqwUV_8tycho_vm5stack10StackValue11try_as_cellCscQlb7znvrtA_9vm_opcode
FN:638,_RNvYNtNtNtNtCsdL4DZEAGarf_15everscale_types4cell9cell_impl2rc4CellNtNtCsipbLpstqwUV_8tycho_vm5stack10StackValue11try_as_contCscQlb7znvrtA_9vm_opcode
FN:645,_RNvYNtNtNtNtCsdL4DZEAGarf_15everscale_types4cell9cell_impl2rc4CellNtNtCsipbLpstqwUV_8tycho_vm5stack10StackValue12rc_into_contCscQlb7znvrtA_9vm_opcode
FN:653,_RNvYNtNtNtNtCsdL4DZEAGarf_15everscale_types4cell9cell_impl2rc4CellNtNtCsipbLpstqwUV_8tycho_vm5stack10StackValue12try_as_tupleCscQlb7znvrtA_9vm_opcode
FN:604,_RNvYNtNtNtNtCsdL4DZEAGarf_15everscale_types4cell9cell_impl2rc4CellNtNtCsipbLpstqwUV_8tycho_vm5stack10StackValue13as_cell_sliceCscQlb7znvrtA_9vm_opcode
FN:660,_RNvYNtNtNtNtCsdL4DZEAGarf_15everscale_types4cell9cell_impl2rc4CellNtNtCsipbLpstqwUV_8tycho_vm5stack10StackValue13rc_into_tupleCscQlb7znvrtA_9vm_opcode
FN:619,_RNvYNtNtNtNtCsdL4DZEAGarf_15everscale_types4cell9cell_impl2rc4CellNtNtCsipbLpstqwUV_8tycho_vm5stack10StackValue15as_cell_builderCscQlb7znvrtA_9vm_opcode
FN:608,_RNvYNtNtNtNtCsdL4DZEAGarf_15everscale_types4cell9cell_impl2rc4CellNtNtCsipbLpstqwUV_8tycho_vm5stack10StackValue17try_as_cell_sliceCscQlb7znvrtA_9vm_opcode
FN:615,_RNvYNtNtNtNtCsdL4DZEAGarf_15everscale_types4cell9cell_impl2rc4CellNtNtCsipbLpstqwUV_8tycho_vm5stack10StackValue18rc_into_cell_sliceCscQlb7znvrtA_9vm_opcode
FN:623,_RNvYNtNtNtNtCsdL4DZEAGarf_15everscale_types4cell9cell_impl2rc4CellNtNtCsipbLpstqwUV_8tycho_vm5stack10StackValue19try_as_cell_builderCscQlb7znvrtA_9vm_opcode
FN:630,_RNvYNtNtNtNtCsdL4DZEAGarf_15everscale_types4cell9cell_impl2rc4CellNtNtCsipbLpstqwUV_8tycho_vm5stack10StackValue20rc_into_cell_builderCscQlb7znvrtA_9vm_opcode
FN:574,_RNvYNtNtNtNtCsdL4DZEAGarf_15everscale_types4cell9cell_impl2rc4CellNtNtCsipbLpstqwUV_8tycho_vm5stack10StackValue6as_intCscQlb7znvrtA_9vm_opcode
FN:634,_RNvYNtNtNtNtCsdL4DZEAGarf_15everscale_types4cell9cell_impl2rc4CellNtNtCsipbLpstqwUV_8tycho_vm5stack10StackValue7as_contCscQlb7znvrtA_9vm_opcode
FN:649,_RNvYNtNtNtNtCsdL4DZEAGarf_15everscale_types4cell9cell_impl2rc4CellNtNtCsipbLpstqwUV_8tycho_vm5stack10StackValue8as_tupleCscQlb7znvrtA_9vm_opcode
FN:209,_RINvMNtCsipbLpstqwUV_8tycho_vm5stackNtB3_5Stack12push_opt_rawDNtB3_10StackValueEL_EB5_
FN:209,_RINvMNtCsipbLpstqwUV_8tycho_vm5stackNtB3_5Stack12push_opt_rawNtNtNtNtCsdL4DZEAGarf_15everscale_types4cell9cell_impl2rc4CellEB5_
FN:188,_RINvMNtCsipbLpstqwUV_8tycho_vm5stackNtB3_5Stack4pushINtNtCs8f1B5igIjLM_5alloc3vec3VecINtNtB5_6saferc6SafeRcDNtB3_10StackValueEL_EEEB5_
FN:188,_RINvMNtCsipbLpstqwUV_8tycho_vm5stackNtB3_5Stack4pushNtNtB5_4util14OwnedCellSliceEB5_
FN:188,_RINvMNtCsipbLpstqwUV_8tycho_vm5stackNtB3_5Stack4pushNtNtCslhaYGTY3Pkx_10num_bigint6bigint6BigIntEB5_
FN:188,_RINvMNtCsipbLpstqwUV_8tycho_vm5stackNtB3_5Stack4pushNtNtNtCsdL4DZEAGarf_15everscale_types4cell7builder11CellBuilderEB5_
FN:188,_RINvMNtCsipbLpstqwUV_8tycho_vm5stackNtB3_5Stack4pushNtNtNtNtCsdL4DZEAGarf_15everscale_types4cell9cell_impl2rc4CellEB5_
FN:243,_RINvMNtCsipbLpstqwUV_8tycho_vm5stackNtB3_5Stack8push_intNtNtCslhaYGTY3Pkx_10num_bigint6bigint6BigIntEB5_
FN:243,_RINvMNtCsipbLpstqwUV_8tycho_vm5stackNtB3_5Stack8push_intaEB5_
FN:243,_RINvMNtCsipbLpstqwUV_8tycho_vm5stackNtB3_5Stack8push_inthEB5_
FN:243,_RINvMNtCsipbLpstqwUV_8tycho_vm5stackNtB3_5Stack8push_intjEB5_
FN:243,_RINvMNtCsipbLpstqwUV_8tycho_vm5stackNtB3_5Stack8push_intlEB5_
FN:243,_RINvMNtCsipbLpstqwUV_8tycho_vm5stackNtB3_5Stack8push_intmEB5_
FN:243,_RINvMNtCsipbLpstqwUV_8tycho_vm5stackNtB3_5Stack8push_intoEB5_
FN:243,_RINvMNtCsipbLpstqwUV_8tycho_vm5stackNtB3_5Stack8push_inttEB5_
FN:243,_RINvMNtCsipbLpstqwUV_8tycho_vm5stackNtB3_5Stack8push_intxEB5_
FN:243,_RINvMNtCsipbLpstqwUV_8tycho_vm5stackNtB3_5Stack8push_intyEB5_
FN:202,_RINvMNtCsipbLpstqwUV_8tycho_vm5stackNtB3_5Stack8push_optNtNtNtNtCsdL4DZEAGarf_15everscale_types4cell9cell_impl2rc4CellEB5_
FN:192,_RINvMNtCsipbLpstqwUV_8tycho_vm5stackNtB3_5Stack8push_rawDNtB3_10StackValueEL_EB5_
FN:192,_RINvMNtCsipbLpstqwUV_8tycho_vm5stackNtB3_5Stack8push_rawDNtNtB5_4cont4ContEL_EB5_
FN:192,_RINvMNtCsipbLpstqwUV_8tycho_vm5stackNtB3_5Stack8push_rawINtNtCs8f1B5igIjLM_5alloc3vec3VecINtNtB5_6saferc6SafeRcDNtB3_10StackValueEL_EEEB5_
FN:192,_RINvMNtCsipbLpstqwUV_8tycho_vm5stackNtB3_5Stack8push_rawNtNtB5_4cont7OrdContEB5_
FN:192,_RINvMNtCsipbLpstqwUV_8tycho_vm5stackNtB3_5Stack8push_rawNtNtB5_4util14OwnedCellSliceEB5_
FN:192,_RINvMNtCsipbLpstqwUV_8tycho_vm5stackNtB3_5Stack8push_rawNtNtCslhaYGTY3Pkx_10num_bigint6bigint6BigIntEB5_
FN:192,_RINvMNtCsipbLpstqwUV_8tycho_vm5stackNtB3_5Stack8push_rawNtNtNtCsdL4DZEAGarf_15everscale_types4cell7builder11CellBuilderEB5_
FN:192,_RINvMNtCsipbLpstqwUV_8tycho_vm5stackNtB3_5Stack8push_rawNtNtNtNtCsdL4DZEAGarf_15everscale_types4cell9cell_impl2rc4CellEB5_
FN:1381,_RINvMsr_NtCsipbLpstqwUV_8tycho_vm5stackINtNtB8_6saferc6SafeRcDNtB6_10StackValueEL_E13new_dyn_valueINtNtCs8f1B5igIjLM_5alloc3vec3VecBB_EEB8_
FN:1381,_RINvMsr_NtCsipbLpstqwUV_8tycho_vm5stackINtNtB8_6saferc6SafeRcDNtB6_10StackValueEL_E13new_dyn_valueNtB6_3NaNEB8_
FN:1381,_RINvMsr_NtCsipbLpstqwUV_8tycho_vm5stackINtNtB8_6saferc6SafeRcDNtB6_10StackValueEL_E13new_dyn_valueNtNtB8_4util14OwnedCellSliceEB8_
FN:1381,_RINvMsr_NtCsipbLpstqwUV_8tycho_vm5stackINtNtB8_6saferc6SafeRcDNtB6_10StackValueEL_E13new_dyn_valueNtNtCslhaYGTY3Pkx_10num_bigint6bigint6BigIntEB8_
FN:1381,_RINvMsr_NtCsipbLpstqwUV_8tycho_vm5stackINtNtB8_6saferc6SafeRcDNtB6_10StackValueEL_E13new_dyn_valueNtNtNtCsdL4DZEAGarf_15everscale_types4cell7builder11CellBuilderEB8_
FN:1381,_RINvMsr_NtCsipbLpstqwUV_8tycho_vm5stackINtNtB8_6saferc6SafeRcDNtB6_10StackValueEL_E13new_dyn_valueNtNtNtNtCsdL4DZEAGarf_15everscale_types4cell9cell_impl2rc4CellEB8_
FN:1381,_RINvMsr_NtCsipbLpstqwUV_8tycho_vm5stackINtNtB8_6saferc6SafeRcDNtB6_10StackValueEL_E13new_dyn_valueuEB8_
FN:1186,_RINvYSINtNtCsipbLpstqwUV_8tycho_vm6saferc6SafeRcDNtNtB9_5stack10StackValueEL_ENtBN_8TupleExt11try_get_refINtNtCs8f1B5igIjLM_5alloc3vec3VecB4_EEB9_
FN:1186,_RINvYSINtNtCsipbLpstqwUV_8tycho_vm6saferc6SafeRcDNtNtB9_5stack10StackValueEL_ENtBN_8TupleExt11try_get_refNtNtB9_4util14OwnedCellSliceEB9_
FN:1186,_RINvYSINtNtCsipbLpstqwUV_8tycho_vm6saferc6SafeRcDNtNtB9_5stack10StackValueEL_ENtBN_8TupleExt11try_get_refNtNtCslhaYGTY3Pkx_10num_bigint6bigint6BigIntEB9_
FN:1186,_RINvYSINtNtCsipbLpstqwUV_8tycho_vm6saferc6SafeRcDNtNtB9_5stack10StackValueEL_ENtBN_8TupleExt11try_get_refNtNtNtNtCsdL4DZEAGarf_15everscale_types4cell9cell_impl2rc4CellEB9_
FN:1191,_RINvYSINtNtCsipbLpstqwUV_8tycho_vm6saferc6SafeRcDNtNtB9_5stack10StackValueEL_ENtBN_8TupleExt19try_get_tuple_rangeINtNtNtCscHntIWw2aYb_4core3ops5range14RangeInclusivejEEB9_
FN:549,_RNCNvXNvNtCsipbLpstqwUV_8tycho_vm5stack1__NtB6_14StackValueTypeNtCs2k73FkEQrbY_9arbitrary9Arbitrary13try_size_hint0B8_
FN:549,_RNCNvXNvNtCsipbLpstqwUV_8tycho_vm5stack1__NtB6_14StackValueTypeNtCs2k73FkEQrbY_9arbitrary9Arbitrary19arbitrary_take_rests0_0B8_
FN:549,_RNCNvXNvNtCsipbLpstqwUV_8tycho_vm5stack1__NtB6_14StackValueTypeNtCs2k73FkEQrbY_9arbitrary9Arbitrary19arbitrary_take_rests_0B8_
FN:549,_RNCNvXNvNtCsipbLpstqwUV_8tycho_vm5stack1__NtB6_14StackValueTypeNtCs2k73FkEQrbY_9arbitrary9Arbitrary9arbitrarys0_0B8_
FN:549,_RNCNvXNvNtCsipbLpstqwUV_8tycho_vm5stack1__NtB6_14StackValueTypeNtCs2k73FkEQrbY_9arbitrary9Arbitrary9arbitrarys_0B8_
FN:424,_RNvMNtCsipbLpstqwUV_8tycho_vm5stackNtB2_5Stack11drop_bottom
FN:399,_RNvMNtCsipbLpstqwUV_8tycho_vm5stackNtB2_5Stack11pop_builder
FN:452,_RNvMNtCsipbLpstqwUV_8tycho_vm5stackNtB2_5Stack12get_exit_arg
FN:407,_RNvMNtCsipbLpstqwUV_8tycho_vm5stackNtB2_5Stack12pop_cell_opt
FN:248,_RNvMNtCsipbLpstqwUV_8tycho_vm5stackNtB2_5Stack12push_raw_int
FN:438,_RNvMNtCsipbLpstqwUV_8tycho_vm5stackNtB2_5Stack13reverse_range
FN:275,_RNvMNtCsipbLpstqwUV_8tycho_vm5stackNtB2_5Stack13split_top_ext
FN:53,_RNvMNtCsipbLpstqwUV_8tycho_vm5stackNtB2_5Stack14make_minus_one
FN:301,_RNvMNtCsipbLpstqwUV_8tycho_vm5stackNtB2_5Stack14pop_int_or_nan
FN:324,_RNvMNtCsipbLpstqwUV_8tycho_vm5stackNtB2_5Stack14pop_long_range
FN:258,_RNvMNtCsipbLpstqwUV_8tycho_vm5stackNtB2_5Stack15move_from_stack
FN:356,_RNvMNtCsipbLpstqwUV_8tycho_vm5stackNtB2_5Stack15pop_tuple_range
FN:84,_RNvMNtCsipbLpstqwUV_8tycho_vm5stackNtB2_5Stack16load_stack_value
FN:39,_RNvMNtCsipbLpstqwUV_8tycho_vm5stackNtB2_5Stack16make_empty_tuple
FN:310,_RNvMNtCsipbLpstqwUV_8tycho_vm5stackNtB2_5Stack18pop_smallint_range
FN:368,_RNvMNtCsipbLpstqwUV_8tycho_vm5stackNtB2_5Stack19pop_opt_tuple_range
FN:338,_RNvMNtCsipbLpstqwUV_8tycho_vm5stackNtB2_5Stack25pop_smallint_signed_range
FN:76,_RNvMNtCsipbLpstqwUV_8tycho_vm5stackNtB2_5Stack26load_stack_value_from_cell
FN:286,_RNvMNtCsipbLpstqwUV_8tycho_vm5stackNtB2_5Stack3pop
FN:430,_RNvMNtCsipbLpstqwUV_8tycho_vm5stackNtB2_5Stack4swap
FN:160,_RNvMNtCsipbLpstqwUV_8tycho_vm5stackNtB2_5Stack5depth
FN:446,_RNvMNtCsipbLpstqwUV_8tycho_vm5stackNtB2_5Stack5fetch
FN:395,_RNvMNtCsipbLpstqwUV_8tycho_vm5stackNtB2_5Stack6pop_cs
FN:297,_RNvMNtCsipbLpstqwUV_8tycho_vm5stackNtB2_5Stack7pop_int
FN:184,_RNvMNtCsipbLpstqwUV_8tycho_vm5stackNtB2_5Stack7reserve
FN:32,_RNvMNtCsipbLpstqwUV_8tycho_vm5stackNtB2_5Stack8make_nan
FN:60,_RNvMNtCsipbLpstqwUV_8tycho_vm5stackNtB2_5Stack8make_one
FN:293,_RNvMNtCsipbLpstqwUV_8tycho_vm5stackNtB2_5Stack8pop_bool
FN:403,_RNvMNtCsipbLpstqwUV_8tycho_vm5stackNtB2_5Stack8pop_cell
FN:391,_RNvMNtCsipbLpstqwUV_8tycho_vm5stackNtB2_5Stack8pop_cont
FN:416,_RNvMNtCsipbLpstqwUV_8tycho_vm5stackNtB2_5Stack8pop_many
FN:231,_RNvMNtCsipbLpstqwUV_8tycho_vm5stackNtB2_5Stack8push_nan
FN:219,_RNvMNtCsipbLpstqwUV_8tycho_vm5stackNtB2_5Stack8push_nth
FN:67,_RNvMNtCsipbLpstqwUV_8tycho_vm5stackNtB2_5Stack9make_bool
FN:25,_RNvMNtCsipbLpstqwUV_8tycho_vm5stackNtB2_5Stack9make_null
FN:46,_RNvMNtCsipbLpstqwUV_8tycho_vm5stackNtB2_5Stack9make_zero
FN:352,_RNvMNtCsipbLpstqwUV_8tycho_vm5stackNtB2_5Stack9pop_tuple
FN:235,_RNvMNtCsipbLpstqwUV_8tycho_vm5stackNtB2_5Stack9push_bool
FN:227,_RNvMNtCsipbLpstqwUV_8tycho_vm5stackNtB2_5Stack9push_null
FN:239,_RNvMNtCsipbLpstqwUV_8tycho_vm5stackNtB2_5Stack9push_zero
FN:266,_RNvMNtCsipbLpstqwUV_8tycho_vm5stackNtB2_5Stack9split_top
FN:700,_RNvMs4_NtCsipbLpstqwUV_8tycho_vm5stackDNtB5_10StackValueEL_12display_list
FN:739,_RNvMs4_NtCsipbLpstqwUV_8tycho_vm5stackDNtB5_10StackValueEL_13fmt_list_tail
FN:674,_RNvMs4_NtCsipbLpstqwUV_8tycho_vm5stackDNtB5_10StackValueEL_14as_tuple_range
FN:688,_RNvMs4_NtCsipbLpstqwUV_8tycho_vm5stackDNtB5_10StackValueEL_7as_list
FN:681,_RNvMs4_NtCsipbLpstqwUV_8tycho_vm5stackDNtB5_10StackValueEL_7as_pair
FN:666,_RNvMs4_NtCsipbLpstqwUV_8tycho_vm5stackDNtB5_10StackValueEL_7is_null
FN:712,_RNvMs4_NtCsipbLpstqwUV_8tycho_vm5stackDNtB5_10StackValueEL_8fmt_list
FN:670,_RNvMs4_NtCsipbLpstqwUV_8tycho_vm5stackDNtB5_10StackValueEL_8is_tuple
FN:1415,_RNvMsr_NtCsipbLpstqwUV_8tycho_vm5stackINtNtB7_6saferc6SafeRcDNtB5_10StackValueEL_E10into_tuple
FN:1396,_RNvMsr_NtCsipbLpstqwUV_8tycho_vm5stackINtNtB7_6saferc6SafeRcDNtB5_10StackValueEL_E15into_cell_slice
FN:1403,_RNvMsr_NtCsipbLpstqwUV_8tycho_vm5stackINtNtB7_6saferc6SafeRcDNtB5_10StackValueEL_E17into_cell_builder
FN:1386,_RNvMsr_NtCsipbLpstqwUV_8tycho_vm5stackINtNtB7_6saferc6SafeRcDNtB5_10StackValueEL_E8into_int
FN:1391,_RNvMsr_NtCsipbLpstqwUV_8tycho_vm5stackINtNtB7_6saferc6SafeRcDNtB5_10StackValueEL_E9into_cell
FN:1410,_RNvMsr_NtCsipbLpstqwUV_8tycho_vm5stackINtNtB7_6saferc6SafeRcDNtB5_10StackValueEL_E9into_cont
FN:1422,_RNvMss_NtCsipbLpstqwUV_8tycho_vm5stackINtNtB7_6saferc6SafeRcDNtB5_10StackValueEL_E14into_dyn_valueB7_
FN:1422,_RNvMss_NtCsipbLpstqwUV_8tycho_vm5stackINtNtB7_6saferc6SafeRcDNtNtB7_4cont4ContEL_E14into_dyn_valueB7_
FN:1422,_RNvMss_NtCsipbLpstqwUV_8tycho_vm5stackINtNtB7_6saferc6SafeRcINtNtCs8f1B5igIjLM_5alloc3vec3VecIBB_DNtB5_10StackValueEL_EEE14into_dyn_valueB7_
FN:1422,_RNvMss_NtCsipbLpstqwUV_8tycho_vm5stackINtNtB7_6saferc6SafeRcNtNtB7_4cont7OrdContE14into_dyn_valueB7_
FN:1422,_RNvMss_NtCsipbLpstqwUV_8tycho_vm5stackINtNtB7_6saferc6SafeRcNtNtB7_4util14OwnedCellSliceE14into_dyn_valueB7_
FN:1422,_RNvMss_NtCsipbLpstqwUV_8tycho_vm5stackINtNtB7_6saferc6SafeRcNtNtCslhaYGTY3Pkx_10num_bigint6bigint6BigIntE14into_dyn_valueB7_
FN:1422,_RNvMss_NtCsipbLpstqwUV_8tycho_vm5stackINtNtB7_6saferc6SafeRcNtNtNtCsdL4DZEAGarf_15everscale_types4cell7builder11CellBuilderE14into_dyn_valueB7_
FN:1422,_RNvMss_NtCsipbLpstqwUV_8tycho_vm5stackINtNtB7_6saferc6SafeRcNtNtNtNtCsdL4DZEAGarf_15everscale_types4cell9cell_impl2rc4CellE14into_dyn_valueB7_
FN:765,_RNvNtCsipbLpstqwUV_8tycho_vm5stack12invalid_type
FN:1348,_RNvNtCsipbLpstqwUV_8tycho_vm5stack25load_slice_as_stack_value
FN:1329,_RNvNtCsipbLpstqwUV_8tycho_vm5stack26store_slice_as_stack_value
FN:172,_RNvXNvMNtCsipbLpstqwUV_8tycho_vm5stackNtB5_5Stack12display_dumpNtB2_12DisplayStackNtNtCscHntIWw2aYb_4core3fmt7Display3fmt
FN:704,_RNvXNvMs4_NtCsipbLpstqwUV_8tycho_vm5stackDNtB8_10StackValueEL_12display_listNtB2_11DisplayListNtNtCscHntIWw2aYb_4core3fmt7Display3fmt
FN:468,_RNvXs0_NtCsipbLpstqwUV_8tycho_vm5stackNtB5_5StackNtNtB7_6saferc13SafeRcMakeMut11rc_make_mut
FN:484,_RNvXs2_NtCsipbLpstqwUV_8tycho_vm5stackNtB5_5StackNtNtNtCsdL4DZEAGarf_15everscale_types4cell7builder5Store10store_into
FN:512,_RNvXs3_NtCsipbLpstqwUV_8tycho_vm5stackNtB5_5StackNtNtNtCsdL4DZEAGarf_15everscale_types4cell5slice4Load9load_from
FN:773,_RNvXs5_NtCsipbLpstqwUV_8tycho_vm5stackuNtB5_10StackValue11rc_into_dyn
FN:781,_RNvXs5_NtCsipbLpstqwUV_8tycho_vm5stackuNtB5_10StackValue20store_as_stack_value
FN:777,_RNvXs5_NtCsipbLpstqwUV_8tycho_vm5stackuNtB5_10StackValue2ty
FN:790,_RNvXs5_NtCsipbLpstqwUV_8tycho_vm5stackuNtB5_10StackValue8fmt_dump
FN:831,_RNvXs7_NtCsipbLpstqwUV_8tycho_vm5stackNtB5_3NaNNtB5_10StackValue10try_as_int
FN:810,_RNvXs7_NtCsipbLpstqwUV_8tycho_vm5stackNtB5_3NaNNtB5_10StackValue11rc_into_dyn
FN:835,_RNvXs7_NtCsipbLpstqwUV_8tycho_vm5stackNtB5_3NaNNtB5_10StackValue11rc_into_int
FN:818,_RNvXs7_NtCsipbLpstqwUV_8tycho_vm5stackNtB5_3NaNNtB5_10StackValue20store_as_stack_value
FN:814,_RNvXs7_NtCsipbLpstqwUV_8tycho_vm5stackNtB5_3NaNNtB5_10StackValue2ty
FN:827,_RNvXs7_NtCsipbLpstqwUV_8tycho_vm5stackNtB5_3NaNNtB5_10StackValue8fmt_dump
FN:859,_RNvXs9_NtCsipbLpstqwUV_8tycho_vm5stackNtNtCslhaYGTY3Pkx_10num_bigint6bigint6BigIntNtB5_10StackValue20store_as_stack_value
FN:876,_RNvXs9_NtCsipbLpstqwUV_8tycho_vm5stackNtNtCslhaYGTY3Pkx_10num_bigint6bigint6BigIntNtB5_10StackValue8fmt_dump
FN:1446,_RNvXsH_NtCsipbLpstqwUV_8tycho_vm5stackuNtNtB7_6saferc10SafeDelete19rc_into_safe_delete
FN:1446,_RNvXsI_NtCsipbLpstqwUV_8tycho_vm5stackNtB5_3NaNNtNtB7_6saferc10SafeDelete19rc_into_safe_delete
FN:1446,_RNvXsL_NtCsipbLpstqwUV_8tycho_vm5stackNtNtB7_4util14OwnedCellSliceNtNtB7_6saferc10SafeDelete19rc_into_safe_delete
FN:900,_RNvXsa_NtCsipbLpstqwUV_8tycho_vm5stackNtNtCslhaYGTY3Pkx_10num_bigint6bigint6BigIntNtB5_16StaticStackValue12from_dyn_ref
FN:896,_RNvXsa_NtCsipbLpstqwUV_8tycho_vm5stackNtNtCslhaYGTY3Pkx_10num_bigint6bigint6BigIntNtB5_16StaticStackValue8from_dyn
FN:913,_RNvXsb_NtCsipbLpstqwUV_8tycho_vm5stackNtNtCslhaYGTY3Pkx_10num_bigint6bigint6BigIntNtNtB7_6saferc13SafeRcMakeMut11rc_make_mut
FN:930,_RNvXsc_NtCsipbLpstqwUV_8tycho_vm5stackNtNtNtNtCsdL4DZEAGarf_15everscale_types4cell9cell_impl2rc4CellNtB5_10StackValue20store_as_stack_value
FN:940,_RNvXsc_NtCsipbLpstqwUV_8tycho_vm5stackNtNtNtNtCsdL4DZEAGarf_15everscale_types4cell9cell_impl2rc4CellNtB5_10StackValue8fmt_dump
FN:964,_RNvXsd_NtCsipbLpstqwUV_8tycho_vm5stackNtNtNtNtCsdL4DZEAGarf_15everscale_types4cell9cell_impl2rc4CellNtB5_16StaticStackValue12from_dyn_ref
FN:960,_RNvXsd_NtCsipbLpstqwUV_8tycho_vm5stackNtNtNtNtCsdL4DZEAGarf_15everscale_types4cell9cell_impl2rc4CellNtB5_16StaticStackValue8from_dyn
FN:986,_RNvXsf_NtCsipbLpstqwUV_8tycho_vm5stackNtNtB7_4util14OwnedCellSliceNtB5_10StackValue11rc_into_dyn
FN:1008,_RNvXsf_NtCsipbLpstqwUV_8tycho_vm5stackNtNtB7_4util14OwnedCellSliceNtB5_10StackValue13as_cell_slice
FN:1012,_RNvXsf_NtCsipbLpstqwUV_8tycho_vm5stackNtNtB7_4util14OwnedCellSliceNtB5_10StackValue18rc_into_cell_slice
FN:994,_RNvXsf_NtCsipbLpstqwUV_8tycho_vm5stackNtNtB7_4util14OwnedCellSliceNtB5_10StackValue20store_as_stack_value
FN:990,_RNvXsf_NtCsipbLpstqwUV_8tycho_vm5stackNtNtB7_4util14OwnedCellSliceNtB5_10StackValue2ty
FN:1004,_RNvXsf_NtCsipbLpstqwUV_8tycho_vm5stackNtNtB7_4util14OwnedCellSliceNtB5_10StackValue8fmt_dump
FN:1028,_RNvXsg_NtCsipbLpstqwUV_8tycho_vm5stackNtNtB7_4util14OwnedCellSliceNtB5_16StaticStackValue12from_dyn_ref
FN:1024,_RNvXsg_NtCsipbLpstqwUV_8tycho_vm5stackNtNtB7_4util14OwnedCellSliceNtB5_16StaticStackValue8from_dyn
FN:1041,_RNvXsh_NtCsipbLpstqwUV_8tycho_vm5stackNtNtB7_4util14OwnedCellSliceNtNtB7_6saferc13SafeRcMakeMut11rc_make_mut
FN:1058,_RNvXsi_NtCsipbLpstqwUV_8tycho_vm5stackNtNtNtCsdL4DZEAGarf_15everscale_types4cell7builder11CellBuilderNtB5_10StackValue20store_as_stack_value
FN:1073,_RNvXsi_NtCsipbLpstqwUV_8tycho_vm5stackNtNtNtCsdL4DZEAGarf_15everscale_types4cell7builder11CellBuilderNtB5_10StackValue8fmt_dump
FN:1097,_RNvXsj_NtCsipbLpstqwUV_8tycho_vm5stackNtNtNtCsdL4DZEAGarf_15everscale_types4cell7builder11CellBuilderNtB5_16StaticStackValue12from_dyn_ref
FN:1093,_RNvXsj_NtCsipbLpstqwUV_8tycho_vm5stackNtNtNtCsdL4DZEAGarf_15everscale_types4cell7builder11CellBuilderNtB5_16StaticStackValue8from_dyn
FN:1110,_RNvXsk_NtCsipbLpstqwUV_8tycho_vm5stackNtNtNtCsdL4DZEAGarf_15everscale_types4cell7builder11CellBuilderNtNtB7_6saferc13SafeRcMakeMut11rc_make_mut
FN:1119,_RNvXsl_NtCsipbLpstqwUV_8tycho_vm5stackDNtNtB7_4cont4ContEL_NtB5_10StackValue11rc_into_dyn
FN:1127,_RNvXsl_NtCsipbLpstqwUV_8tycho_vm5stackDNtNtB7_4cont4ContEL_NtB5_10StackValue20store_as_stack_value
FN:1137,_RNvXsl_NtCsipbLpstqwUV_8tycho_vm5stackDNtNtB7_4cont4ContEL_NtB5_10StackValue8fmt_dump
FN:1161,_RNvXsm_NtCsipbLpstqwUV_8tycho_vm5stackDNtNtB7_4cont4ContEL_NtB5_16StaticStackValue12from_dyn_ref
FN:1157,_RNvXsm_NtCsipbLpstqwUV_8tycho_vm5stackDNtNtB7_4cont4ContEL_NtB5_16StaticStackValue8from_dyn
FN:1209,_RNvXsn_NtCsipbLpstqwUV_8tycho_vm5stackSINtNtB7_6saferc6SafeRcDNtB5_10StackValueEL_ENtB5_8TupleExt7try_get
FN:1231,_RNvXso_NtCsipbLpstqwUV_8tycho_vm5stackINtNtCs8f1B5igIjLM_5alloc3vec3VecINtNtB7_6saferc6SafeRcDNtB5_10StackValueEL_EEB1u_20store_as_stack_value
FN:1284,_RNvXso_NtCsipbLpstqwUV_8tycho_vm5stackINtNtCs8f1B5igIjLM_5alloc3vec3VecINtNtB7_6saferc6SafeRcDNtB5_10StackValueEL_EEB1u_8as_tuple
FN:1269,_RNvXso_NtCsipbLpstqwUV_8tycho_vm5stackINtNtCs8f1B5igIjLM_5alloc3vec3VecINtNtB7_6saferc6SafeRcDNtB5_10StackValueEL_EEB1u_8fmt_dump
FN:1304,_RNvXsp_NtCsipbLpstqwUV_8tycho_vm5stackINtNtCs8f1B5igIjLM_5alloc3vec3VecINtNtB7_6saferc6SafeRcDNtB5_10StackValueEL_EENtB5_16StaticStackValue12from_dyn_ref
FN:1300,_RNvXsp_NtCsipbLpstqwUV_8tycho_vm5stackINtNtCs8f1B5igIjLM_5alloc3vec3VecINtNtB7_6saferc6SafeRcDNtB5_10StackValueEL_EENtB5_16StaticStackValue8from_dyn
FN:1317,_RNvXsq_NtCsipbLpstqwUV_8tycho_vm5stackINtNtCs8f1B5igIjLM_5alloc3vec3VecINtNtB7_6saferc6SafeRcDNtB5_10StackValueEL_EENtB1a_13SafeRcMakeMut11rc_make_mut
FN:578,_RNvYINtNtCs8f1B5igIjLM_5alloc3vec3VecINtNtCsipbLpstqwUV_8tycho_vm6saferc6SafeRcDNtNtBE_5stack10StackValueEL_EEB1g_10try_as_intBE_
FN:585,_RNvYINtNtCs8f1B5igIjLM_5alloc3vec3VecINtNtCsipbLpstqwUV_8tycho_vm6saferc6SafeRcDNtNtBE_5stack10StackValueEL_EEB1g_11rc_into_intBE_
FN:593,_RNvYINtNtCs8f1B5igIjLM_5alloc3vec3VecINtNtCsipbLpstqwUV_8tycho_vm6saferc6SafeRcDNtNtBE_5stack10StackValueEL_EEB1g_11try_as_cellBE_
FN:638,_RNvYINtNtCs8f1B5igIjLM_5alloc3vec3VecINtNtCsipbLpstqwUV_8tycho_vm6saferc6SafeRcDNtNtBE_5stack10StackValueEL_EEB1g_11try_as_contBE_
FN:600,_RNvYINtNtCs8f1B5igIjLM_5alloc3vec3VecINtNtCsipbLpstqwUV_8tycho_vm6saferc6SafeRcDNtNtBE_5stack10StackValueEL_EEB1g_12rc_into_cellBE_
FN:645,_RNvYINtNtCs8f1B5igIjLM_5alloc3vec3VecINtNtCsipbLpstqwUV_8tycho_vm6saferc6SafeRcDNtNtBE_5stack10StackValueEL_EEB1g_12rc_into_contBE_
FN:653,_RNvYINtNtCs8f1B5igIjLM_5alloc3vec3VecINtNtCsipbLpstqwUV_8tycho_vm6saferc6SafeRcDNtNtBE_5stack10StackValueEL_EEB1g_12try_as_tupleBE_
FN:604,_RNvYINtNtCs8f1B5igIjLM_5alloc3vec3VecINtNtCsipbLpstqwUV_8tycho_vm6saferc6SafeRcDNtNtBE_5stack10StackValueEL_EEB1g_13as_cell_sliceBE_
FN:619,_RNvYINtNtCs8f1B5igIjLM_5alloc3vec3VecINtNtCsipbLpstqwUV_8tycho_vm6saferc6SafeRcDNtNtBE_5stack10StackValueEL_EEB1g_15as_cell_builderBE_
FN:608,_RNvYINtNtCs8f1B5igIjLM_5alloc3vec3VecINtNtCsipbLpstqwUV_8tycho_vm6saferc6SafeRcDNtNtBE_5stack10StackValueEL_EEB1g_17try_as_cell_sliceBE_
FN:615,_RNvYINtNtCs8f1B5igIjLM_5alloc3vec3VecINtNtCsipbLpstqwUV_8tycho_vm6saferc6SafeRcDNtNtBE_5stack10StackValueEL_EEB1g_18rc_into_cell_sliceBE_
FN:623,_RNvYINtNtCs8f1B5igIjLM_5alloc3vec3VecINtNtCsipbLpstqwUV_8tycho_vm6saferc6SafeRcDNtNtBE_5stack10StackValueEL_EEB1g_19try_as_cell_builderBE_
FN:630,_RNvYINtNtCs8f1B5igIjLM_5alloc3vec3VecINtNtCsipbLpstqwUV_8tycho_vm6saferc6SafeRcDNtNtBE_5stack10StackValueEL_EEB1g_20rc_into_cell_builderBE_
FN:574,_RNvYINtNtCs8f1B5igIjLM_5alloc3vec3VecINtNtCsipbLpstqwUV_8tycho_vm6saferc6SafeRcDNtNtBE_5stack10StackValueEL_EEB1g_6as_intBE_
FN:589,_RNvYINtNtCs8f1B5igIjLM_5alloc3vec3VecINtNtCsipbLpstqwUV_8tycho_vm6saferc6SafeRcDNtNtBE_5stack10StackValueEL_EEB1g_7as_cellBE_
FN:634,_RNvYINtNtCs8f1B5igIjLM_5alloc3vec3VecINtNtCsipbLpstqwUV_8tycho_vm6saferc6SafeRcDNtNtBE_5stack10StackValueEL_EEB1g_7as_contBE_
FN:578,_RNvYNtNtCsipbLpstqwUV_8tycho_vm4cont10ArgContExtNtNtB6_5stack10StackValue10try_as_intB6_
FN:585,_RNvYNtNtCsipbLpstqwUV_8tycho_vm4cont10ArgContExtNtNtB6_5stack10StackValue11rc_into_intB6_
FN:593,_RNvYNtNtCsipbLpstqwUV_8tycho_vm4cont10ArgContExtNtNtB6_5stack10StackValue11try_as_cellB6_
FN:638,_RNvYNtNtCsipbLpstqwUV_8tycho_vm4cont10ArgContExtNtNtB6_5stack10StackValue11try_as_contB6_
FN:600,_RNvYNtNtCsipbLpstqwUV_8tycho_vm4cont10ArgContExtNtNtB6_5stack10StackValue12rc_into_cellB6_
FN:653,_RNvYNtNtCsipbLpstqwUV_8tycho_vm4cont10ArgContExtNtNtB6_5stack10StackValue12try_as_tupleB6_
FN:604,_RNvYNtNtCsipbLpstqwUV_8tycho_vm4cont10ArgContExtNtNtB6_5stack10StackValue13as_cell_sliceB6_
FN:660,_RNvYNtNtCsipbLpstqwUV_8tycho_vm4cont10ArgContExtNtNtB6_5stack10StackValue13rc_into_tupleB6_
FN:619,_RNvYNtNtCsipbLpstqwUV_8tycho_vm4cont10ArgContExtNtNtB6_5stack10StackValue15as_cell_builderB6_
FN:608,_RNvYNtNtCsipbLpstqwUV_8tycho_vm4cont10ArgContExtNtNtB6_5stack10StackValue17try_as_cell_sliceB6_
FN:615,_RNvYNtNtCsipbLpstqwUV_8tycho_vm4cont10ArgContExtNtNtB6_5stack10StackValue18rc_into_cell_sliceB6_
FN:623,_RNvYNtNtCsipbLpstqwUV_8tycho_vm4cont10ArgContExtNtNtB6_5stack10StackValue19try_as_cell_builderB6_
FN:630,_RNvYNtNtCsipbLpstqwUV_8tycho_vm4cont10ArgContExtNtNtB6_5stack10StackValue20rc_into_cell_builderB6_
FN:574,_RNvYNtNtCsipbLpstqwUV_8tycho_vm4cont10ArgContExtNtNtB6_5stack10StackValue6as_intB6_
FN:589,_RNvYNtNtCsipbLpstqwUV_8tycho_vm4cont10ArgContExtNtNtB6_5stack10StackValue7as_cellB6_
FN:649,_RNvYNtNtCsipbLpstqwUV_8tycho_vm4cont10ArgContExtNtNtB6_5stack10StackValue8as_tupleB6_
FN:578,_RNvYNtNtCsipbLpstqwUV_8tycho_vm4cont10RepeatContNtNtB6_5stack10StackValue10try_as_intB6_
FN:585,_RNvYNtNtCsipbLpstqwUV_8tycho_vm4cont10RepeatContNtNtB6_5stack10StackValue11rc_into_intB6_
FN:593,_RNvYNtNtCsipbLpstqwUV_8tycho_vm4cont10RepeatContNtNtB6_5stack10StackValue11try_as_cellB6_
FN:638,_RNvYNtNtCsipbLpstqwUV_8tycho_vm4cont10RepeatContNtNtB6_5stack10StackValue11try_as_contB6_
FN:600,_RNvYNtNtCsipbLpstqwUV_8tycho_vm4cont10RepeatContNtNtB6_5stack10StackValue12rc_into_cellB6_
FN:653,_RNvYNtNtCsipbLpstqwUV_8tycho_vm4cont10RepeatContNtNtB6_5stack10StackValue12try_as_tupleB6_
FN:604,_RNvYNtNtCsipbLpstqwUV_8tycho_vm4cont10RepeatContNtNtB6_5stack10StackValue13as_cell_sliceB6_
FN:660,_RNvYNtNtCsipbLpstqwUV_8tycho_vm4cont10RepeatContNtNtB6_5stack10StackValue13rc_into_tupleB6_
FN:619,_RNvYNtNtCsipbLpstqwUV_8tycho_vm4cont10RepeatContNtNtB6_5stack10StackValue15as_cell_builderB6_
FN:608,_RNvYNtNtCsipbLpstqwUV_8tycho_vm4cont10RepeatContNtNtB6_5stack10StackValue17try_as_cell_sliceB6_
FN:615,_RNvYNtNtCsipbLpstqwUV_8tycho_vm4cont10RepeatContNtNtB6_5stack10StackValue18rc_into_cell_sliceB6_
FN:623,_RNvYNtNtCsipbLpstqwUV_8tycho_vm4cont10RepeatContNtNtB6_5stack10StackValue19try_as_cell_builderB6_
FN:630,_RNvYNtNtCsipbLpstqwUV_8tycho_vm4cont10RepeatContNtNtB6_5stack10StackValue20rc_into_cell_builderB6_
FN:574,_RNvYNtNtCsipbLpstqwUV_8tycho_vm4cont10RepeatContNtNtB6_5stack10StackValue6as_intB6_
FN:589,_RNvYNtNtCsipbLpstqwUV_8tycho_vm4cont10RepeatContNtNtB6_5stack10StackValue7as_cellB6_
FN:649,_RNvYNtNtCsipbLpstqwUV_8tycho_vm4cont10RepeatContNtNtB6_5stack10StackValue8as_tupleB6_
FN:578,_RNvYNtNtCsipbLpstqwUV_8tycho_vm4cont11ExcQuitContNtNtB6_5stack10StackValue10try_as_intB6_
FN:585,_RNvYNtNtCsipbLpstqwUV_8tycho_vm4cont11ExcQuitContNtNtB6_5stack10StackValue11rc_into_intB6_
FN:593,_RNvYNtNtCsipbLpstqwUV_8tycho_vm4cont11ExcQuitContNtNtB6_5stack10StackValue11try_as_cellB6_
FN:638,_RNvYNtNtCsipbLpstqwUV_8tycho_vm4cont11ExcQuitContNtNtB6_5stack10StackValue11try_as_contB6_
FN:600,_RNvYNtNtCsipbLpstqwUV_8tycho_vm4cont11ExcQuitContNtNtB6_5stack10StackValue12rc_into_cellB6_
FN:653,_RNvYNtNtCsipbLpstqwUV_8tycho_vm4cont11ExcQuitContNtNtB6_5stack10StackValue12try_as_tupleB6_
FN:604,_RNvYNtNtCsipbLpstqwUV_8tycho_vm4cont11ExcQuitContNtNtB6_5stack10StackValue13as_cell_sliceB6_
FN:660,_RNvYNtNtCsipbLpstqwUV_8tycho_vm4cont11ExcQuitContNtNtB6_5stack10StackValue13rc_into_tupleB6_
FN:619,_RNvYNtNtCsipbLpstqwUV_8tycho_vm4cont11ExcQuitContNtNtB6_5stack10StackValue15as_cell_builderB6_
FN:608,_RNvYNtNtCsipbLpstqwUV_8tycho_vm4cont11ExcQuitContNtNtB6_5stack10StackValue17try_as_cell_sliceB6_
FN:615,_RNvYNtNtCsipbLpstqwUV_8tycho_vm4cont11ExcQuitContNtNtB6_5stack10StackValue18rc_into_cell_sliceB6_
FN:623,_RNvYNtNtCsipbLpstqwUV_8tycho_vm4cont11ExcQuitContNtNtB6_5stack10StackValue19try_as_cell_builderB6_
FN:630,_RNvYNtNtCsipbLpstqwUV_8tycho_vm4cont11ExcQuitContNtNtB6_5stack10StackValue20rc_into_cell_builderB6_
FN:574,_RNvYNtNtCsipbLpstqwUV_8tycho_vm4cont11ExcQuitContNtNtB6_5stack10StackValue6as_intB6_
FN:589,_RNvYNtNtCsipbLpstqwUV_8tycho_vm4cont11ExcQuitContNtNtB6_5stack10StackValue7as_cellB6_
FN:649,_RNvYNtNtCsipbLpstqwUV_8tycho_vm4cont11ExcQuitContNtNtB6_5stack10StackValue8as_tupleB6_
FN:578,_RNvYNtNtCsipbLpstqwUV_8tycho_vm4cont11PushIntContNtNtB6_5stack10StackValue10try_as_intB6_
FN:585,_RNvYNtNtCsipbLpstqwUV_8tycho_vm4cont11PushIntContNtNtB6_5stack10StackValue11rc_into_intB6_
FN:593,_RNvYNtNtCsipbLpstqwUV_8tycho_vm4cont11PushIntContNtNtB6_5stack10StackValue11try_as_cellB6_
FN:638,_RNvYNtNtCsipbLpstqwUV_8tycho_vm4cont11PushIntContNtNtB6_5stack10StackValue11try_as_contB6_
FN:600,_RNvYNtNtCsipbLpstqwUV_8tycho_vm4cont11PushIntContNtNtB6_5stack10StackValue12rc_into_cellB6_
FN:653,_RNvYNtNtCsipbLpstqwUV_8tycho_vm4cont11PushIntContNtNtB6_5stack10StackValue12try_as_tupleB6_
FN:604,_RNvYNtNtCsipbLpstqwUV_8tycho_vm4cont11PushIntContNtNtB6_5stack10StackValue13as_cell_sliceB6_
FN:660,_RNvYNtNtCsipbLpstqwUV_8tycho_vm4cont11PushIntContNtNtB6_5stack10StackValue13rc_into_tupleB6_
FN:619,_RNvYNtNtCsipbLpstqwUV_8tycho_vm4cont11PushIntContNtNtB6_5stack10StackValue15as_cell_builderB6_
FN:608,_RNvYNtNtCsipbLpstqwUV_8tycho_vm4cont11PushIntContNtNtB6_5stack10StackValue17try_as_cell_sliceB6_
FN:615,_RNvYNtNtCsipbLpstqwUV_8tycho_vm4cont11PushIntContNtNtB6_5stack10StackValue18rc_into_cell_sliceB6_
FN:623,_RNvYNtNtCsipbLpstqwUV_8tycho_vm4cont11PushIntContNtNtB6_5stack10StackValue19try_as_cell_builderB6_
FN:630,_RNvYNtNtCsipbLpstqwUV_8tycho_vm4cont11PushIntContNtNtB6_5stack10StackValue20rc_into_cell_builderB6_
FN:574,_RNvYNtNtCsipbLpstqwUV_8tycho_vm4cont11PushIntContNtNtB6_5stack10StackValue6as_intB6_
FN:589,_RNvYNtNtCsipbLpstqwUV_8tycho_vm4cont11PushIntContNtNtB6_5stack10StackValue7as_cellB6_
FN:649,_RNvYNtNtCsipbLpstqwUV_8tycho_vm4cont11PushIntContNtNtB6_5stack10StackValue8as_tupleB6_
FN:578,_RNvYNtNtCsipbLpstqwUV_8tycho_vm4cont7OrdContNtNtB6_5stack10StackValue10try_as_intB6_
FN:585,_RNvYNtNtCsipbLpstqwUV_8tycho_vm4cont7OrdContNtNtB6_5stack10StackValue11rc_into_intB6_
FN:593,_RNvYNtNtCsipbLpstqwUV_8tycho_vm4cont7OrdContNtNtB6_5stack10StackValue11try_as_cellB6_
FN:638,_RNvYNtNtCsipbLpstqwUV_8tycho_vm4cont7OrdContNtNtB6_5stack10StackValue11try_as_contB6_
FN:600,_RNvYNtNtCsipbLpstqwUV_8tycho_vm4cont7OrdContNtNtB6_5stack10StackValue12rc_into_cellB6_
FN:653,_RNvYNtNtCsipbLpstqwUV_8tycho_vm4cont7OrdContNtNtB6_5stack10StackValue12try_as_tupleB6_
FN:604,_RNvYNtNtCsipbLpstqwUV_8tycho_vm4cont7OrdContNtNtB6_5stack10StackValue13as_cell_sliceB6_
FN:660,_RNvYNtNtCsipbLpstqwUV_8tycho_vm4cont7OrdContNtNtB6_5stack10StackValue13rc_into_tupleB6_
FN:619,_RNvYNtNtCsipbLpstqwUV_8tycho_vm4cont7OrdContNtNtB6_5stack10StackValue15as_cell_builderB6_
FN:608,_RNvYNtNtCsipbLpstqwUV_8tycho_vm4cont7OrdContNtNtB6_5stack10StackValue17try_as_cell_sliceB6_
FN:615,_RNvYNtNtCsipbLpstqwUV_8tycho_vm4cont7OrdContNtNtB6_5stack10StackValue18rc_into_cell_sliceB6_
FN:623,_RNvYNtNtCsipbLpstqwUV_8tycho_vm4cont7OrdContNtNtB6_5stack10StackValue19try_as_cell_builderB6_
FN:630,_RNvYNtNtCsipbLpstqwUV_8tycho_vm4cont7OrdContNtNtB6_5stack10StackValue20rc_into_cell_builderB6_
FN:574,_RNvYNtNtCsipbLpstqwUV_8tycho_vm4cont7OrdContNtNtB6_5stack10StackValue6as_intB6_
FN:589,_RNvYNtNtCsipbLpstqwUV_8tycho_vm4cont7OrdContNtNtB6_5stack10StackValue7as_cellB6_
FN:649,_RNvYNtNtCsipbLpstqwUV_8tycho_vm4cont7OrdContNtNtB6_5stack10StackValue8as_tupleB6_
FN:578,_RNvYNtNtCsipbLpstqwUV_8tycho_vm4cont8QuitContNtNtB6_5stack10StackValue10try_as_intB6_
FN:585,_RNvYNtNtCsipbLpstqwUV_8tycho_vm4cont8QuitContNtNtB6_5stack10StackValue11rc_into_intB6_
FN:593,_RNvYNtNtCsipbLpstqwUV_8tycho_vm4cont8QuitContNtNtB6_5stack10StackValue11try_as_cellB6_
FN:638,_RNvYNtNtCsipbLpstqwUV_8tycho_vm4cont8QuitContNtNtB6_5stack10StackValue11try_as_contB6_
FN:600,_RNvYNtNtCsipbLpstqwUV_8tycho_vm4cont8QuitContNtNtB6_5stack10StackValue12rc_into_cellB6_
FN:653,_RNvYNtNtCsipbLpstqwUV_8tycho_vm4cont8QuitContNtNtB6_5stack10StackValue12try_as_tupleB6_
FN:604,_RNvYNtNtCsipbLpstqwUV_8tycho_vm4cont8QuitContNtNtB6_5stack10StackValue13as_cell_sliceB6_
FN:660,_RNvYNtNtCsipbLpstqwUV_8tycho_vm4cont8QuitContNtNtB6_5stack10StackValue13rc_into_tupleB6_
FN:619,_RNvYNtNtCsipbLpstqwUV_8tycho_vm4cont8QuitContNtNtB6_5stack10StackValue15as_cell_builderB6_
FN:608,_RNvYNtNtCsipbLpstqwUV_8tycho_vm4cont8QuitContNtNtB6_5stack10StackValue17try_as_cell_sliceB6_
FN:615,_RNvYNtNtCsipbLpstqwUV_8tycho_vm4cont8QuitContNtNtB6_5stack10StackValue18rc_into_cell_sliceB6_
FN:623,_RNvYNtNtCsipbLpstqwUV_8tycho_vm4cont8QuitContNtNtB6_5stack10StackValue19try_as_cell_builderB6_
FN:630,_RNvYNtNtCsipbLpstqwUV_8tycho_vm4cont8QuitContNtNtB6_5stack10StackValue20rc_into_cell_builderB6_
FN:574,_RNvYNtNtCsipbLpstqwUV_8tycho_vm4cont8QuitContNtNtB6_5stack10StackValue6as_intB6_
FN:589,_RNvYNtNtCsipbLpstqwUV_8tycho_vm4cont8QuitContNtNtB6_5stack10StackValue7as_cellB6_
FN:649,_RNvYNtNtCsipbLpstqwUV_8tycho_vm4cont8QuitContNtNtB6_5stack10StackValue8as_tupleB6_
FN:578,_RNvYNtNtCsipbLpstqwUV_8tycho_vm4cont9AgainContNtNtB6_5stack10StackValue10try_as_intB6_
FN:585,_RNvYNtNtCsipbLpstqwUV_8tycho_vm4cont9AgainContNtNtB6_5stack10StackValue11rc_into_intB6_
FN:593,_RNvYNtNtCsipbLpstqwUV_8tycho_vm4cont9AgainContNtNtB6_5stack10StackValue11try_as_cellB6_
FN:638,_RNvYNtNtCsipbLpstqwUV_8tycho_vm4cont9AgainContNtNtB6_5stack10StackValue11try_as_contB6_
FN:600,_RNvYNtNtCsipbLpstqwUV_8tycho_vm4cont9AgainContNtNtB6_5stack10StackValue12rc_into_cellB6_
FN:653,_RNvYNtNtCsipbLpstqwUV_8tycho_vm4cont9AgainContNtNtB6_5stack10StackValue12try_as_tupleB6_
FN:604,_RNvYNtNtCsipbLpstqwUV_8tycho_vm4cont9AgainContNtNtB6_5stack10StackValue13as_cell_sliceB6_
FN:660,_RNvYNtNtCsipbLpstqwUV_8tycho_vm4cont9AgainContNtNtB6_5stack10StackValue13rc_into_tupleB6_
FN:619,_RNvYNtNtCsipbLpstqwUV_8tycho_vm4cont9AgainContNtNtB6_5stack10StackValue15as_cell_builderB6_
FN:608,_RNvYNtNtCsipbLpstqwUV_8tycho_vm4cont9AgainContNtNtB6_5stack10StackValue17try_as_cell_sliceB6_
FN:615,_RNvYNtNtCsipbLpstqwUV_8tycho_vm4cont9AgainContNtNtB6_5stack10StackValue18rc_into_cell_sliceB6_
FN:623,_RNvYNtNtCsipbLpstqwUV_8tycho_vm4cont9AgainContNtNtB6_5stack10StackValue19try_as_cell_builderB6_
FN:630,_RNvYNtNtCsipbLpstqwUV_8tycho_vm4cont9AgainContNtNtB6_5stack10StackValue20rc_into_cell_builderB6_
FN:574,_RNvYNtNtCsipbLpstqwUV_8tycho_vm4cont9AgainContNtNtB6_5stack10StackValue6as_intB6_
FN:589,_RNvYNtNtCsipbLpstqwUV_8tycho_vm4cont9AgainContNtNtB6_5stack10StackValue7as_cellB6_
FN:649,_RNvYNtNtCsipbLpstqwUV_8tycho_vm4cont9AgainContNtNtB6_5stack10StackValue8as_tupleB6_
FN:578,_RNvYNtNtCsipbLpstqwUV_8tycho_vm4cont9UntilContNtNtB6_5stack10StackValue10try_as_intB6_
FN:585,_RNvYNtNtCsipbLpstqwUV_8tycho_vm4cont9UntilContNtNtB6_5stack10StackValue11rc_into_intB6_
FN:593,_RNvYNtNtCsipbLpstqwUV_8tycho_vm4cont9UntilContNtNtB6_5stack10StackValue11try_as_cellB6_
FN:638,_RNvYNtNtCsipbLpstqwUV_8tycho_vm4cont9UntilContNtNtB6_5stack10StackValue11try_as_contB6_
FN:600,_RNvYNtNtCsipbLpstqwUV_8tycho_vm4cont9UntilContNtNtB6_5stack10StackValue12rc_into_cellB6_
FN:653,_RNvYNtNtCsipbLpstqwUV_8tycho_vm4cont9UntilContNtNtB6_5stack10StackValue12try_as_tupleB6_
FN:604,_RNvYNtNtCsipbLpstqwUV_8tycho_vm4cont9UntilContNtNtB6_5stack10StackValue13as_cell_sliceB6_
FN:660,_RNvYNtNtCsipbLpstqwUV_8tycho_vm4cont9UntilContNtNtB6_5stack10StackValue13rc_into_tupleB6_
FN:619,_RNvYNtNtCsipbLpstqwUV_8tycho_vm4cont9UntilContNtNtB6_5stack10StackValue15as_cell_builderB6_
FN:608,_RNvYNtNtCsipbLpstqwUV_8tycho_vm4cont9UntilContNtNtB6_5stack10StackValue17try_as_cell_sliceB6_
FN:615,_RNvYNtNtCsipbLpstqwUV_8tycho_vm4cont9UntilContNtNtB6_5stack10StackValue18rc_into_cell_sliceB6_
FN:623,_RNvYNtNtCsipbLpstqwUV_8tycho_vm4cont9UntilContNtNtB6_5stack10StackValue19try_as_cell_builderB6_
FN:630,_RNvYNtNtCsipbLpstqwUV_8tycho_vm4cont9UntilContNtNtB6_5stack10StackValue20rc_into_cell_builderB6_
FN:574,_RNvYNtNtCsipbLpstqwUV_8tycho_vm4cont9UntilContNtNtB6_5stack10StackValue6as_intB6_
FN:589,_RNvYNtNtCsipbLpstqwUV_8tycho_vm4cont9UntilContNtNtB6_5stack10StackValue7as_cellB6_
FN:649,_RNvYNtNtCsipbLpstqwUV_8tycho_vm4cont9UntilContNtNtB6_5stack10StackValue8as_tupleB6_
FN:578,_RNvYNtNtCsipbLpstqwUV_8tycho_vm4cont9WhileContNtNtB6_5stack10StackValue10try_as_intB6_
FN:585,_RNvYNtNtCsipbLpstqwUV_8tycho_vm4cont9WhileContNtNtB6_5stack10StackValue11rc_into_intB6_
FN:593,_RNvYNtNtCsipbLpstqwUV_8tycho_vm4cont9WhileContNtNtB6_5stack10StackValue11try_as_cellB6_
FN:638,_RNvYNtNtCsipbLpstqwUV_8tycho_vm4cont9WhileContNtNtB6_5stack10StackValue11try_as_contB6_
FN:600,_RNvYNtNtCsipbLpstqwUV_8tycho_vm4cont9WhileContNtNtB6_5stack10StackValue12rc_into_cellB6_
FN:653,_RNvYNtNtCsipbLpstqwUV_8tycho_vm4cont9WhileContNtNtB6_5stack10StackValue12try_as_tupleB6_
FN:604,_RNvYNtNtCsipbLpstqwUV_8tycho_vm4cont9WhileContNtNtB6_5stack10StackValue13as_cell_sliceB6_
FN:660,_RNvYNtNtCsipbLpstqwUV_8tycho_vm4cont9WhileContNtNtB6_5stack10StackValue13rc_into_tupleB6_
FN:619,_RNvYNtNtCsipbLpstqwUV_8tycho_vm4cont9WhileContNtNtB6_5stack10StackValue15as_cell_builderB6_
FN:608,_RNvYNtNtCsipbLpstqwUV_8tycho_vm4cont9WhileContNtNtB6_5stack10StackValue17try_as_cell_sliceB6_
FN:615,_RNvYNtNtCsipbLpstqwUV_8tycho_vm4cont9WhileContNtNtB6_5stack10StackValue18rc_into_cell_sliceB6_
FN:623,_RNvYNtNtCsipbLpstqwUV_8tycho_vm4cont9WhileContNtNtB6_5stack10StackValue19try_as_cell_builderB6_
FN:630,_RNvYNtNtCsipbLpstqwUV_8tycho_vm4cont9WhileContNtNtB6_5stack10StackValue20rc_into_cell_builderB6_
FN:574,_RNvYNtNtCsipbLpstqwUV_8tycho_vm4cont9WhileContNtNtB6_5stack10StackValue6as_intB6_
FN:589,_RNvYNtNtCsipbLpstqwUV_8tycho_vm4cont9WhileContNtNtB6_5stack10StackValue7as_cellB6_
FN:649,_RNvYNtNtCsipbLpstqwUV_8tycho_vm4cont9WhileContNtNtB6_5stack10StackValue8as_tupleB6_
FN:578,_RNvYNtNtCsipbLpstqwUV_8tycho_vm4util14OwnedCellSliceNtNtB6_5stack10StackValue10try_as_intB6_
FN:585,_RNvYNtNtCsipbLpstqwUV_8tycho_vm4util14OwnedCellSliceNtNtB6_5stack10StackValue11rc_into_intB6_
FN:593,_RNvYNtNtCsipbLpstqwUV_8tycho_vm4util14OwnedCellSliceNtNtB6_5stack10StackValue11try_as_cellB6_
FN:638,_RNvYNtNtCsipbLpstqwUV_8tycho_vm4util14OwnedCellSliceNtNtB6_5stack10StackValue11try_as_contB6_
FN:600,_RNvYNtNtCsipbLpstqwUV_8tycho_vm4util14OwnedCellSliceNtNtB6_5stack10StackValue12rc_into_cellB6_
FN:645,_RNvYNtNtCsipbLpstqwUV_8tycho_vm4util14OwnedCellSliceNtNtB6_5stack10StackValue12rc_into_contB6_
FN:653,_RNvYNtNtCsipbLpstqwUV_8tycho_vm4util14OwnedCellSliceNtNtB6_5stack10StackValue12try_as_tupleB6_
FN:660,_RNvYNtNtCsipbLpstqwUV_8tycho_vm4util14OwnedCellSliceNtNtB6_5stack10StackValue13rc_into_tupleB6_
FN:619,_RNvYNtNtCsipbLpstqwUV_8tycho_vm4util14OwnedCellSliceNtNtB6_5stack10StackValue15as_cell_builderB6_
FN:608,_RNvYNtNtCsipbLpstqwUV_8tycho_vm4util14OwnedCellSliceNtNtB6_5stack10StackValue17try_as_cell_sliceB6_
FN:623,_RNvYNtNtCsipbLpstqwUV_8tycho_vm4util14OwnedCellSliceNtNtB6_5stack10StackValue19try_as_cell_builderB6_
FN:630,_RNvYNtNtCsipbLpstqwUV_8tycho_vm4util14OwnedCellSliceNtNtB6_5stack10StackValue20rc_into_cell_builderB6_
FN:574,_RNvYNtNtCsipbLpstqwUV_8tycho_vm4util14OwnedCellSliceNtNtB6_5stack10StackValue6as_intB6_
FN:589,_RNvYNtNtCsipbLpstqwUV_8tycho_vm4util14OwnedCellSliceNtNtB6_5stack10StackValue7as_cellB6_
FN:634,_RNvYNtNtCsipbLpstqwUV_8tycho_vm4util14OwnedCellSliceNtNtB6_5stack10StackValue7as_contB6_
FN:649,_RNvYNtNtCsipbLpstqwUV_8tycho_vm4util14OwnedCellSliceNtNtB6_5stack10StackValue8as_tupleB6_
FN:593,_RNvYNtNtCsipbLpstqwUV_8tycho_vm5stack3NaNNtB4_10StackValue11try_as_cellB6_
FN:638,_RNvYNtNtCsipbLpstqwUV_8tycho_vm5stack3NaNNtB4_10StackValue11try_as_contB6_
FN:600,_RNvYNtNtCsipbLpstqwUV_8tycho_vm5stack3NaNNtB4_10StackValue12rc_into_cellB6_
FN:645,_RNvYNtNtCsipbLpstqwUV_8tycho_vm5stack3NaNNtB4_10StackValue12rc_into_contB6_
FN:653,_RNvYNtNtCsipbLpstqwUV_8tycho_vm5stack3NaNNtB4_10StackValue12try_as_tupleB6_
FN:604,_RNvYNtNtCsipbLpstqwUV_8tycho_vm5stack3NaNNtB4_10StackValue13as_cell_sliceB6_
FN:660,_RNvYNtNtCsipbLpstqwUV_8tycho_vm5stack3NaNNtB4_10StackValue13rc_into_tupleB6_
FN:619,_RNvYNtNtCsipbLpstqwUV_8tycho_vm5stack3NaNNtB4_10StackValue15as_cell_builderB6_
FN:608,_RNvYNtNtCsipbLpstqwUV_8tycho_vm5stack3NaNNtB4_10StackValue17try_as_cell_sliceB6_
FN:615,_RNvYNtNtCsipbLpstqwUV_8tycho_vm5stack3NaNNtB4_10StackValue18rc_into_cell_sliceB6_
FN:623,_RNvYNtNtCsipbLpstqwUV_8tycho_vm5stack3NaNNtB4_10StackValue19try_as_cell_builderB6_
FN:630,_RNvYNtNtCsipbLpstqwUV_8tycho_vm5stack3NaNNtB4_10StackValue20rc_into_cell_builderB6_
FN:574,_RNvYNtNtCsipbLpstqwUV_8tycho_vm5stack3NaNNtB4_10StackValue6as_intB6_
FN:589,_RNvYNtNtCsipbLpstqwUV_8tycho_vm5stack3NaNNtB4_10StackValue7as_cellB6_
FN:634,_RNvYNtNtCsipbLpstqwUV_8tycho_vm5stack3NaNNtB4_10StackValue7as_contB6_
FN:649,_RNvYNtNtCsipbLpstqwUV_8tycho_vm5stack3NaNNtB4_10StackValue8as_tupleB6_
FN:578,_RNvYNtNtCslhaYGTY3Pkx_10num_bigint6bigint6BigIntNtNtCsipbLpstqwUV_8tycho_vm5stack10StackValue10try_as_intBO_
FN:593,_RNvYNtNtCslhaYGTY3Pkx_10num_bigint6bigint6BigIntNtNtCsipbLpstqwUV_8tycho_vm5stack10StackValue11try_as_cellBO_
FN:638,_RNvYNtNtCslhaYGTY3Pkx_10num_bigint6bigint6BigIntNtNtCsipbLpstqwUV_8tycho_vm5stack10StackValue11try_as_contBO_
FN:600,_RNvYNtNtCslhaYGTY3Pkx_10num_bigint6bigint6BigIntNtNtCsipbLpstqwUV_8tycho_vm5stack10StackValue12rc_into_cellBO_
FN:645,_RNvYNtNtCslhaYGTY3Pkx_10num_bigint6bigint6BigIntNtNtCsipbLpstqwUV_8tycho_vm5stack10StackValue12rc_into_contBO_
FN:653,_RNvYNtNtCslhaYGTY3Pkx_10num_bigint6bigint6BigIntNtNtCsipbLpstqwUV_8tycho_vm5stack10StackValue12try_as_tupleBO_
FN:604,_RNvYNtNtCslhaYGTY3Pkx_10num_bigint6bigint6BigIntNtNtCsipbLpstqwUV_8tycho_vm5stack10StackValue13as_cell_sliceBO_
FN:660,_RNvYNtNtCslhaYGTY3Pkx_10num_bigint6bigint6BigIntNtNtCsipbLpstqwUV_8tycho_vm5stack10StackValue13rc_into_tupleBO_
FN:619,_RNvYNtNtCslhaYGTY3Pkx_10num_bigint6bigint6BigIntNtNtCsipbLpstqwUV_8tycho_vm5stack10StackValue15as_cell_builderBO_
FN:608,_RNvYNtNtCslhaYGTY3Pkx_10num_bigint6bigint6BigIntNtNtCsipbLpstqwUV_8tycho_vm5stack10StackValue17try_as_cell_sliceBO_
FN:615,_RNvYNtNtCslhaYGTY3Pkx_10num_bigint6bigint6BigIntNtNtCsipbLpstqwUV_8tycho_vm5stack10StackValue18rc_into_cell_sliceBO_
FN:623,_RNvYNtNtCslhaYGTY3Pkx_10num_bigint6bigint6BigIntNtNtCsipbLpstqwUV_8tycho_vm5stack10StackValue19try_as_cell_builderBO_
FN:630,_RNvYNtNtCslhaYGTY3Pkx_10num_bigint6bigint6BigIntNtNtCsipbLpstqwUV_8tycho_vm5stack10StackValue20rc_into_cell_builderBO_
FN:589,_RNvYNtNtCslhaYGTY3Pkx_10num_bigint6bigint6BigIntNtNtCsipbLpstqwUV_8tycho_vm5stack10StackValue7as_cellBO_
FN:634,_RNvYNtNtCslhaYGTY3Pkx_10num_bigint6bigint6BigIntNtNtCsipbLpstqwUV_8tycho_vm5stack10StackValue7as_contBO_
FN:649,_RNvYNtNtCslhaYGTY3Pkx_10num_bigint6bigint6BigIntNtNtCsipbLpstqwUV_8tycho_vm5stack10StackValue8as_tupleBO_
FN:578,_RNvYNtNtNtCsdL4DZEAGarf_15everscale_types4cell7builder11CellBuilderNtNtCsipbLpstqwUV_8tycho_vm5stack10StackValue10try_as_intB17_
FN:585,_RNvYNtNtNtCsdL4DZEAGarf_15everscale_types4cell7builder11CellBuilderNtNtCsipbLpstqwUV_8tycho_vm5stack10StackValue11rc_into_intB17_
FN:593,_RNvYNtNtNtCsdL4DZEAGarf_15everscale_types4cell7builder11CellBuilderNtNtCsipbLpstqwUV_8tycho_vm5stack10StackValue11try_as_cellB17_
FN:638,_RNvYNtNtNtCsdL4DZEAGarf_15everscale_types4cell7builder11CellBuilderNtNtCsipbLpstqwUV_8tycho_vm5stack10StackValue11try_as_contB17_
FN:600,_RNvYNtNtNtCsdL4DZEAGarf_15everscale_types4cell7builder11CellBuilderNtNtCsipbLpstqwUV_8tycho_vm5stack10StackValue12rc_into_cellB17_
FN:645,_RNvYNtNtNtCsdL4DZEAGarf_15everscale_types4cell7builder11CellBuilderNtNtCsipbLpstqwUV_8tycho_vm5stack10StackValue12rc_into_contB17_
FN:653,_RNvYNtNtNtCsdL4DZEAGarf_15everscale_types4cell7builder11CellBuilderNtNtCsipbLpstqwUV_8tycho_vm5stack10StackValue12try_as_tupleB17_
FN:604,_RNvYNtNtNtCsdL4DZEAGarf_15everscale_types4cell7builder11CellBuilderNtNtCsipbLpstqwUV_8tycho_vm5stack10StackValue13as_cell_sliceB17_
FN:660,_RNvYNtNtNtCsdL4DZEAGarf_15everscale_types4cell7builder11CellBuilderNtNtCsipbLpstqwUV_8tycho_vm5stack10StackValue13rc_into_tupleB17_
FN:608,_RNvYNtNtNtCsdL4DZEAGarf_15everscale_types4cell7builder11CellBuilderNtNtCsipbLpstqwUV_8tycho_vm5stack10StackValue17try_as_cell_sliceB17_
FN:615,_RNvYNtNtNtCsdL4DZEAGarf_15everscale_types4cell7builder11CellBuilderNtNtCsipbLpstqwUV_8tycho_vm5stack10StackValue18rc_into_cell_sliceB17_
FN:623,_RNvYNtNtNtCsdL4DZEAGarf_15everscale_types4cell7builder11CellBuilderNtNtCsipbLpstqwUV_8tycho_vm5stack10StackValue19try_as_cell_builderB17_
FN:574,_RNvYNtNtNtCsdL4DZEAGarf_15everscale_types4cell7builder11CellBuilderNtNtCsipbLpstqwUV_8tycho_vm5stack10StackValue6as_intB17_
FN:589,_RNvYNtNtNtCsdL4DZEAGarf_15everscale_types4cell7builder11CellBuilderNtNtCsipbLpstqwUV_8tycho_vm5stack10StackValue7as_cellB17_
FN:634,_RNvYNtNtNtCsdL4DZEAGarf_15everscale_types4cell7builder11CellBuilderNtNtCsipbLpstqwUV_8tycho_vm5stack10StackValue7as_contB17_
FN:649,_RNvYNtNtNtCsdL4DZEAGarf_15everscale_types4cell7builder11CellBuilderNtNtCsipbLpstqwUV_8tycho_vm5stack10StackValue8as_tupleB17_
FN:578,_RNvYNtNtNtNtCsdL4DZEAGarf_15everscale_types4cell9cell_impl2rc4CellNtNtCsipbLpstqwUV_8tycho_vm5stack10StackValue10try_as_intB16_
FN:585,_RNvYNtNtNtNtCsdL4DZEAGarf_15everscale_types4cell9cell_impl2rc4CellNtNtCsipbLpstqwUV_8tycho_vm5stack10StackValue11rc_into_intB16_
FN:593,_RNvYNtNtNtNtCsdL4DZEAGarf_15everscale_types4cell9cell_impl2rc4CellNtNtCsipbLpstqwUV_8tycho_vm5stack10StackValue11try_as_cellB16_
FN:638,_RNvYNtNtNtNtCsdL4DZEAGarf_15everscale_types4cell9cell_impl2rc4CellNtNtCsipbLpstqwUV_8tycho_vm5stack10StackValue11try_as_contB16_
FN:645,_RNvYNtNtNtNtCsdL4DZEAGarf_15everscale_types4cell9cell_impl2rc4CellNtNtCsipbLpstqwUV_8tycho_vm5stack10StackValue12rc_into_contB16_
FN:653,_RNvYNtNtNtNtCsdL4DZEAGarf_15everscale_types4cell9cell_impl2rc4CellNtNtCsipbLpstqwUV_8tycho_vm5stack10StackValue12try_as_tupleB16_
FN:604,_RNvYNtNtNtNtCsdL4DZEAGarf_15everscale_types4cell9cell_impl2rc4CellNtNtCsipbLpstqwUV_8tycho_vm5stack10StackValue13as_cell_sliceB16_
FN:660,_RNvYNtNtNtNtCsdL4DZEAGarf_15everscale_types4cell9cell_impl2rc4CellNtNtCsipbLpstqwUV_8tycho_vm5stack10StackValue13rc_into_tupleB16_
FN:619,_RNvYNtNtNtNtCsdL4DZEAGarf_15everscale_types4cell9cell_impl2rc4CellNtNtCsipbLpstqwUV_8tycho_vm5stack10StackValue15as_cell_builderB16_
FN:608,_RNvYNtNtNtNtCsdL4DZEAGarf_15everscale_types4cell9cell_impl2rc4CellNtNtCsipbLpstqwUV_8tycho_vm5stack10StackValue17try_as_cell_sliceB16_
FN:615,_RNvYNtNtNtNtCsdL4DZEAGarf_15everscale_types4cell9cell_impl2rc4CellNtNtCsipbLpstqwUV_8tycho_vm5stack10StackValue18rc_into_cell_sliceB16_
FN:623,_RNvYNtNtNtNtCsdL4DZEAGarf_15everscale_types4cell9cell_impl2rc4CellNtNtCsipbLpstqwUV_8tycho_vm5stack10StackValue19try_as_cell_builderB16_
FN:630,_RNvYNtNtNtNtCsdL4DZEAGarf_15everscale_types4cell9cell_impl2rc4CellNtNtCsipbLpstqwUV_8tycho_vm5stack10StackValue20rc_into_cell_builderB16_
FN:574,_RNvYNtNtNtNtCsdL4DZEAGarf_15everscale_types4cell9cell_impl2rc4CellNtNtCsipbLpstqwUV_8tycho_vm5stack10StackValue6as_intB16_
FN:634,_RNvYNtNtNtNtCsdL4DZEAGarf_15everscale_types4cell9cell_impl2rc4CellNtNtCsipbLpstqwUV_8tycho_vm5stack10StackValue7as_contB16_
FN:649,_RNvYNtNtNtNtCsdL4DZEAGarf_15everscale_types4cell9cell_impl2rc4CellNtNtCsipbLpstqwUV_8tycho_vm5stack10StackValue8as_tupleB16_
FN:578,_RNvYuNtNtCsipbLpstqwUV_8tycho_vm5stack10StackValue10try_as_intB7_
FN:585,_RNvYuNtNtCsipbLpstqwUV_8tycho_vm5stack10StackValue11rc_into_intB7_
FN:593,_RNvYuNtNtCsipbLpstqwUV_8tycho_vm5stack10StackValue11try_as_cellB7_
FN:638,_RNvYuNtNtCsipbLpstqwUV_8tycho_vm5stack10StackValue11try_as_contB7_
FN:600,_RNvYuNtNtCsipbLpstqwUV_8tycho_vm5stack10StackValue12rc_into_cellB7_
FN:645,_RNvYuNtNtCsipbLpstqwUV_8tycho_vm5stack10StackValue12rc_into_contB7_
FN:653,_RNvYuNtNtCsipbLpstqwUV_8tycho_vm5stack10StackValue12try_as_tupleB7_
FN:604,_RNvYuNtNtCsipbLpstqwUV_8tycho_vm5stack10StackValue13as_cell_sliceB7_
FN:660,_RNvYuNtNtCsipbLpstqwUV_8tycho_vm5stack10StackValue13rc_into_tupleB7_
FN:619,_RNvYuNtNtCsipbLpstqwUV_8tycho_vm5stack10StackValue15as_cell_builderB7_
FN:608,_RNvYuNtNtCsipbLpstqwUV_8tycho_vm5stack10StackValue17try_as_cell_sliceB7_
FN:615,_RNvYuNtNtCsipbLpstqwUV_8tycho_vm5stack10StackValue18rc_into_cell_sliceB7_
FN:623,_RNvYuNtNtCsipbLpstqwUV_8tycho_vm5stack10StackValue19try_as_cell_builderB7_
FN:630,_RNvYuNtNtCsipbLpstqwUV_8tycho_vm5stack10StackValue20rc_into_cell_builderB7_
FN:574,_RNvYuNtNtCsipbLpstqwUV_8tycho_vm5stack10StackValue6as_intB7_
FN:589,_RNvYuNtNtCsipbLpstqwUV_8tycho_vm5stack10StackValue7as_cellB7_
FN:634,_RNvYuNtNtCsipbLpstqwUV_8tycho_vm5stack10StackValue7as_contB7_
FN:649,_RNvYuNtNtCsipbLpstqwUV_8tycho_vm5stack10StackValue8as_tupleB7_
FN:475,_RINvXs1_NtCsipbLpstqwUV_8tycho_vm5stackNtB6_5StackINtNtNtNtCscHntIWw2aYb_4core4iter6traits7collect12FromIteratorINtNtB8_6saferc6SafeRcDNtB6_10StackValueEL_EE9from_iterpEB8_
FN:1181,_RINvYpNtNtCsipbLpstqwUV_8tycho_vm5stack8TupleExt13try_get_ownedpEB8_
FN:164,_RNvMNtCsipbLpstqwUV_8tycho_vm5stackNtB2_5Stack12display_dump
FN:1430,_RNvXININtCsipbLpstqwUV_8tycho_vm5stackst_0pEINtNtB7_6saferc6SafeRcDNtB5_10StackValueEL_EINtNtCscHntIWw2aYb_4core7convert4FrompE4fromB7_
FN:1437,_RNvXININtCsipbLpstqwUV_8tycho_vm5stacksu_0pEINtNtB7_6saferc6SafeRcDNtB5_10StackValueEL_EINtNtCscHntIWw2aYb_4core7convert4FromINtNtCs8f1B5igIjLM_5alloc2rc2RcpEE4fromB7_
FN:797,_RNvXs6_NtCsipbLpstqwUV_8tycho_vm5stackuNtNtB7_6saferc13SafeRcMakeMut11rc_make_mut
FN:842,_RNvXs8_NtCsipbLpstqwUV_8tycho_vm5stackNtB5_3NaNNtNtB7_6saferc13SafeRcMakeMut11rc_make_mut
FN:892,_RNvXsa_NtCsipbLpstqwUV_8tycho_vm5stackNtNtCslhaYGTY3Pkx_10num_bigint6bigint6BigIntNtB5_16StaticStackValue8known_ty
FN:956,_RNvXsd_NtCsipbLpstqwUV_8tycho_vm5stackNtNtNtNtCsdL4DZEAGarf_15everscale_types4cell9cell_impl2rc4CellNtB5_16StaticStackValue8known_ty
FN:977,_RNvXse_NtCsipbLpstqwUV_8tycho_vm5stackNtNtNtNtCsdL4DZEAGarf_15everscale_types4cell9cell_impl2rc4CellNtNtB7_6saferc13SafeRcMakeMut11rc_make_mut
FN:1020,_RNvXsg_NtCsipbLpstqwUV_8tycho_vm5stackNtNtB7_4util14OwnedCellSliceNtB5_16StaticStackValue8known_ty
FN:1089,_RNvXsj_NtCsipbLpstqwUV_8tycho_vm5stackNtNtNtCsdL4DZEAGarf_15everscale_types4cell7builder11CellBuilderNtB5_16StaticStackValue8known_ty
FN:1145,_RNvXsl_NtCsipbLpstqwUV_8tycho_vm5stackDNtNtB7_4cont4ContEL_NtB5_10StackValue12rc_into_cont
FN:1123,_RNvXsl_NtCsipbLpstqwUV_8tycho_vm5stackDNtNtB7_4cont4ContEL_NtB5_10StackValue2ty
FN:1141,_RNvXsl_NtCsipbLpstqwUV_8tycho_vm5stackDNtNtB7_4cont4ContEL_NtB5_10StackValue7as_cont
FN:1153,_RNvXsm_NtCsipbLpstqwUV_8tycho_vm5stackDNtNtB7_4cont4ContEL_NtB5_16StaticStackValue8known_ty
FN:1296,_RNvXsp_NtCsipbLpstqwUV_8tycho_vm5stackINtNtCs8f1B5igIjLM_5alloc3vec3VecINtNtB7_6saferc6SafeRcDNtB5_10StackValueEL_EENtB5_16StaticStackValue8known_ty
FNDA:26471,_RINvMsr_NtCsipbLpstqwUV_8tycho_vm5stackINtNtB8_6saferc6SafeRcDNtB6_10StackValueEL_E13new_dyn_valueINtNtCs8f1B5igIjLM_5alloc3vec3VecBB_EECscQlb7znvrtA_9vm_opcode
FNDA:16011,_RINvMsr_NtCsipbLpstqwUV_8tycho_vm5stackINtNtB8_6saferc6SafeRcDNtB6_10StackValueEL_E13new_dyn_valueNtNtCslhaYGTY3Pkx_10num_bigint6bigint6BigIntECscQlb7znvrtA_9vm_opcode
FNDA:17716,_RINvMsr_NtCsipbLpstqwUV_8tycho_vm5stackINtNtB8_6saferc6SafeRcDNtB6_10StackValueEL_E13new_dyn_valueNtNtNtCsdL4DZEAGarf_15everscale_types4cell7builder11CellBuilderECscQlb7znvrtA_9vm_opcode
FNDA:4087,_RINvMsr_NtCsipbLpstqwUV_8tycho_vm5stackINtNtB8_6saferc6SafeRcDNtB6_10StackValueEL_E13new_dyn_valueNtNtNtNtCsdL4DZEAGarf_15everscale_types4cell9cell_impl2rc4CellECscQlb7znvrtA_9vm_opcode
FNDA:47097,_RNvMNtCsipbLpstqwUV_8tycho_vm5stackNtB2_5Stack10with_items
FNDA:53740369,_RNvXs9_NtCsipbLpstqwUV_8tycho_vm5stackNtNtCslhaYGTY3Pkx_10num_bigint6bigint6BigIntNtB5_10StackValue11rc_into_dyn
FNDA:31250568,_RNvXs9_NtCsipbLpstqwUV_8tycho_vm5stackNtNtCslhaYGTY3Pkx_10num_bigint6bigint6BigIntNtB5_10StackValue11rc_into_int
FNDA:18992458,_RNvXs9_NtCsipbLpstqwUV_8tycho_vm5stackNtNtCslhaYGTY3Pkx_10num_bigint6bigint6BigIntNtB5_10StackValue2ty
FNDA:16678522,_RNvXs9_NtCsipbLpstqwUV_8tycho_vm5stackNtNtCslhaYGTY3Pkx_10num_bigint6bigint6BigIntNtB5_10StackValue6as_int
FNDA:48862270,_RNvXsJ_NtCsipbLpstqwUV_8tycho_vm5stackNtNtCslhaYGTY3Pkx_10num_bigint6bigint6BigIntNtNtB7_6saferc10SafeDelete19rc_into_safe_delete
FNDA:744876,_RNvXsK_NtCsipbLpstqwUV_8tycho_vm5stackNtNtNtNtCsdL4DZEAGarf_15everscale_types4cell9cell_impl2rc4CellNtNtB7_6saferc10SafeDelete19rc_into_safe_delete
FNDA:1757773,_RNvXsM_NtCsipbLpstqwUV_8tycho_vm5stackNtNtNtCsdL4DZEAGarf_15everscale_types4cell7builder11CellBuilderNtNtB7_6saferc10SafeDelete19rc_into_safe_delete
FNDA:1807702,_RNvXsN_NtCsipbLpstqwUV_8tycho_vm5stackINtNtCs8f1B5igIjLM_5alloc3vec3VecINtNtB7_6saferc6SafeRcDNtB5_10StackValueEL_EENtB1a_10SafeDelete19rc_into_safe_delete
FNDA:8039212,_RNvXs_NtCsipbLpstqwUV_8tycho_vm5stackNtB4_5StackNtNtB6_6saferc10SafeDelete19rc_into_safe_delete
FNDA:765280,_RNvXsc_NtCsipbLpstqwUV_8tycho_vm5stackNtNtNtNtCsdL4DZEAGarf_15everscale_types4cell9cell_impl2rc4CellNtB5_10StackValue11rc_into_dyn
FNDA:871666,_RNvXsc_NtCsipbLpstqwUV_8tycho_vm5stackNtNtNtNtCsdL4DZEAGarf_15everscale_types4cell9cell_impl2rc4CellNtB5_10StackValue12rc_into_cell
FNDA:461384,_RNvXsc_NtCsipbLpstqwUV_8tycho_vm5stackNtNtNtNtCsdL4DZEAGarf_15everscale_types4cell9cell_impl2rc4CellNtB5_10StackValue2ty
FNDA:101988,_RNvXsc_NtCsipbLpstqwUV_8tycho_vm5stackNtNtNtNtCsdL4DZEAGarf_15everscale_types4cell9cell_impl2rc4CellNtB5_10StackValue7as_cell
FNDA:2331114,_RNvXsi_NtCsipbLpstqwUV_8tycho_vm5stackNtNtNtCsdL4DZEAGarf_15everscale_types4cell7builder11CellBuilderNtB5_10StackValue11rc_into_dyn
FNDA:156466,_RNvXsi_NtCsipbLpstqwUV_8tycho_vm5stackNtNtNtCsdL4DZEAGarf_15everscale_types4cell7builder11CellBuilderNtB5_10StackValue15as_cell_builder
FNDA:993718,_RNvXsi_NtCsipbLpstqwUV_8tycho_vm5stackNtNtNtCsdL4DZEAGarf_15everscale_types4cell7builder11CellBuilderNtB5_10StackValue20rc_into_cell_builder
FNDA:119511,_RNvXsi_NtCsipbLpstqwUV_8tycho_vm5stackNtNtNtCsdL4DZEAGarf_15everscale_types4cell7builder11CellBuilderNtB5_10StackValue2ty
FNDA:1584667,_RNvXso_NtCsipbLpstqwUV_8tycho_vm5stackINtNtCs8f1B5igIjLM_5alloc3vec3VecINtNtB7_6saferc6SafeRcDNtB5_10StackValueEL_EEB1u_11rc_into_dyn
FNDA:934094,_RNvXso_NtCsipbLpstqwUV_8tycho_vm5stackINtNtCs8f1B5igIjLM_5alloc3vec3VecINtNtB7_6saferc6SafeRcDNtB5_10StackValueEL_EEB1u_13rc_into_tuple
FNDA:651611,_RNvXso_NtCsipbLpstqwUV_8tycho_vm5stackINtNtCs8f1B5igIjLM_5alloc3vec3VecINtNtB7_6saferc6SafeRcDNtB5_10StackValueEL_EEB1u_2ty
FNDA:0,_RNvYINtNtCs8f1B5igIjLM_5alloc3vec3VecINtNtCsipbLpstqwUV_8tycho_vm6saferc6SafeRcDNtNtBE_5stack10StackValueEL_EEB1g_10try_as_intCscQlb7znvrtA_9vm_opcode
FNDA:13106,_RNvYINtNtCs8f1B5igIjLM_5alloc3vec3VecINtNtCsipbLpstqwUV_8tycho_vm6saferc6SafeRcDNtNtBE_5stack10StackValueEL_EEB1g_11rc_into_intCscQlb7znvrtA_9vm_opcode
FNDA:195,_RNvYINtNtCs8f1B5igIjLM_5alloc3vec3VecINtNtCsipbLpstqwUV_8tycho_vm6saferc6SafeRcDNtNtBE_5stack10StackValueEL_EEB1g_11try_as_cellCscQlb7znvrtA_9vm_opcode
FNDA:0,_RNvYINtNtCs8f1B5igIjLM_5alloc3vec3VecINtNtCsipbLpstqwUV_8tycho_vm6saferc6SafeRcDNtNtBE_5stack10StackValueEL_EEB1g_11try_as_contCscQlb7znvrtA_9vm_opcode
FNDA:591,_RNvYINtNtCs8f1B5igIjLM_5alloc3vec3VecINtNtCsipbLpstqwUV_8tycho_vm6saferc6SafeRcDNtNtBE_5stack10StackValueEL_EEB1g_12rc_into_cellCscQlb7znvrtA_9vm_opcode
FNDA:332,_RNvYINtNtCs8f1B5igIjLM_5alloc3vec3VecINtNtCsipbLpstqwUV_8tycho_vm6saferc6SafeRcDNtNtBE_5stack10StackValueEL_EEB1g_12rc_into_contCscQlb7znvrtA_9vm_opcode
FNDA:0,_RNvYINtNtCs8f1B5igIjLM_5alloc3vec3VecINtNtCsipbLpstqwUV_8tycho_vm6saferc6SafeRcDNtNtBE_5stack10StackValueEL_EEB1g_12try_as_tupleCscQlb7znvrtA_9vm_opcode
FNDA:296,_RNvYINtNtCs8f1B5igIjLM_5alloc3vec3VecINtNtCsipbLpstqwUV_8tycho_vm6saferc6SafeRcDNtNtBE_5stack10StackValueEL_EEB1g_13as_cell_sliceCscQlb7znvrtA_9vm_opcode
FNDA:271,_RNvYINtNtCs8f1B5igIjLM_5alloc3vec3VecINtNtCsipbLpstqwUV_8tycho_vm6saferc6SafeRcDNtNtBE_5stack10StackValueEL_EEB1g_15as_cell_builderCscQlb7znvrtA_9vm_opcode
FNDA:195,_RNvYINtNtCs8f1B5igIjLM_5alloc3vec3VecINtNtCsipbLpstqwUV_8tycho_vm6saferc6SafeRcDNtNtBE_5stack10StackValueEL_EEB1g_17try_as_cell_sliceCscQlb7znvrtA_9vm_opcode
FNDA:279,_RNvYINtNtCs8f1B5igIjLM_5alloc3vec3VecINtNtCsipbLpstqwUV_8tycho_vm6saferc6SafeRcDNtNtBE_5stack10StackValueEL_EEB1g_18rc_into_cell_sliceCscQlb7znvrtA_9vm_opcode
FNDA:227,_RNvYINtNtCs8f1B5igIjLM_5alloc3vec3VecINtNtCsipbLpstqwUV_8tycho_vm6saferc6SafeRcDNtNtBE_5stack10StackValueEL_EEB1g_19try_as_cell_builderCscQlb7znvrtA_9vm_opcode
FNDA:257,_RNvYINtNtCs8f1B5igIjLM_5alloc3vec3VecINtNtCsipbLpstqwUV_8tycho_vm6saferc6SafeRcDNtNtBE_5stack10StackValueEL_EEB1g_20rc_into_cell_builderCscQlb7znvrtA_9vm_opcode
FNDA:0,_RNvYINtNtCs8f1B5igIjLM_5alloc3vec3VecINtNtCsipbLpstqwUV_8tycho_vm6saferc6SafeRcDNtNtBE_5stack10StackValueEL_EEB1g_6as_intCscQlb7znvrtA_9vm_opcode
FNDA:254,_RNvYINtNtCs8f1B5igIjLM_5alloc3vec3VecINtNtCsipbLpstqwUV_8tycho_vm6saferc6SafeRcDNtNtBE_5stack10StackValueEL_EEB1g_7as_cellCscQlb7znvrtA_9vm_opcode
FNDA:0,_RNvYINtNtCs8f1B5igIjLM_5alloc3vec3VecINtNtCsipbLpstqwUV_8tycho_vm6saferc6SafeRcDNtNtBE_5stack10StackValueEL_EEB1g_7as_contCscQlb7znvrtA_9vm_opcode
FNDA:0,_RNvYNtNtCslhaYGTY3Pkx_10num_bigint6bigint6BigIntNtNtCsipbLpstqwUV_8tycho_vm5stack10StackValue10try_as_intCscQlb7znvrtA_9vm_opcode
FNDA:194,_RNvYNtNtCslhaYGTY3Pkx_10num_bigint6bigint6BigIntNtNtCsipbLpstqwUV_8tycho_vm5stack10StackValue11try_as_cellCscQlb7znvrtA_9vm_opcode
FNDA:0,_RNvYNtNtCslhaYGTY3Pkx_10num_bigint6bigint6BigIntNtNtCsipbLpstqwUV_8tycho_vm5stack10StackValue11try_as_contCscQlb7znvrtA_9vm_opcode
FNDA:269,_RNvYNtNtCslhaYGTY3Pkx_10num_bigint6bigint6BigIntNtNtCsipbLpstqwUV_8tycho_vm5stack10StackValue12rc_into_cellCscQlb7znvrtA_9vm_opcode
FNDA:9099,_RNvYNtNtCslhaYGTY3Pkx_10num_bigint6bigint6BigIntNtNtCsipbLpstqwUV_8tycho_vm5stack10StackValue12rc_into_contCscQlb7znvrtA_9vm_opcode
FNDA:0,_RNvYNtNtCslhaYGTY3Pkx_10num_bigint6bigint6BigIntNtNtCsipbLpstqwUV_8tycho_vm5stack10StackValue12try_as_tupleCscQlb7znvrtA_9vm_opcode
FNDA:340,_RNvYNtNtCslhaYGTY3Pkx_10num_bigint6bigint6BigIntNtNtCsipbLpstqwUV_8tycho_vm5stack10StackValue13as_cell_sliceCscQlb7znvrtA_9vm_opcode
FNDA:1056,_RNvYNtNtCslhaYGTY3Pkx_10num_bigint6bigint6BigIntNtNtCsipbLpstqwUV_8tycho_vm5stack10StackValue13rc_into_tupleCscQlb7znvrtA_9vm_opcode
FNDA:370,_RNvYNtNtCslhaYGTY3Pkx_10num_bigint6bigint6BigIntNtNtCsipbLpstqwUV_8tycho_vm5stack10StackValue15as_cell_builderCscQlb7znvrtA_9vm_opcode
FNDA:194,_RNvYNtNtCslhaYGTY3Pkx_10num_bigint6bigint6BigIntNtNtCsipbLpstqwUV_8tycho_vm5stack10StackValue17try_as_cell_sliceCscQlb7znvrtA_9vm_opcode
FNDA:2830,_RNvYNtNtCslhaYGTY3Pkx_10num_bigint6bigint6BigIntNtNtCsipbLpstqwUV_8tycho_vm5stack10StackValue18rc_into_cell_sliceCscQlb7znvrtA_9vm_opcode
FNDA:229,_RNvYNtNtCslhaYGTY3Pkx_10num_bigint6bigint6BigIntNtNtCsipbLpstqwUV_8tycho_vm5stack10StackValue19try_as_cell_builderCscQlb7znvrtA_9vm_opcode
FNDA:284,_RNvYNtNtCslhaYGTY3Pkx_10num_bigint6bigint6BigIntNtNtCsipbLpstqwUV_8tycho_vm5stack10StackValue20rc_into_cell_builderCscQlb7znvrtA_9vm_opcode
FNDA:6251,_RNvYNtNtCslhaYGTY3Pkx_10num_bigint6bigint6BigIntNtNtCsipbLpstqwUV_8tycho_vm5stack10StackValue7as_cellCscQlb7znvrtA_9vm_opcode
FNDA:0,_RNvYNtNtCslhaYGTY3Pkx_10num_bigint6bigint6BigIntNtNtCsipbLpstqwUV_8tycho_vm5stack10StackValue7as_contCscQlb7znvrtA_9vm_opcode
FNDA:4488,_RNvYNtNtCslhaYGTY3Pkx_10num_bigint6bigint6BigIntNtNtCsipbLpstqwUV_8tycho_vm5stack10StackValue8as_tupleCscQlb7znvrtA_9vm_opcode
FNDA:0,_RNvYNtNtNtCsdL4DZEAGarf_15everscale_types4cell7builder11CellBuilderNtNtCsipbLpstqwUV_8tycho_vm5stack10StackValue10try_as_intCscQlb7znvrtA_9vm_opcode
FNDA:12846,_RNvYNtNtNtCsdL4DZEAGarf_15everscale_types4cell7builder11CellBuilderNtNtCsipbLpstqwUV_8tycho_vm5stack10StackValue11rc_into_intCscQlb7znvrtA_9vm_opcode
FNDA:195,_RNvYNtNtNtCsdL4DZEAGarf_15everscale_types4cell7builder11CellBuilderNtNtCsipbLpstqwUV_8tycho_vm5stack10StackValue11try_as_cellCscQlb7znvrtA_9vm_opcode
FNDA:0,_RNvYNtNtNtCsdL4DZEAGarf_15everscale_types4cell7builder11CellBuilderNtNtCsipbLpstqwUV_8tycho_vm5stack10StackValue11try_as_contCscQlb7znvrtA_9vm_opcode
FNDA:6379,_RNvYNtNtNtCsdL4DZEAGarf_15everscale_types4cell7builder11CellBuilderNtNtCsipbLpstqwUV_8tycho_vm5stack10StackValue12rc_into_cellCscQlb7znvrtA_9vm_opcode
FNDA:423,_RNvYNtNtNtCsdL4DZEAGarf_15everscale_types4cell7builder11CellBuilderNtNtCsipbLpstqwUV_8tycho_vm5stack10StackValue12rc_into_contCscQlb7znvrtA_9vm_opcode
FNDA:0,_RNvYNtNtNtCsdL4DZEAGarf_15everscale_types4cell7builder11CellBuilderNtNtCsipbLpstqwUV_8tycho_vm5stack10StackValue12try_as_tupleCscQlb7znvrtA_9vm_opcode
FNDA:7047,_RNvYNtNtNtCsdL4DZEAGarf_15everscale_types4cell7builder11CellBuilderNtNtCsipbLpstqwUV_8tycho_vm5stack10StackValue13as_cell_sliceCscQlb7znvrtA_9vm_opcode
FNDA:4332,_RNvYNtNtNtCsdL4DZEAGarf_15everscale_types4cell7builder11CellBuilderNtNtCsipbLpstqwUV_8tycho_vm5stack10StackValue13rc_into_tupleCscQlb7znvrtA_9vm_opcode
FNDA:195,_RNvYNtNtNtCsdL4DZEAGarf_15everscale_types4cell7builder11CellBuilderNtNtCsipbLpstqwUV_8tycho_vm5stack10StackValue17try_as_cell_sliceCscQlb7znvrtA_9vm_opcode
FNDA:440,_RNvYNtNtNtCsdL4DZEAGarf_15everscale_types4cell7builder11CellBuilderNtNtCsipbLpstqwUV_8tycho_vm5stack10StackValue18rc_into_cell_sliceCscQlb7znvrtA_9vm_opcode
FNDA:230,_RNvYNtNtNtCsdL4DZEAGarf_15everscale_types4cell7builder11CellBuilderNtNtCsipbLpstqwUV_8tycho_vm5stack10StackValue19try_as_cell_builderCscQlb7znvrtA_9vm_opcode
FNDA:0,_RNvYNtNtNtCsdL4DZEAGarf_15everscale_types4cell7builder11CellBuilderNtNtCsipbLpstqwUV_8tycho_vm5stack10StackValue6as_intCscQlb7znvrtA_9vm_opcode
FNDA:202,_RNvYNtNtNtCsdL4DZEAGarf_15everscale_types4cell7builder11CellBuilderNtNtCsipbLpstqwUV_8tycho_vm5stack10StackValue7as_cellCscQlb7znvrtA_9vm_opcode
FNDA:0,_RNvYNtNtNtCsdL4DZEAGarf_15everscale_types4cell7builder11CellBuilderNtNtCsipbLpstqwUV_8tycho_vm5stack10StackValue7as_contCscQlb7znvrtA_9vm_opcode
FNDA:42,_RNvYNtNtNtCsdL4DZEAGarf_15everscale_types4cell7builder11CellBuilderNtNtCsipbLpstqwUV_8tycho_vm5stack10StackValue8as_tupleCscQlb7znvrtA_9vm_opcode
FNDA:0,_RNvYNtNtNtNtCsdL4DZEAGarf_15everscale_types4cell9cell_impl2rc4CellNtNtCsipbLpstqwUV_8tycho_vm5stack10StackValue10try_as_intCscQlb7znvrtA_9vm_opcode
FNDA:9477,_RNvYNtNtNtNtCsdL4DZEAGarf_15everscale_types4cell9cell_impl2rc4CellNtNtCsipbLpstqwUV_8tycho_vm5stack10StackValue11rc_into_intCscQlb7znvrtA_9vm_opcode
FNDA:15731,_RNvYNtNtNtNtCsdL4DZEAGarf_15everscale_types4cell9cell_impl2rc4CellNtNtCsipbLpstqwUV_8tycho_vm5stack10StackValue11try_as_cellCscQlb7znvrtA_9vm_opcode
FNDA:0,_RNvYNtNtNtNtCsdL4DZEAGarf_15everscale_types4cell9cell_impl2rc4CellNtNtCsipbLpstqwUV_8tycho_vm5stack10StackValue11try_as_contCscQlb7znvrtA_9vm_opcode
FNDA:311,_RNvYNtNtNtNtCsdL4DZEAGarf_15everscale_types4cell9cell_impl2rc4CellNtNtCsipbLpstqwUV_8tycho_vm5stack10StackValue12rc_into_contCscQlb7znvrtA_9vm_opcode
FNDA:0,_RNvYNtNtNtNtCsdL4DZEAGarf_15everscale_types4cell9cell_impl2rc4CellNtNtCsipbLpstqwUV_8tycho_vm5stack10StackValue12try_as_tupleCscQlb7znvrtA_9vm_opcode
FNDA:1954,_RNvYNtNtNtNtCsdL4DZEAGarf_15everscale_types4cell9cell_impl2rc4CellNtNtCsipbLpstqwUV_8tycho_vm5stack10StackValue13as_cell_sliceCscQlb7znvrtA_9vm_opcode
FNDA:208,_RNvYNtNtNtNtCsdL4DZEAGarf_15everscale_types4cell9cell_impl2rc4CellNtNtCsipbLpstqwUV_8tycho_vm5stack10StackValue13rc_into_tupleCscQlb7znvrtA_9vm_opcode
FNDA:212,_RNvYNtNtNtNtCsdL4DZEAGarf_15everscale_types4cell9cell_impl2rc4CellNtNtCsipbLpstqwUV_8tycho_vm5stack10StackValue15as_cell_builderCscQlb7znvrtA_9vm_opcode
FNDA:1935,_RNvYNtNtNtNtCsdL4DZEAGarf_15everscale_types4cell9cell_impl2rc4CellNtNtCsipbLpstqwUV_8tycho_vm5stack10StackValue17try_as_cell_sliceCscQlb7znvrtA_9vm_opcode
FNDA:2874,_RNvYNtNtNtNtCsdL4DZEAGarf_15everscale_types4cell9cell_impl2rc4CellNtNtCsipbLpstqwUV_8tycho_vm5stack10StackValue18rc_into_cell_sliceCscQlb7znvrtA_9vm_opcode
FNDA:195,_RNvYNtNtNtNtCsdL4DZEAGarf_15everscale_types4cell9cell_impl2rc4CellNtNtCsipbLpstqwUV_8tycho_vm5stack10StackValue19try_as_cell_builderCscQlb7znvrtA_9vm_opcode
FNDA:286,_RNvYNtNtNtNtCsdL4DZEAGarf_15everscale_types4cell9cell_impl2rc4CellNtNtCsipbLpstqwUV_8tycho_vm5stack10StackValue20rc_into_cell_builderCscQlb7znvrtA_9vm_opcode
FNDA:0,_RNvYNtNtNtNtCsdL4DZEAGarf_15everscale_types4cell9cell_impl2rc4CellNtNtCsipbLpstqwUV_8tycho_vm5stack10StackValue6as_intCscQlb7znvrtA_9vm_opcode
FNDA:0,_RNvYNtNtNtNtCsdL4DZEAGarf_15everscale_types4cell9cell_impl2rc4CellNtNtCsipbLpstqwUV_8tycho_vm5stack10StackValue7as_contCscQlb7znvrtA_9vm_opcode
FNDA:11,_RNvYNtNtNtNtCsdL4DZEAGarf_15everscale_types4cell9cell_impl2rc4CellNtNtCsipbLpstqwUV_8tycho_vm5stack10StackValue8as_tupleCscQlb7znvrtA_9vm_opcode
FNDA:2885569,_RINvMNtCsipbLpstqwUV_8tycho_vm5stackNtB3_5Stack12push_opt_rawDNtB3_10StackValueEL_EB5_
FNDA:96279,_RINvMNtCsipbLpstqwUV_8tycho_vm5stackNtB3_5Stack12push_opt_rawNtNtNtNtCsdL4DZEAGarf_15everscale_types4cell9cell_impl2rc4CellEB5_
FNDA:28408,_RINvMNtCsipbLpstqwUV_8tycho_vm5stackNtB3_5Stack4pushINtNtCs8f1B5igIjLM_5alloc3vec3VecINtNtB5_6saferc6SafeRcDNtB3_10StackValueEL_EEEB5_
FNDA:3244759,_RINvMNtCsipbLpstqwUV_8tycho_vm5stackNtB3_5Stack4pushNtNtB5_4util14OwnedCellSliceEB5_
FNDA:40162195,_RINvMNtCsipbLpstqwUV_8tycho_vm5stackNtB3_5Stack4pushNtNtCslhaYGTY3Pkx_10num_bigint6bigint6BigIntEB5_
FNDA:1776405,_RINvMNtCsipbLpstqwUV_8tycho_vm5stackNtB3_5Stack4pushNtNtNtCsdL4DZEAGarf_15everscale_types4cell7builder11CellBuilderEB5_
FNDA:666705,_RINvMNtCsipbLpstqwUV_8tycho_vm5stackNtB3_5Stack4pushNtNtNtNtCsdL4DZEAGarf_15everscale_types4cell9cell_impl2rc4CellEB5_
FNDA:3272336,_RINvMNtCsipbLpstqwUV_8tycho_vm5stackNtB3_5Stack8push_intNtNtCslhaYGTY3Pkx_10num_bigint6bigint6BigIntEB5_
FNDA:10836,_RINvMNtCsipbLpstqwUV_8tycho_vm5stackNtB3_5Stack8push_intaEB5_
FNDA:50512,_RINvMNtCsipbLpstqwUV_8tycho_vm5stackNtB3_5Stack8push_inthEB5_
FNDA:1702997,_RINvMNtCsipbLpstqwUV_8tycho_vm5stackNtB3_5Stack8push_intjEB5_
FNDA:33895382,_RINvMNtCsipbLpstqwUV_8tycho_vm5stackNtB3_5Stack8push_intlEB5_
FNDA:640718,_RINvMNtCsipbLpstqwUV_8tycho_vm5stackNtB3_5Stack8push_intmEB5_
FNDA:0,_RINvMNtCsipbLpstqwUV_8tycho_vm5stackNtB3_5Stack8push_intoEB5_
FNDA:352566,_RINvMNtCsipbLpstqwUV_8tycho_vm5stackNtB3_5Stack8push_inttEB5_
FNDA:5732,_RINvMNtCsipbLpstqwUV_8tycho_vm5stackNtB3_5Stack8push_intxEB5_
FNDA:215861,_RINvMNtCsipbLpstqwUV_8tycho_vm5stackNtB3_5Stack8push_intyEB5_
FNDA:258632,_RINvMNtCsipbLpstqwUV_8tycho_vm5stackNtB3_5Stack8push_optNtNtNtNtCsdL4DZEAGarf_15everscale_types4cell9cell_impl2rc4CellEB5_
FNDA:56076016,_RINvMNtCsipbLpstqwUV_8tycho_vm5stackNtB3_5Stack8push_rawDNtB3_10StackValueEL_EB5_
FNDA:605097,_RINvMNtCsipbLpstqwUV_8tycho_vm5stackNtB3_5Stack8push_rawDNtNtB5_4cont4ContEL_EB5_
FNDA:1024267,_RINvMNtCsipbLpstqwUV_8tycho_vm5stackNtB3_5Stack8push_rawINtNtCs8f1B5igIjLM_5alloc3vec3VecINtNtB5_6saferc6SafeRcDNtB3_10StackValueEL_EEEB5_
FNDA:4482304,_RINvMNtCsipbLpstqwUV_8tycho_vm5stackNtB3_5Stack8push_rawNtNtB5_4cont7OrdContEB5_
FNDA:472266,_RINvMNtCsipbLpstqwUV_8tycho_vm5stackNtB3_5Stack8push_rawNtNtB5_4util14OwnedCellSliceEB5_
FNDA:9660097,_RINvMNtCsipbLpstqwUV_8tycho_vm5stackNtB3_5Stack8push_rawNtNtCslhaYGTY3Pkx_10num_bigint6bigint6BigIntEB5_
FNDA:543069,_RINvMNtCsipbLpstqwUV_8tycho_vm5stackNtB3_5Stack8push_rawNtNtNtCsdL4DZEAGarf_15everscale_types4cell7builder11CellBuilderEB5_
FNDA:28325,_RINvMNtCsipbLpstqwUV_8tycho_vm5stackNtB3_5Stack8push_rawNtNtNtNtCsdL4DZEAGarf_15everscale_types4cell9cell_impl2rc4CellEB5_
FNDA:28408,_RINvMsr_NtCsipbLpstqwUV_8tycho_vm5stackINtNtB8_6saferc6SafeRcDNtB6_10StackValueEL_E13new_dyn_valueINtNtCs8f1B5igIjLM_5alloc3vec3VecBB_EEB8_
FNDA:1,_RINvMsr_NtCsipbLpstqwUV_8tycho_vm5stackINtNtB8_6saferc6SafeRcDNtB6_10StackValueEL_E13new_dyn_valueNtB6_3NaNEB8_
FNDA:3294069,_RINvMsr_NtCsipbLpstqwUV_8tycho_vm5stackINtNtB8_6saferc6SafeRcDNtB6_10StackValueEL_E13new_dyn_valueNtNtB8_4util14OwnedCellSliceEB8_
FNDA:46176801,_RINvMsr_NtCsipbLpstqwUV_8tycho_vm5stackINtNtB8_6saferc6SafeRcDNtB6_10StackValueEL_E13new_dyn_valueNtNtCslhaYGTY3Pkx_10num_bigint6bigint6BigIntEB8_
FNDA:1776405,_RINvMsr_NtCsipbLpstqwUV_8tycho_vm5stackINtNtB8_6saferc6SafeRcDNtB6_10StackValueEL_E13new_dyn_valueNtNtNtCsdL4DZEAGarf_15everscale_types4cell7builder11CellBuilderEB8_
FNDA:944480,_RINvMsr_NtCsipbLpstqwUV_8tycho_vm5stackINtNtB8_6saferc6SafeRcDNtB6_10StackValueEL_E13new_dyn_valueNtNtNtNtCsdL4DZEAGarf_15everscale_types4cell9cell_impl2rc4CellEB8_
FNDA:1,_RINvMsr_NtCsipbLpstqwUV_8tycho_vm5stackINtNtB8_6saferc6SafeRcDNtB6_10StackValueEL_E13new_dyn_valueuEB8_
FNDA:316646,_RINvYSINtNtCsipbLpstqwUV_8tycho_vm6saferc6SafeRcDNtNtB9_5stack10StackValueEL_ENtBN_8TupleExt11try_get_refINtNtCs8f1B5igIjLM_5alloc3vec3VecB4_EEB9_
FNDA:32910,_RINvYSINtNtCsipbLpstqwUV_8tycho_vm6saferc6SafeRcDNtNtB9_5stack10StackValueEL_ENtBN_8TupleExt11try_get_refNtNtB9_4util14OwnedCellSliceEB9_
FNDA:0,_RINvYSINtNtCsipbLpstqwUV_8tycho_vm6saferc6SafeRcDNtNtB9_5stack10StackValueEL_ENtBN_8TupleExt11try_get_refNtNtCslhaYGTY3Pkx_10num_bigint6bigint6BigIntEB9_
FNDA:0,_RINvYSINtNtCsipbLpstqwUV_8tycho_vm6saferc6SafeRcDNtNtB9_5stack10StackValueEL_ENtBN_8TupleExt11try_get_refNtNtNtNtCsdL4DZEAGarf_15everscale_types4cell9cell_impl2rc4CellEB9_
FNDA:316646,_RINvYSINtNtCsipbLpstqwUV_8tycho_vm6saferc6SafeRcDNtNtB9_5stack10StackValueEL_ENtBN_8TupleExt19try_get_tuple_rangeINtNtNtCscHntIWw2aYb_4core3ops5range14RangeInclusivejEEB9_
FNDA:0,_RNCNvXNvNtCsipbLpstqwUV_8tycho_vm5stack1__NtB6_14StackValueTypeNtCs2k73FkEQrbY_9arbitrary9Arbitrary13try_size_hint0B8_
FNDA:0,_RNCNvXNvNtCsipbLpstqwUV_8tycho_vm5stack1__NtB6_14StackValueTypeNtCs2k73FkEQrbY_9arbitrary9Arbitrary19arbitrary_take_rests0_0B8_
FNDA:0,_RNCNvXNvNtCsipbLpstqwUV_8tycho_vm5stack1__NtB6_14StackValueTypeNtCs2k73FkEQrbY_9arbitrary9Arbitrary19arbitrary_take_rests_0B8_
FNDA:0,_RNCNvXNvNtCsipbLpstqwUV_8tycho_vm5stack1__NtB6_14StackValueTypeNtCs2k73FkEQrbY_9arbitrary9Arbitrary9arbitrarys0_0B8_
FNDA:0,_RNCNvXNvNtCsipbLpstqwUV_8tycho_vm5stack1__NtB6_14StackValueTypeNtCs2k73FkEQrbY_9arbitrary9Arbitrary9arbitrarys_0B8_
FNDA:160458,_RNvMNtCsipbLpstqwUV_8tycho_vm5stackNtB2_5Stack11drop_bottom
FNDA:1211353,_RNvMNtCsipbLpstqwUV_8tycho_vm5stackNtB2_5Stack11pop_builder
FNDA:0,_RNvMNtCsipbLpstqwUV_8tycho_vm5stackNtB2_5Stack12get_exit_arg
FNDA:954531,_RNvMNtCsipbLpstqwUV_8tycho_vm5stackNtB2_5Stack12pop_cell_opt
FNDA:8357474,_RNvMNtCsipbLpstqwUV_8tycho_vm5stackNtB2_5Stack12push_raw_int
FNDA:2126773,_RNvMNtCsipbLpstqwUV_8tycho_vm5stackNtB2_5Stack13reverse_range
FNDA:35198,_RNvMNtCsipbLpstqwUV_8tycho_vm5stackNtB2_5Stack13split_top_ext
FNDA:455611,_RNvMNtCsipbLpstqwUV_8tycho_vm5stackNtB2_5Stack14make_minus_one
FNDA:18107713,_RNvMNtCsipbLpstqwUV_8tycho_vm5stackNtB2_5Stack14pop_int_or_nan
FNDA:918605,_RNvMNtCsipbLpstqwUV_8tycho_vm5stackNtB2_5Stack14pop_long_range
FNDA:1275082,_RNvMNtCsipbLpstqwUV_8tycho_vm5stackNtB2_5Stack15move_from_stack
FNDA:369405,_RNvMNtCsipbLpstqwUV_8tycho_vm5stackNtB2_5Stack15pop_tuple_range
FNDA:0,_RNvMNtCsipbLpstqwUV_8tycho_vm5stackNtB2_5Stack16load_stack_value
FNDA:0,_RNvMNtCsipbLpstqwUV_8tycho_vm5stackNtB2_5Stack16make_empty_tuple
FNDA:4929593,_RNvMNtCsipbLpstqwUV_8tycho_vm5stackNtB2_5Stack18pop_smallint_range
FNDA:540318,_RNvMNtCsipbLpstqwUV_8tycho_vm5stackNtB2_5Stack19pop_opt_tuple_range
